
C:\Users\admin\AppData\Local\Temp\arduino\sketches\7C85B34F86C5F43AA0B8D1064BFD45B9/MarketForge_Control.ino.elf:     file format elf32-avr


Disassembly of section .text:

00000000 <__vectors>:
__vectors():
       0:	0c 94 58 01 	jmp	0x2b0	; 0x2b0 <__dtors_end>
       4:	0c 94 89 01 	jmp	0x312	; 0x312 <__bad_interrupt>
       8:	0c 94 89 01 	jmp	0x312	; 0x312 <__bad_interrupt>
       c:	0c 94 89 01 	jmp	0x312	; 0x312 <__bad_interrupt>
      10:	0c 94 89 01 	jmp	0x312	; 0x312 <__bad_interrupt>
      14:	0c 94 89 01 	jmp	0x312	; 0x312 <__bad_interrupt>
      18:	0c 94 89 01 	jmp	0x312	; 0x312 <__bad_interrupt>
      1c:	0c 94 89 01 	jmp	0x312	; 0x312 <__bad_interrupt>
      20:	0c 94 89 01 	jmp	0x312	; 0x312 <__bad_interrupt>
      24:	0c 94 89 01 	jmp	0x312	; 0x312 <__bad_interrupt>
      28:	0c 94 89 01 	jmp	0x312	; 0x312 <__bad_interrupt>
      2c:	0c 94 89 01 	jmp	0x312	; 0x312 <__bad_interrupt>
      30:	0c 94 89 01 	jmp	0x312	; 0x312 <__bad_interrupt>
      34:	0c 94 89 01 	jmp	0x312	; 0x312 <__bad_interrupt>
      38:	0c 94 89 01 	jmp	0x312	; 0x312 <__bad_interrupt>
      3c:	0c 94 89 01 	jmp	0x312	; 0x312 <__bad_interrupt>
      40:	0c 94 89 01 	jmp	0x312	; 0x312 <__bad_interrupt>
      44:	0c 94 89 01 	jmp	0x312	; 0x312 <__bad_interrupt>
      48:	0c 94 89 01 	jmp	0x312	; 0x312 <__bad_interrupt>
      4c:	0c 94 89 01 	jmp	0x312	; 0x312 <__bad_interrupt>
      50:	0c 94 89 01 	jmp	0x312	; 0x312 <__bad_interrupt>
      54:	0c 94 89 01 	jmp	0x312	; 0x312 <__bad_interrupt>
      58:	0c 94 89 01 	jmp	0x312	; 0x312 <__bad_interrupt>
      5c:	0c 94 a8 19 	jmp	0x3350	; 0x3350 <__vector_23>
      60:	0c 94 89 01 	jmp	0x312	; 0x312 <__bad_interrupt>
      64:	0c 94 7c 1a 	jmp	0x34f8	; 0x34f8 <__vector_25>
      68:	0c 94 52 1a 	jmp	0x34a4	; 0x34a4 <__vector_26>
      6c:	0c 94 89 01 	jmp	0x312	; 0x312 <__bad_interrupt>
      70:	0c 94 89 01 	jmp	0x312	; 0x312 <__bad_interrupt>
      74:	0c 94 89 01 	jmp	0x312	; 0x312 <__bad_interrupt>
      78:	0c 94 89 01 	jmp	0x312	; 0x312 <__bad_interrupt>
      7c:	0c 94 89 01 	jmp	0x312	; 0x312 <__bad_interrupt>
      80:	0c 94 89 01 	jmp	0x312	; 0x312 <__bad_interrupt>
      84:	0c 94 89 01 	jmp	0x312	; 0x312 <__bad_interrupt>
      88:	0c 94 89 01 	jmp	0x312	; 0x312 <__bad_interrupt>
      8c:	0c 94 89 01 	jmp	0x312	; 0x312 <__bad_interrupt>
      90:	0c 94 89 01 	jmp	0x312	; 0x312 <__bad_interrupt>
      94:	0c 94 89 01 	jmp	0x312	; 0x312 <__bad_interrupt>
      98:	0c 94 89 01 	jmp	0x312	; 0x312 <__bad_interrupt>
      9c:	0c 94 b2 1a 	jmp	0x3564	; 0x3564 <__vector_39>
      a0:	0c 94 89 01 	jmp	0x312	; 0x312 <__bad_interrupt>
      a4:	0c 94 89 01 	jmp	0x312	; 0x312 <__bad_interrupt>
      a8:	0c 94 89 01 	jmp	0x312	; 0x312 <__bad_interrupt>
      ac:	0c 94 89 01 	jmp	0x312	; 0x312 <__bad_interrupt>
      b0:	0c 94 89 01 	jmp	0x312	; 0x312 <__bad_interrupt>
      b4:	0c 94 89 01 	jmp	0x312	; 0x312 <__bad_interrupt>
      b8:	0c 94 89 01 	jmp	0x312	; 0x312 <__bad_interrupt>
      bc:	0c 94 89 01 	jmp	0x312	; 0x312 <__bad_interrupt>
      c0:	0c 94 89 01 	jmp	0x312	; 0x312 <__bad_interrupt>
      c4:	0c 94 89 01 	jmp	0x312	; 0x312 <__bad_interrupt>
      c8:	0c 94 89 01 	jmp	0x312	; 0x312 <__bad_interrupt>
      cc:	0c 94 89 01 	jmp	0x312	; 0x312 <__bad_interrupt>
      d0:	0c 94 89 01 	jmp	0x312	; 0x312 <__bad_interrupt>
      d4:	0c 94 89 01 	jmp	0x312	; 0x312 <__bad_interrupt>
      d8:	0c 94 1c 1a 	jmp	0x3438	; 0x3438 <__vector_54>
      dc:	0c 94 f2 19 	jmp	0x33e4	; 0x33e4 <__vector_55>
      e0:	0c 94 89 01 	jmp	0x312	; 0x312 <__bad_interrupt>

000000e4 <__trampolines_start>:
__trampolines_start():
      e4:	0c 94 c1 05 	jmp	0xb82	; 0xb82 <turnOffPWM+0x48>
      e8:	0c 94 34 09 	jmp	0x1268	; 0x1268 <HardwareSerial::write(unsigned char)>
      ec:	0c 94 eb 05 	jmp	0xbd6	; 0xbd6 <turnOffPWM+0x9c>
      f0:	0c 94 01 06 	jmp	0xc02	; 0xc02 <turnOffPWM+0xc8>
      f4:	0c 94 fd 05 	jmp	0xbfa	; 0xbfa <turnOffPWM+0xc0>
      f8:	0c 94 95 12 	jmp	0x252a	; 0x252a <tickHeater()>
      fc:	0c 94 d0 08 	jmp	0x11a0	; 0x11a0 <HardwareSerial::read()>
     100:	0c 94 7c 12 	jmp	0x24f8	; 0x24f8 <tick1Sec()>
     104:	0c 94 cc 1b 	jmp	0x3798	; 0x3798 <global constructors keyed to 65535_0_MarketForge_Control.ino.cpp.o.2926>
     108:	0c 94 e1 05 	jmp	0xbc2	; 0xbc2 <turnOffPWM+0x88>
     10c:	0c 94 81 09 	jmp	0x1302	; 0x1302 <HardwareSerial::flush()>
     110:	0c 94 c9 05 	jmp	0xb92	; 0xb92 <turnOffPWM+0x58>
     114:	0c 94 5a 24 	jmp	0x48b4	; 0x48b4 <_GLOBAL__sub_D_tempSensor>
     118:	0c 94 94 08 	jmp	0x1128	; 0x1128 <Print::write(unsigned char const*, unsigned int)>
     11c:	0c 94 00 06 	jmp	0xc00	; 0xc00 <turnOffPWM+0xc6>
     120:	0c 94 f5 05 	jmp	0xbea	; 0xbea <turnOffPWM+0xb0>
     124:	0c 94 c1 08 	jmp	0x1182	; 0x1182 <HardwareSerial::availableForWrite()>
     128:	0c 94 bb 05 	jmp	0xb76	; 0xb76 <turnOffPWM+0x3c>
     12c:	0c 94 f2 08 	jmp	0x11e4	; 0x11e4 <HardwareSerial::available()>
     130:	0c 94 dd 05 	jmp	0xbba	; 0xbba <turnOffPWM+0x80>
     134:	0c 94 2c 0a 	jmp	0x1458	; 0x1458 <out_buffer(char, void*, unsigned int, unsigned int)>
     138:	0c 94 cf 05 	jmp	0xb9e	; 0xb9e <turnOffPWM+0x64>
     13c:	0c 94 f9 05 	jmp	0xbf2	; 0xbf2 <turnOffPWM+0xb8>
     140:	0c 94 d3 05 	jmp	0xba6	; 0xba6 <turnOffPWM+0x6c>
     144:	0c 94 e0 27 	jmp	0x4fc0	; 0x4fc0 <__divdi3_moddi3+0x16>
     148:	0c 94 ef 05 	jmp	0xbde	; 0xbde <turnOffPWM+0xa4>
     14c:	0c 94 e7 05 	jmp	0xbce	; 0xbce <turnOffPWM+0x94>
     150:	0c 94 e4 08 	jmp	0x11c8	; 0x11c8 <HardwareSerial::peek()>
     154:	0c 94 d9 05 	jmp	0xbb2	; 0xbb2 <turnOffPWM+0x78>
     158:	0c 94 c5 05 	jmp	0xb8a	; 0xb8a <turnOffPWM+0x50>

0000015c <__trampolines_end>:
__trampolines_end():
     15c:	00 00       	nop
     15e:	21 00       	.word	0x0021	; ????
     160:	24 00       	.word	0x0024	; ????
     162:	27 00       	.word	0x0027	; ????
     164:	2a 00       	.word	0x002a	; ????
     166:	2d 00       	.word	0x002d	; ????
     168:	30 00       	.word	0x0030	; ????
     16a:	33 00       	.word	0x0033	; ????
     16c:	01 01       	movw	r0, r2
     16e:	00 00       	nop
     170:	04 01       	movw	r0, r8
     172:	07 01       	movw	r0, r14
     174:	0a 01       	movw	r0, r20

00000176 <digital_pin_to_timer_PGM>:
     176:	00 00 0b 0c 03 0a 0d 0e 0f 09 08 04 05 02 00 00     ................
	...
     1a2:	13 12 11 00 00 00 00 00 00 00 00 00 00 00 00 00     ................
	...

000001cc <port_to_input_PGM>:
     1cc:	00 00 20 00 23 00 26 00 29 00 2c 00 2f 00 32 00     .. .#.&.).,./.2.
     1dc:	00 01 00 00 03 01 06 01 09 01                       ..........

000001e6 <digital_pin_to_bit_mask_PGM>:
     1e6:	01 02 10 20 20 08 08 10 20 40 10 20 40 80 02 01     ...  ... @. @...
     1f6:	02 01 08 04 02 01 01 02 04 08 10 20 40 80 80 40     ........... @..@
     206:	20 10 08 04 02 01 80 04 02 01 80 40 20 10 08 04      ..........@ ...
     216:	02 01 08 04 02 01 01 02 04 08 10 20 40 80 01 02     ........... @...
     226:	04 08 10 20 40 80 04 40 80 04 80 08 10 10 20 40     ... @..@...... @
     236:	04 08 10 20 40 80                                   ... @.

0000023c <port_to_output_PGM>:
     23c:	00 00 22 00 25 00 28 00 2b 00 2e 00 31 00 34 00     ..".%.(.+...1.4.
     24c:	02 01 00 00 05 01 08 01 0b 01                       ..........

00000256 <digital_pin_to_port_PGM>:
     256:	05 05 05 05 07 05 08 08 08 08 02 02 02 02 0a 0a     ................
     266:	08 08 04 04 04 04 01 01 01 01 01 01 01 01 03 03     ................
     276:	03 03 03 03 03 03 04 07 07 07 0c 0c 0c 0c 0c 0c     ................
     286:	0c 0c 02 02 02 02 06 06 06 06 06 06 06 06 0b 0b     ................
     296:	0b 0b 0b 0b 0b 0b 05 05 05 08 08 07 07 04 04 04     ................
     2a6:	0a 0a 0a 0a 0a 0a                                   ......

000002ac <__ctors_start>:
__ctors_start():
     2ac:	cc 1b       	sub	r28, r28

000002ae <__ctors_end>:
__dtors_start():
     2ae:	5a 24       	eor	r5, r10

000002b0 <__dtors_end>:
__dtors_end():
     2b0:	11 24       	eor	r1, r1
     2b2:	1f be       	out	0x3f, r1	; 63
     2b4:	cf ef       	ldi	r28, 0xFF	; 255
     2b6:	d1 e2       	ldi	r29, 0x21	; 33
     2b8:	de bf       	out	0x3e, r29	; 62
     2ba:	cd bf       	out	0x3d, r28	; 61
     2bc:	00 e0       	ldi	r16, 0x00	; 0
     2be:	0c bf       	out	0x3c, r16	; 60

000002c0 <__do_copy_data>:
__do_copy_data():
/home/jenkins-mingw32/workspace/avr-gcc-staging/label/Ubuntu14.04x64-mingw32/gcc-build/avr/avr6/libgcc/../../../../gcc/libgcc/config/avr/lib1funcs.S:2373
     2c0:	13 e0       	ldi	r17, 0x03	; 3
/home/jenkins-mingw32/workspace/avr-gcc-staging/label/Ubuntu14.04x64-mingw32/gcc-build/avr/avr6/libgcc/../../../../gcc/libgcc/config/avr/lib1funcs.S:2374
     2c2:	a0 e0       	ldi	r26, 0x00	; 0
/home/jenkins-mingw32/workspace/avr-gcc-staging/label/Ubuntu14.04x64-mingw32/gcc-build/avr/avr6/libgcc/../../../../gcc/libgcc/config/avr/lib1funcs.S:2375
     2c4:	b2 e0       	ldi	r27, 0x02	; 2
/home/jenkins-mingw32/workspace/avr-gcc-staging/label/Ubuntu14.04x64-mingw32/gcc-build/avr/avr6/libgcc/../../../../gcc/libgcc/config/avr/lib1funcs.S:2376
     2c6:	ec e3       	ldi	r30, 0x3C	; 60
/home/jenkins-mingw32/workspace/avr-gcc-staging/label/Ubuntu14.04x64-mingw32/gcc-build/avr/avr6/libgcc/../../../../gcc/libgcc/config/avr/lib1funcs.S:2377
     2c8:	f4 e5       	ldi	r31, 0x54	; 84
/home/jenkins-mingw32/workspace/avr-gcc-staging/label/Ubuntu14.04x64-mingw32/gcc-build/avr/avr6/libgcc/../../../../gcc/libgcc/config/avr/lib1funcs.S:2378
     2ca:	00 e0       	ldi	r16, 0x00	; 0
/home/jenkins-mingw32/workspace/avr-gcc-staging/label/Ubuntu14.04x64-mingw32/gcc-build/avr/avr6/libgcc/../../../../gcc/libgcc/config/avr/lib1funcs.S:2379
     2cc:	0b bf       	out	0x3b, r16	; 59
/home/jenkins-mingw32/workspace/avr-gcc-staging/label/Ubuntu14.04x64-mingw32/gcc-build/avr/avr6/libgcc/../../../../gcc/libgcc/config/avr/lib1funcs.S:2380
     2ce:	02 c0       	rjmp	.+4      	; 0x2d4 <__do_copy_data+0x14>
/home/jenkins-mingw32/workspace/avr-gcc-staging/label/Ubuntu14.04x64-mingw32/gcc-build/avr/avr6/libgcc/../../../../gcc/libgcc/config/avr/lib1funcs.S:2382
     2d0:	07 90       	elpm	r0, Z+
/home/jenkins-mingw32/workspace/avr-gcc-staging/label/Ubuntu14.04x64-mingw32/gcc-build/avr/avr6/libgcc/../../../../gcc/libgcc/config/avr/lib1funcs.S:2383
     2d2:	0d 92       	st	X+, r0
/home/jenkins-mingw32/workspace/avr-gcc-staging/label/Ubuntu14.04x64-mingw32/gcc-build/avr/avr6/libgcc/../../../../gcc/libgcc/config/avr/lib1funcs.S:2385
     2d4:	ae 31       	cpi	r26, 0x1E	; 30
/home/jenkins-mingw32/workspace/avr-gcc-staging/label/Ubuntu14.04x64-mingw32/gcc-build/avr/avr6/libgcc/../../../../gcc/libgcc/config/avr/lib1funcs.S:2386
     2d6:	b1 07       	cpc	r27, r17
/home/jenkins-mingw32/workspace/avr-gcc-staging/label/Ubuntu14.04x64-mingw32/gcc-build/avr/avr6/libgcc/../../../../gcc/libgcc/config/avr/lib1funcs.S:2387
     2d8:	d9 f7       	brne	.-10     	; 0x2d0 <__do_copy_data+0x10>

000002da <__do_clear_bss>:
__do_clear_bss():
/home/jenkins-mingw32/workspace/avr-gcc-staging/label/Ubuntu14.04x64-mingw32/gcc-build/avr/avr6/libgcc/../../../../gcc/libgcc/config/avr/lib1funcs.S:2441
     2da:	25 e0       	ldi	r18, 0x05	; 5
/home/jenkins-mingw32/workspace/avr-gcc-staging/label/Ubuntu14.04x64-mingw32/gcc-build/avr/avr6/libgcc/../../../../gcc/libgcc/config/avr/lib1funcs.S:2442
     2dc:	ae e1       	ldi	r26, 0x1E	; 30
/home/jenkins-mingw32/workspace/avr-gcc-staging/label/Ubuntu14.04x64-mingw32/gcc-build/avr/avr6/libgcc/../../../../gcc/libgcc/config/avr/lib1funcs.S:2443
     2de:	b3 e0       	ldi	r27, 0x03	; 3
/home/jenkins-mingw32/workspace/avr-gcc-staging/label/Ubuntu14.04x64-mingw32/gcc-build/avr/avr6/libgcc/../../../../gcc/libgcc/config/avr/lib1funcs.S:2444
     2e0:	01 c0       	rjmp	.+2      	; 0x2e4 <.do_clear_bss_start>

000002e2 <.do_clear_bss_loop>:
/home/jenkins-mingw32/workspace/avr-gcc-staging/label/Ubuntu14.04x64-mingw32/gcc-build/avr/avr6/libgcc/../../../../gcc/libgcc/config/avr/lib1funcs.S:2446
     2e2:	1d 92       	st	X+, r1

000002e4 <.do_clear_bss_start>:
/home/jenkins-mingw32/workspace/avr-gcc-staging/label/Ubuntu14.04x64-mingw32/gcc-build/avr/avr6/libgcc/../../../../gcc/libgcc/config/avr/lib1funcs.S:2448
     2e4:	a0 3a       	cpi	r26, 0xA0	; 160
/home/jenkins-mingw32/workspace/avr-gcc-staging/label/Ubuntu14.04x64-mingw32/gcc-build/avr/avr6/libgcc/../../../../gcc/libgcc/config/avr/lib1funcs.S:2449
     2e6:	b2 07       	cpc	r27, r18
/home/jenkins-mingw32/workspace/avr-gcc-staging/label/Ubuntu14.04x64-mingw32/gcc-build/avr/avr6/libgcc/../../../../gcc/libgcc/config/avr/lib1funcs.S:2450
     2e8:	e1 f7       	brne	.-8      	; 0x2e2 <.do_clear_bss_loop>

000002ea <__do_global_ctors>:
__do_global_ctors():
/home/jenkins-mingw32/workspace/avr-gcc-staging/label/Ubuntu14.04x64-mingw32/gcc-build/avr/avr6/libgcc/../../../../gcc/libgcc/config/avr/lib1funcs.S:2466
     2ea:	11 e0       	ldi	r17, 0x01	; 1
/home/jenkins-mingw32/workspace/avr-gcc-staging/label/Ubuntu14.04x64-mingw32/gcc-build/avr/avr6/libgcc/../../../../gcc/libgcc/config/avr/lib1funcs.S:2467
     2ec:	c7 e5       	ldi	r28, 0x57	; 87
/home/jenkins-mingw32/workspace/avr-gcc-staging/label/Ubuntu14.04x64-mingw32/gcc-build/avr/avr6/libgcc/../../../../gcc/libgcc/config/avr/lib1funcs.S:2468
     2ee:	d1 e0       	ldi	r29, 0x01	; 1
/home/jenkins-mingw32/workspace/avr-gcc-staging/label/Ubuntu14.04x64-mingw32/gcc-build/avr/avr6/libgcc/../../../../gcc/libgcc/config/avr/lib1funcs.S:2470
     2f0:	00 e0       	ldi	r16, 0x00	; 0
/home/jenkins-mingw32/workspace/avr-gcc-staging/label/Ubuntu14.04x64-mingw32/gcc-build/avr/avr6/libgcc/../../../../gcc/libgcc/config/avr/lib1funcs.S:2472
     2f2:	06 c0       	rjmp	.+12     	; 0x300 <__do_global_ctors+0x16>
/home/jenkins-mingw32/workspace/avr-gcc-staging/label/Ubuntu14.04x64-mingw32/gcc-build/avr/avr6/libgcc/../../../../gcc/libgcc/config/avr/lib1funcs.S:2474
     2f4:	21 97       	sbiw	r28, 0x01	; 1
/home/jenkins-mingw32/workspace/avr-gcc-staging/label/Ubuntu14.04x64-mingw32/gcc-build/avr/avr6/libgcc/../../../../gcc/libgcc/config/avr/lib1funcs.S:2476
     2f6:	01 09       	sbc	r16, r1
/home/jenkins-mingw32/workspace/avr-gcc-staging/label/Ubuntu14.04x64-mingw32/gcc-build/avr/avr6/libgcc/../../../../gcc/libgcc/config/avr/lib1funcs.S:2477
     2f8:	80 2f       	mov	r24, r16
/home/jenkins-mingw32/workspace/avr-gcc-staging/label/Ubuntu14.04x64-mingw32/gcc-build/avr/avr6/libgcc/../../../../gcc/libgcc/config/avr/lib1funcs.S:2480
     2fa:	fe 01       	movw	r30, r28
/home/jenkins-mingw32/workspace/avr-gcc-staging/label/Ubuntu14.04x64-mingw32/gcc-build/avr/avr6/libgcc/../../../../gcc/libgcc/config/avr/lib1funcs.S:2481
     2fc:	0e 94 ca 27 	call	0x4f94	; 0x4f94 <__tablejump2__>
/home/jenkins-mingw32/workspace/avr-gcc-staging/label/Ubuntu14.04x64-mingw32/gcc-build/avr/avr6/libgcc/../../../../gcc/libgcc/config/avr/lib1funcs.S:2483
     300:	c6 35       	cpi	r28, 0x56	; 86
/home/jenkins-mingw32/workspace/avr-gcc-staging/label/Ubuntu14.04x64-mingw32/gcc-build/avr/avr6/libgcc/../../../../gcc/libgcc/config/avr/lib1funcs.S:2484
     302:	d1 07       	cpc	r29, r17
/home/jenkins-mingw32/workspace/avr-gcc-staging/label/Ubuntu14.04x64-mingw32/gcc-build/avr/avr6/libgcc/../../../../gcc/libgcc/config/avr/lib1funcs.S:2486
     304:	80 e0       	ldi	r24, 0x00	; 0
/home/jenkins-mingw32/workspace/avr-gcc-staging/label/Ubuntu14.04x64-mingw32/gcc-build/avr/avr6/libgcc/../../../../gcc/libgcc/config/avr/lib1funcs.S:2487
     306:	08 07       	cpc	r16, r24
/home/jenkins-mingw32/workspace/avr-gcc-staging/label/Ubuntu14.04x64-mingw32/gcc-build/avr/avr6/libgcc/../../../../gcc/libgcc/config/avr/lib1funcs.S:2489
     308:	a9 f7       	brne	.-22     	; 0x2f4 <__do_global_ctors+0xa>
     30a:	0e 94 c9 1d 	call	0x3b92	; 0x3b92 <main>
     30e:	0c 94 0c 2a 	jmp	0x5418	; 0x5418 <__do_global_dtors>

00000312 <__bad_interrupt>:
__vector_38():
     312:	0c 94 00 00 	jmp	0	; 0x0 <__vectors>

00000316 <VFD_NEC_FC20X2::Init() [clone .constprop.52]>:
_ZN14VFD_NEC_FC20X24InitEv.constprop.52():
c:\Users\admin\Documents\Arduino\libraries\VFD_NEC_FC20X2/vfd_nec_fc20x2.h:33
        void setSerialPort(Stream * streamObject) {
            _serPort = streamObject;
        }

        void Init() {
            _serPort->write(CURSOR_OFF);
     316:	80 91 a9 03 	lds	r24, 0x03A9	; 0x8003a9 <vfd>
     31a:	90 91 aa 03 	lds	r25, 0x03AA	; 0x8003aa <vfd+0x1>
     31e:	dc 01       	movw	r26, r24
     320:	ed 91       	ld	r30, X+
     322:	fc 91       	ld	r31, X
     324:	01 90       	ld	r0, Z+
     326:	f0 81       	ld	r31, Z
     328:	e0 2d       	mov	r30, r0
     32a:	64 e1       	ldi	r22, 0x14	; 20
     32c:	19 95       	eicall
c:\Users\admin\Documents\Arduino\libraries\VFD_NEC_FC20X2/vfd_nec_fc20x2.h:34
            _serPort->write(NORMAL_write);
     32e:	80 91 a9 03 	lds	r24, 0x03A9	; 0x8003a9 <vfd>
     332:	90 91 aa 03 	lds	r25, 0x03AA	; 0x8003aa <vfd+0x1>
     336:	dc 01       	movw	r26, r24
     338:	ed 91       	ld	r30, X+
     33a:	fc 91       	ld	r31, X
     33c:	01 90       	ld	r0, Z+
     33e:	f0 81       	ld	r31, Z
     340:	e0 2d       	mov	r30, r0
     342:	61 e1       	ldi	r22, 0x11	; 17
     344:	19 95       	eicall
c:\Users\admin\Documents\Arduino\libraries\VFD_NEC_FC20X2/vfd_nec_fc20x2.h:35
            _serPort->write(BRIGTHNESS_75);
     346:	80 91 a9 03 	lds	r24, 0x03A9	; 0x8003a9 <vfd>
     34a:	90 91 aa 03 	lds	r25, 0x03AA	; 0x8003aa <vfd+0x1>
     34e:	dc 01       	movw	r26, r24
     350:	ed 91       	ld	r30, X+
     352:	fc 91       	ld	r31, X
     354:	01 90       	ld	r0, Z+
     356:	f0 81       	ld	r31, Z
     358:	e0 2d       	mov	r30, r0
     35a:	62 e0       	ldi	r22, 0x02	; 2
     35c:	19 95       	eicall
c:\Users\admin\Documents\Arduino\libraries\VFD_NEC_FC20X2/vfd_nec_fc20x2.h:36
            _serPort->write(CLEAR_DISPLAY);
     35e:	80 91 a9 03 	lds	r24, 0x03A9	; 0x8003a9 <vfd>
     362:	90 91 aa 03 	lds	r25, 0x03AA	; 0x8003aa <vfd+0x1>
     366:	dc 01       	movw	r26, r24
     368:	ed 91       	ld	r30, X+
     36a:	fc 91       	ld	r31, X
     36c:	01 90       	ld	r0, Z+
     36e:	f0 81       	ld	r31, Z
     370:	e0 2d       	mov	r30, r0
     372:	6c e0       	ldi	r22, 0x0C	; 12
     374:	19 94       	eijmp

00000376 <out_rev_(void (*)(char, void*, unsigned int, unsigned int), char*, unsigned int, unsigned int, char const*, unsigned int, unsigned int, unsigned int) [clone .constprop.46]>:
_ZL8out_rev_PFvcPvjjEPcjjPKcjjj.constprop.46():
c:\users\admin\documents\arduino\libraries\libprintf\extras\printf/printf.c:292
  return i;
}


// output the specified string in reverse, taking care of any zero-padding
static size_t out_rev_(out_fct_type out, char* buffer, size_t idx, size_t maxlen, const char* buf, size_t len, unsigned int width, unsigned int flags)
     376:	2f 92       	push	r2
     378:	3f 92       	push	r3
     37a:	4f 92       	push	r4
     37c:	5f 92       	push	r5
     37e:	6f 92       	push	r6
     380:	7f 92       	push	r7
     382:	8f 92       	push	r8
     384:	9f 92       	push	r9
     386:	af 92       	push	r10
     388:	bf 92       	push	r11
     38a:	cf 92       	push	r12
     38c:	df 92       	push	r13
     38e:	ef 92       	push	r14
     390:	ff 92       	push	r15
     392:	0f 93       	push	r16
     394:	1f 93       	push	r17
     396:	cf 93       	push	r28
     398:	df 93       	push	r29
     39a:	00 d0       	rcall	.+0      	; 0x39c <out_rev_(void (*)(char, void*, unsigned int, unsigned int), char*, unsigned int, unsigned int, char const*, unsigned int, unsigned int, unsigned int) [clone .constprop.46]+0x26>
     39c:	1f 92       	push	r1
     39e:	cd b7       	in	r28, 0x3d	; 61
     3a0:	de b7       	in	r29, 0x3e	; 62
     3a2:	1c 01       	movw	r2, r24
     3a4:	4b 01       	movw	r8, r22
     3a6:	5a 01       	movw	r10, r20
     3a8:	39 01       	movw	r6, r18
     3aa:	27 01       	movw	r4, r14
c:\users\admin\documents\arduino\libraries\libprintf\extras\printf/printf.c:297
{
  const size_t start_idx = idx;

  // pad spaces up to given width
  if (!(flags & FLAGS_LEFT) && !(flags & FLAGS_ZEROPAD)) {
     3ac:	96 01       	movw	r18, r12
     3ae:	22 70       	andi	r18, 0x02	; 2
     3b0:	33 27       	eor	r19, r19
     3b2:	3a 83       	std	Y+2, r19	; 0x02
     3b4:	29 83       	std	Y+1, r18	; 0x01
     3b6:	33 e0       	ldi	r19, 0x03	; 3
     3b8:	c3 22       	and	r12, r19
     3ba:	dd 24       	eor	r13, r13
     3bc:	5c 83       	std	Y+4, r21	; 0x04
     3be:	4b 83       	std	Y+3, r20	; 0x03
     3c0:	cd 28       	or	r12, r13
     3c2:	51 f4       	brne	.+20     	; 0x3d8 <out_rev_(void (*)(char, void*, unsigned int, unsigned int), char*, unsigned int, unsigned int, char const*, unsigned int, unsigned int, unsigned int) [clone .constprop.46]+0x62>
c:\users\admin\documents\arduino\libraries\libprintf\extras\printf/printf.c:298
    for (size_t i = len; i < width; i++) {
     3c4:	68 01       	movw	r12, r16
     3c6:	c4 1a       	sub	r12, r20
     3c8:	d5 0a       	sbc	r13, r21
     3ca:	8b 81       	ldd	r24, Y+3	; 0x03
     3cc:	9c 81       	ldd	r25, Y+4	; 0x04
     3ce:	8c 0d       	add	r24, r12
     3d0:	9d 1d       	adc	r25, r13
     3d2:	84 15       	cp	r24, r4
     3d4:	95 05       	cpc	r25, r5
     3d6:	b0 f0       	brcs	.+44     	; 0x404 <__LOCK_REGION_LENGTH__+0x4>
     3d8:	73 01       	movw	r14, r6
     3da:	e0 0e       	add	r14, r16
     3dc:	f1 1e       	adc	r15, r17
c:\users\admin\documents\arduino\libraries\libprintf\extras\printf/printf.c:297
static size_t out_rev_(out_fct_type out, char* buffer, size_t idx, size_t maxlen, const char* buf, size_t len, unsigned int width, unsigned int flags)
{
  const size_t start_idx = idx;

  // pad spaces up to given width
  if (!(flags & FLAGS_LEFT) && !(flags & FLAGS_ZEROPAD)) {
     3de:	4b 81       	ldd	r20, Y+3	; 0x03
     3e0:	5c 81       	ldd	r21, Y+4	; 0x04
c:\users\admin\documents\arduino\libraries\libprintf\extras\printf/printf.c:304
      out(' ', buffer, idx++, maxlen);
    }
  }

  // reverse string
  while (len) {
     3e2:	e6 14       	cp	r14, r6
     3e4:	f7 04       	cpc	r15, r7
     3e6:	f1 f0       	breq	.+60     	; 0x424 <__LOCK_REGION_LENGTH__+0x24>
c:\users\admin\documents\arduino\libraries\libprintf\extras\printf/printf.c:305
    out(buf[--len], buffer, idx++, maxlen);
     3e8:	6a 01       	movw	r12, r20
     3ea:	ff ef       	ldi	r31, 0xFF	; 255
     3ec:	cf 1a       	sub	r12, r31
     3ee:	df 0a       	sbc	r13, r31
     3f0:	2f ef       	ldi	r18, 0xFF	; 255
     3f2:	3f ef       	ldi	r19, 0xFF	; 255
     3f4:	b4 01       	movw	r22, r8
     3f6:	f7 01       	movw	r30, r14
     3f8:	82 91       	ld	r24, -Z
     3fa:	7f 01       	movw	r14, r30
     3fc:	f1 01       	movw	r30, r2
     3fe:	19 95       	eicall
     400:	a6 01       	movw	r20, r12
     402:	ef cf       	rjmp	.-34     	; 0x3e2 <out_rev_(void (*)(char, void*, unsigned int, unsigned int), char*, unsigned int, unsigned int, char const*, unsigned int, unsigned int, unsigned int) [clone .constprop.46]+0x6c>
c:\users\admin\documents\arduino\libraries\libprintf\extras\printf/printf.c:299
  const size_t start_idx = idx;

  // pad spaces up to given width
  if (!(flags & FLAGS_LEFT) && !(flags & FLAGS_ZEROPAD)) {
    for (size_t i = len; i < width; i++) {
      out(' ', buffer, idx++, maxlen);
     404:	eb 80       	ldd	r14, Y+3	; 0x03
     406:	fc 80       	ldd	r15, Y+4	; 0x04
     408:	8f ef       	ldi	r24, 0xFF	; 255
     40a:	e8 1a       	sub	r14, r24
     40c:	f8 0a       	sbc	r15, r24
     40e:	2f ef       	ldi	r18, 0xFF	; 255
     410:	3f ef       	ldi	r19, 0xFF	; 255
     412:	4b 81       	ldd	r20, Y+3	; 0x03
     414:	5c 81       	ldd	r21, Y+4	; 0x04
     416:	b4 01       	movw	r22, r8
     418:	80 e2       	ldi	r24, 0x20	; 32
     41a:	f1 01       	movw	r30, r2
     41c:	19 95       	eicall
     41e:	fc 82       	std	Y+4, r15	; 0x04
     420:	eb 82       	std	Y+3, r14	; 0x03
     422:	d3 cf       	rjmp	.-90     	; 0x3ca <out_rev_(void (*)(char, void*, unsigned int, unsigned int), char*, unsigned int, unsigned int, char const*, unsigned int, unsigned int, unsigned int) [clone .constprop.46]+0x54>
     424:	8b 81       	ldd	r24, Y+3	; 0x03
     426:	9c 81       	ldd	r25, Y+4	; 0x04
     428:	80 0f       	add	r24, r16
     42a:	91 1f       	adc	r25, r17
c:\users\admin\documents\arduino\libraries\libprintf\extras\printf/printf.c:309
  while (len) {
    out(buf[--len], buffer, idx++, maxlen);
  }

  // append pad spaces up to given width
  if (flags & FLAGS_LEFT) {
     42c:	29 81       	ldd	r18, Y+1	; 0x01
     42e:	3a 81       	ldd	r19, Y+2	; 0x02
     430:	23 2b       	or	r18, r19
     432:	a1 f0       	breq	.+40     	; 0x45c <__LOCK_REGION_LENGTH__+0x5c>
c:\users\admin\documents\arduino\libraries\libprintf\extras\printf/printf.c:310
    while (idx - start_idx < width) {
     434:	9c 01       	movw	r18, r24
     436:	2a 19       	sub	r18, r10
     438:	3b 09       	sbc	r19, r11
     43a:	24 15       	cp	r18, r4
     43c:	35 05       	cpc	r19, r5
     43e:	70 f4       	brcc	.+28     	; 0x45c <__LOCK_REGION_LENGTH__+0x5c>
c:\users\admin\documents\arduino\libraries\libprintf\extras\printf/printf.c:311
      out(' ', buffer, idx++, maxlen);
     440:	fc 01       	movw	r30, r24
     442:	31 96       	adiw	r30, 0x01	; 1
     444:	fa 83       	std	Y+2, r31	; 0x02
     446:	e9 83       	std	Y+1, r30	; 0x01
     448:	2f ef       	ldi	r18, 0xFF	; 255
     44a:	3f ef       	ldi	r19, 0xFF	; 255
     44c:	ac 01       	movw	r20, r24
     44e:	b4 01       	movw	r22, r8
     450:	80 e2       	ldi	r24, 0x20	; 32
     452:	f1 01       	movw	r30, r2
     454:	19 95       	eicall
     456:	89 81       	ldd	r24, Y+1	; 0x01
     458:	9a 81       	ldd	r25, Y+2	; 0x02
     45a:	ec cf       	rjmp	.-40     	; 0x434 <__LOCK_REGION_LENGTH__+0x34>
c:\users\admin\documents\arduino\libraries\libprintf\extras\printf/printf.c:316
    }
  }

  return idx;
}
     45c:	0f 90       	pop	r0
     45e:	0f 90       	pop	r0
     460:	0f 90       	pop	r0
     462:	0f 90       	pop	r0
     464:	df 91       	pop	r29
     466:	cf 91       	pop	r28
     468:	1f 91       	pop	r17
     46a:	0f 91       	pop	r16
     46c:	ff 90       	pop	r15
     46e:	ef 90       	pop	r14
     470:	df 90       	pop	r13
     472:	cf 90       	pop	r12
     474:	bf 90       	pop	r11
     476:	af 90       	pop	r10
     478:	9f 90       	pop	r9
     47a:	8f 90       	pop	r8
     47c:	7f 90       	pop	r7
     47e:	6f 90       	pop	r6
     480:	5f 90       	pop	r5
     482:	4f 90       	pop	r4
     484:	3f 90       	pop	r3
     486:	2f 90       	pop	r2
     488:	08 95       	ret

0000048a <print_integer(void (*)(char, void*, unsigned int, unsigned int), char*, unsigned int, unsigned int, unsigned long long, bool, unsigned char, unsigned int, unsigned int, unsigned int) [clone .constprop.44]>:
_ZL13print_integerPFvcPvjjEPcjjybhjjj.constprop.44():
c:\users\admin\documents\arduino\libraries\libprintf\extras\printf/printf.c:390

  return out_rev_(out, buffer, idx, maxlen, buf, len, width, flags);
}

// An internal itoa-like function
static size_t print_integer(out_fct_type out, char* buffer, size_t idx, size_t maxlen, printf_unsigned_value_t value, bool negative, numeric_base_t base, unsigned int precision, unsigned int width, unsigned int flags)
     48a:	2f 92       	push	r2
     48c:	3f 92       	push	r3
     48e:	4f 92       	push	r4
     490:	5f 92       	push	r5
     492:	6f 92       	push	r6
     494:	7f 92       	push	r7
     496:	8f 92       	push	r8
     498:	9f 92       	push	r9
     49a:	af 92       	push	r10
     49c:	bf 92       	push	r11
     49e:	cf 92       	push	r12
     4a0:	df 92       	push	r13
     4a2:	ef 92       	push	r14
     4a4:	ff 92       	push	r15
     4a6:	0f 93       	push	r16
     4a8:	1f 93       	push	r17
     4aa:	cf 93       	push	r28
     4ac:	df 93       	push	r29
     4ae:	cd b7       	in	r28, 0x3d	; 61
     4b0:	de b7       	in	r29, 0x3e	; 62
     4b2:	af 97       	sbiw	r28, 0x2f	; 47
     4b4:	0f b6       	in	r0, 0x3f	; 63
     4b6:	f8 94       	cli
     4b8:	de bf       	out	0x3e, r29	; 62
     4ba:	0f be       	out	0x3f, r0	; 63
     4bc:	cd bf       	out	0x3d, r28	; 61
     4be:	9a a7       	std	Y+42, r25	; 0x2a
     4c0:	89 a7       	std	Y+41, r24	; 0x29
     4c2:	7c a7       	std	Y+44, r23	; 0x2c
     4c4:	6b a7       	std	Y+43, r22	; 0x2b
     4c6:	5e a7       	std	Y+46, r21	; 0x2e
     4c8:	4d a7       	std	Y+45, r20	; 0x2d
     4ca:	ca a2       	std	Y+34, r12	; 0x22
     4cc:	db a2       	std	Y+35, r13	; 0x23
     4ce:	ec a2       	std	Y+36, r14	; 0x24
     4d0:	5f 2c       	mov	r5, r15
     4d2:	40 2e       	mov	r4, r16
     4d4:	1d a3       	std	Y+37, r17	; 0x25
     4d6:	32 2e       	mov	r3, r18
     4d8:	23 2e       	mov	r2, r19
     4da:	a8 a6       	std	Y+40, r10	; 0x28
     4dc:	89 a2       	std	Y+33, r8	; 0x21
     4de:	2b 96       	adiw	r28, 0x0b	; 11
     4e0:	8e ac       	ldd	r8, Y+62	; 0x3e
     4e2:	9f ac       	ldd	r9, Y+63	; 0x3f
     4e4:	2b 97       	sbiw	r28, 0x0b	; 11
c:\users\admin\documents\arduino\libraries\libprintf\extras\printf/printf.c:395
{
  char buf[PRINTF_INTEGER_BUFFER_SIZE];
  size_t len = 0U;

  if (!value) {
     4e6:	96 01       	movw	r18, r12
     4e8:	4e 2d       	mov	r20, r14
     4ea:	5f 2d       	mov	r21, r15
     4ec:	60 2f       	mov	r22, r16
     4ee:	71 2f       	mov	r23, r17
     4f0:	83 2d       	mov	r24, r3
     4f2:	92 2d       	mov	r25, r2
     4f4:	a0 e0       	ldi	r26, 0x00	; 0
     4f6:	0e 94 db 28 	call	0x51b6	; 0x51b6 <__cmpdi2_s8>
     4fa:	09 f0       	breq	.+2      	; 0x4fe <print_integer(void (*)(char, void*, unsigned int, unsigned int), char*, unsigned int, unsigned int, unsigned long long, bool, unsigned char, unsigned int, unsigned int, unsigned int) [clone .constprop.44]+0x74>
     4fc:	4c c0       	rjmp	.+152    	; 0x596 <print_integer(void (*)(char, void*, unsigned int, unsigned int), char*, unsigned int, unsigned int, unsigned long long, bool, unsigned char, unsigned int, unsigned int, unsigned int) [clone .constprop.44]+0x10c>
c:\users\admin\documents\arduino\libraries\libprintf\extras\printf/printf.c:396
    if ( !(flags & FLAGS_PRECISION) ) {
     4fe:	92 fc       	sbrc	r9, 2
     500:	42 c0       	rjmp	.+132    	; 0x586 <print_integer(void (*)(char, void*, unsigned int, unsigned int), char*, unsigned int, unsigned int, unsigned long long, bool, unsigned char, unsigned int, unsigned int, unsigned int) [clone .constprop.44]+0xfc>
c:\users\admin\documents\arduino\libraries\libprintf\extras\printf/printf.c:397
      buf[len++] = '0';
     502:	80 e3       	ldi	r24, 0x30	; 48
     504:	89 83       	std	Y+1, r24	; 0x01
c:\users\admin\documents\arduino\libraries\libprintf\extras\printf/printf.c:398
      flags &= ~FLAGS_HASH;
     506:	e8 94       	clt
     508:	84 f8       	bld	r8, 4
c:\users\admin\documents\arduino\libraries\libprintf\extras\printf/printf.c:397
  char buf[PRINTF_INTEGER_BUFFER_SIZE];
  size_t len = 0U;

  if (!value) {
    if ( !(flags & FLAGS_PRECISION) ) {
      buf[len++] = '0';
     50a:	66 24       	eor	r6, r6
     50c:	63 94       	inc	r6
     50e:	71 2c       	mov	r7, r1
print_integer_finalization():
c:\users\admin\documents\arduino\libraries\libprintf\extras\printf/printf.c:327
{
  size_t unpadded_len = len;

  // pad with leading zeros
  {
    if (!(flags & FLAGS_LEFT)) {
     510:	81 fc       	sbrc	r8, 1
     512:	92 c0       	rjmp	.+292    	; 0x638 <print_integer(void (*)(char, void*, unsigned int, unsigned int), char*, unsigned int, unsigned int, unsigned long long, bool, unsigned char, unsigned int, unsigned int, unsigned int) [clone .constprop.44]+0x1ae>
     514:	c4 01       	movw	r24, r8
     516:	81 70       	andi	r24, 0x01	; 1
     518:	99 27       	eor	r25, r25
c:\users\admin\documents\arduino\libraries\libprintf\extras\printf/printf.c:328
      if (width && (flags & FLAGS_ZEROPAD) && (negative || (flags & (FLAGS_PLUS | FLAGS_SPACE)))) {
     51a:	29 96       	adiw	r28, 0x09	; 9
     51c:	2e ad       	ldd	r18, Y+62	; 0x3e
     51e:	3f ad       	ldd	r19, Y+63	; 0x3f
     520:	29 97       	sbiw	r28, 0x09	; 9
     522:	23 2b       	or	r18, r19
     524:	a9 f0       	breq	.+42     	; 0x550 <print_integer(void (*)(char, void*, unsigned int, unsigned int), char*, unsigned int, unsigned int, unsigned long long, bool, unsigned char, unsigned int, unsigned int, unsigned int) [clone .constprop.44]+0xc6>
     526:	00 97       	sbiw	r24, 0x00	; 0
     528:	09 f4       	brne	.+2      	; 0x52c <print_integer(void (*)(char, void*, unsigned int, unsigned int), char*, unsigned int, unsigned int, unsigned long long, bool, unsigned char, unsigned int, unsigned int, unsigned int) [clone .constprop.44]+0xa2>
     52a:	86 c0       	rjmp	.+268    	; 0x638 <print_integer(void (*)(char, void*, unsigned int, unsigned int), char*, unsigned int, unsigned int, unsigned long long, bool, unsigned char, unsigned int, unsigned int, unsigned int) [clone .constprop.44]+0x1ae>
     52c:	38 a5       	ldd	r19, Y+40	; 0x28
     52e:	31 11       	cpse	r19, r1
     530:	05 c0       	rjmp	.+10     	; 0x53c <print_integer(void (*)(char, void*, unsigned int, unsigned int), char*, unsigned int, unsigned int, unsigned long long, bool, unsigned char, unsigned int, unsigned int, unsigned int) [clone .constprop.44]+0xb2>
     532:	94 01       	movw	r18, r8
     534:	2c 70       	andi	r18, 0x0C	; 12
     536:	33 27       	eor	r19, r19
     538:	23 2b       	or	r18, r19
     53a:	51 f0       	breq	.+20     	; 0x550 <print_integer(void (*)(char, void*, unsigned int, unsigned int), char*, unsigned int, unsigned int, unsigned long long, bool, unsigned char, unsigned int, unsigned int, unsigned int) [clone .constprop.44]+0xc6>
c:\users\admin\documents\arduino\libraries\libprintf\extras\printf/printf.c:329
        width--;
     53c:	29 96       	adiw	r28, 0x09	; 9
     53e:	4e ad       	ldd	r20, Y+62	; 0x3e
     540:	5f ad       	ldd	r21, Y+63	; 0x3f
     542:	29 97       	sbiw	r28, 0x09	; 9
     544:	41 50       	subi	r20, 0x01	; 1
     546:	51 09       	sbc	r21, r1
     548:	29 96       	adiw	r28, 0x09	; 9
     54a:	5f af       	std	Y+63, r21	; 0x3f
     54c:	4e af       	std	Y+62, r20	; 0x3e
     54e:	29 97       	sbiw	r28, 0x09	; 9
     550:	e1 e0       	ldi	r30, 0x01	; 1
     552:	f0 e0       	ldi	r31, 0x00	; 0
     554:	ec 0f       	add	r30, r28
     556:	fd 1f       	adc	r31, r29
     558:	e6 0d       	add	r30, r6
     55a:	f7 1d       	adc	r31, r7
_ZL13print_integerPFvcPvjjEPcjjybhjjj.constprop.44():
c:\users\admin\documents\arduino\libraries\libprintf\extras\printf/printf.c:393

// An internal itoa-like function
static size_t print_integer(out_fct_type out, char* buffer, size_t idx, size_t maxlen, printf_unsigned_value_t value, bool negative, numeric_base_t base, unsigned int precision, unsigned int width, unsigned int flags)
{
  char buf[PRINTF_INTEGER_BUFFER_SIZE];
  size_t len = 0U;
     55c:	83 01       	movw	r16, r6
print_integer_finalization():
c:\users\admin\documents\arduino\libraries\libprintf\extras\printf/printf.c:332
    if (!(flags & FLAGS_LEFT)) {
      if (width && (flags & FLAGS_ZEROPAD) && (negative || (flags & (FLAGS_PLUS | FLAGS_SPACE)))) {
        width--;
      }
      while ((flags & FLAGS_ZEROPAD) && (len < width) && (len < PRINTF_INTEGER_BUFFER_SIZE)) {
        buf[len++] = '0';
     55e:	20 e3       	ldi	r18, 0x30	; 48
c:\users\admin\documents\arduino\libraries\libprintf\extras\printf/printf.c:331
  {
    if (!(flags & FLAGS_LEFT)) {
      if (width && (flags & FLAGS_ZEROPAD) && (negative || (flags & (FLAGS_PLUS | FLAGS_SPACE)))) {
        width--;
      }
      while ((flags & FLAGS_ZEROPAD) && (len < width) && (len < PRINTF_INTEGER_BUFFER_SIZE)) {
     560:	00 97       	sbiw	r24, 0x00	; 0
     562:	09 f4       	brne	.+2      	; 0x566 <print_integer(void (*)(char, void*, unsigned int, unsigned int), char*, unsigned int, unsigned int, unsigned long long, bool, unsigned char, unsigned int, unsigned int, unsigned int) [clone .constprop.44]+0xdc>
     564:	6a c0       	rjmp	.+212    	; 0x63a <print_integer(void (*)(char, void*, unsigned int, unsigned int), char*, unsigned int, unsigned int, unsigned long long, bool, unsigned char, unsigned int, unsigned int, unsigned int) [clone .constprop.44]+0x1b0>
     566:	29 96       	adiw	r28, 0x09	; 9
     568:	4e ad       	ldd	r20, Y+62	; 0x3e
     56a:	5f ad       	ldd	r21, Y+63	; 0x3f
     56c:	29 97       	sbiw	r28, 0x09	; 9
     56e:	04 17       	cp	r16, r20
     570:	15 07       	cpc	r17, r21
     572:	08 f0       	brcs	.+2      	; 0x576 <print_integer(void (*)(char, void*, unsigned int, unsigned int), char*, unsigned int, unsigned int, unsigned long long, bool, unsigned char, unsigned int, unsigned int, unsigned int) [clone .constprop.44]+0xec>
     574:	62 c0       	rjmp	.+196    	; 0x63a <print_integer(void (*)(char, void*, unsigned int, unsigned int), char*, unsigned int, unsigned int, unsigned long long, bool, unsigned char, unsigned int, unsigned int, unsigned int) [clone .constprop.44]+0x1b0>
     576:	00 32       	cpi	r16, 0x20	; 32
     578:	11 05       	cpc	r17, r1
     57a:	09 f4       	brne	.+2      	; 0x57e <print_integer(void (*)(char, void*, unsigned int, unsigned int), char*, unsigned int, unsigned int, unsigned long long, bool, unsigned char, unsigned int, unsigned int, unsigned int) [clone .constprop.44]+0xf4>
     57c:	5e c0       	rjmp	.+188    	; 0x63a <print_integer(void (*)(char, void*, unsigned int, unsigned int), char*, unsigned int, unsigned int, unsigned long long, bool, unsigned char, unsigned int, unsigned int, unsigned int) [clone .constprop.44]+0x1b0>
c:\users\admin\documents\arduino\libraries\libprintf\extras\printf/printf.c:332
        buf[len++] = '0';
     57e:	0f 5f       	subi	r16, 0xFF	; 255
     580:	1f 4f       	sbci	r17, 0xFF	; 255
     582:	21 93       	st	Z+, r18
     584:	ed cf       	rjmp	.-38     	; 0x560 <print_integer(void (*)(char, void*, unsigned int, unsigned int), char*, unsigned int, unsigned int, unsigned long long, bool, unsigned char, unsigned int, unsigned int, unsigned int) [clone .constprop.44]+0xd6>
_ZL13print_integerPFvcPvjjEPcjjybhjjj.constprop.44():
c:\users\admin\documents\arduino\libraries\libprintf\extras\printf/printf.c:403
      flags &= ~FLAGS_HASH;
      // We drop this flag this since either the alternative and regular modes of the specifier
      // don't differ on 0 values, or (in the case of octal) we've already provided the special
      // handling for this mode.
    }
    else if (base == BASE_HEX) {
     586:	29 a1       	ldd	r18, Y+33	; 0x21
     588:	20 31       	cpi	r18, 0x10	; 16
     58a:	11 f4       	brne	.+4      	; 0x590 <print_integer(void (*)(char, void*, unsigned int, unsigned int), char*, unsigned int, unsigned int, unsigned long long, bool, unsigned char, unsigned int, unsigned int, unsigned int) [clone .constprop.44]+0x106>
c:\users\admin\documents\arduino\libraries\libprintf\extras\printf/printf.c:404
      flags &= ~FLAGS_HASH;
     58c:	e8 94       	clt
     58e:	84 f8       	bld	r8, 4
c:\users\admin\documents\arduino\libraries\libprintf\extras\printf/printf.c:393

// An internal itoa-like function
static size_t print_integer(out_fct_type out, char* buffer, size_t idx, size_t maxlen, printf_unsigned_value_t value, bool negative, numeric_base_t base, unsigned int precision, unsigned int width, unsigned int flags)
{
  char buf[PRINTF_INTEGER_BUFFER_SIZE];
  size_t len = 0U;
     590:	71 2c       	mov	r7, r1
     592:	61 2c       	mov	r6, r1
     594:	bd cf       	rjmp	.-134    	; 0x510 <print_integer(void (*)(char, void*, unsigned int, unsigned int), char*, unsigned int, unsigned int, unsigned long long, bool, unsigned char, unsigned int, unsigned int, unsigned int) [clone .constprop.44]+0x86>
     596:	81 e4       	ldi	r24, 0x41	; 65
     598:	85 fe       	sbrs	r8, 5
     59a:	81 e6       	ldi	r24, 0x61	; 97
     59c:	ae 01       	movw	r20, r28
     59e:	4f 5f       	subi	r20, 0xFF	; 255
     5a0:	5f 4f       	sbci	r21, 0xFF	; 255
     5a2:	5f a3       	std	Y+39, r21	; 0x27
     5a4:	4e a3       	std	Y+38, r20	; 0x26
     5a6:	71 2c       	mov	r7, r1
     5a8:	61 2c       	mov	r6, r1
c:\users\admin\documents\arduino\libraries\libprintf\extras\printf/printf.c:412
    }
  }
  else {
    do {
      const char digit = (char)(value % base);
      buf[len++] = (char)(digit < 10 ? '0' + digit : (flags & FLAGS_UPPERCASE ? 'A' : 'a') + digit - 10);
     5aa:	8a 50       	subi	r24, 0x0A	; 10
     5ac:	8f a7       	std	Y+47, r24	; 0x2f
c:\users\admin\documents\arduino\libraries\libprintf\extras\printf/printf.c:411
      // don't differ on 0 values
    }
  }
  else {
    do {
      const char digit = (char)(value % base);
     5ae:	a9 a0       	ldd	r10, Y+33	; 0x21
     5b0:	b1 2c       	mov	r11, r1
     5b2:	c1 2c       	mov	r12, r1
     5b4:	d1 2c       	mov	r13, r1
     5b6:	e1 2c       	mov	r14, r1
     5b8:	f1 2c       	mov	r15, r1
     5ba:	00 e0       	ldi	r16, 0x00	; 0
     5bc:	10 e0       	ldi	r17, 0x00	; 0
     5be:	2a a1       	ldd	r18, Y+34	; 0x22
     5c0:	3b a1       	ldd	r19, Y+35	; 0x23
     5c2:	4c a1       	ldd	r20, Y+36	; 0x24
     5c4:	55 2d       	mov	r21, r5
     5c6:	64 2d       	mov	r22, r4
     5c8:	7d a1       	ldd	r23, Y+37	; 0x25
     5ca:	83 2d       	mov	r24, r3
     5cc:	92 2d       	mov	r25, r2
     5ce:	0e 94 03 28 	call	0x5006	; 0x5006 <__umoddi3>
c:\users\admin\documents\arduino\libraries\libprintf\extras\printf/printf.c:412
      buf[len++] = (char)(digit < 10 ? '0' + digit : (flags & FLAGS_UPPERCASE ? 'A' : 'a') + digit - 10);
     5d2:	2a 30       	cpi	r18, 0x0A	; 10
     5d4:	74 f5       	brge	.+92     	; 0x632 <print_integer(void (*)(char, void*, unsigned int, unsigned int), char*, unsigned int, unsigned int, unsigned long long, bool, unsigned char, unsigned int, unsigned int, unsigned int) [clone .constprop.44]+0x1a8>
     5d6:	20 5d       	subi	r18, 0xD0	; 208
     5d8:	8f ef       	ldi	r24, 0xFF	; 255
     5da:	68 1a       	sub	r6, r24
     5dc:	78 0a       	sbc	r7, r24
     5de:	ee a1       	ldd	r30, Y+38	; 0x26
     5e0:	ff a1       	ldd	r31, Y+39	; 0x27
     5e2:	21 93       	st	Z+, r18
     5e4:	ff a3       	std	Y+39, r31	; 0x27
     5e6:	ee a3       	std	Y+38, r30	; 0x26
c:\users\admin\documents\arduino\libraries\libprintf\extras\printf/printf.c:413
      value /= base;
     5e8:	a9 a0       	ldd	r10, Y+33	; 0x21
     5ea:	b1 2c       	mov	r11, r1
     5ec:	c1 2c       	mov	r12, r1
     5ee:	d1 2c       	mov	r13, r1
     5f0:	e1 2c       	mov	r14, r1
     5f2:	f1 2c       	mov	r15, r1
     5f4:	00 e0       	ldi	r16, 0x00	; 0
     5f6:	10 e0       	ldi	r17, 0x00	; 0
     5f8:	2a a1       	ldd	r18, Y+34	; 0x22
     5fa:	3b a1       	ldd	r19, Y+35	; 0x23
     5fc:	4c a1       	ldd	r20, Y+36	; 0x24
     5fe:	55 2d       	mov	r21, r5
     600:	64 2d       	mov	r22, r4
     602:	7d a1       	ldd	r23, Y+37	; 0x25
     604:	83 2d       	mov	r24, r3
     606:	92 2d       	mov	r25, r2
     608:	0e 94 05 28 	call	0x500a	; 0x500a <__udivdi3>
     60c:	2a a3       	std	Y+34, r18	; 0x22
     60e:	3b a3       	std	Y+35, r19	; 0x23
     610:	4c a3       	std	Y+36, r20	; 0x24
     612:	55 2e       	mov	r5, r21
     614:	46 2e       	mov	r4, r22
     616:	7d a3       	std	Y+37, r23	; 0x25
     618:	38 2e       	mov	r3, r24
     61a:	29 2e       	mov	r2, r25
c:\users\admin\documents\arduino\libraries\libprintf\extras\printf/printf.c:414
    } while (value && (len < PRINTF_INTEGER_BUFFER_SIZE));
     61c:	a0 e0       	ldi	r26, 0x00	; 0
     61e:	0e 94 db 28 	call	0x51b6	; 0x51b6 <__cmpdi2_s8>
     622:	09 f4       	brne	.+2      	; 0x626 <print_integer(void (*)(char, void*, unsigned int, unsigned int), char*, unsigned int, unsigned int, unsigned long long, bool, unsigned char, unsigned int, unsigned int, unsigned int) [clone .constprop.44]+0x19c>
     624:	75 cf       	rjmp	.-278    	; 0x510 <print_integer(void (*)(char, void*, unsigned int, unsigned int), char*, unsigned int, unsigned int, unsigned long long, bool, unsigned char, unsigned int, unsigned int, unsigned int) [clone .constprop.44]+0x86>
     626:	f0 e2       	ldi	r31, 0x20	; 32
     628:	6f 16       	cp	r6, r31
     62a:	71 04       	cpc	r7, r1
     62c:	09 f0       	breq	.+2      	; 0x630 <print_integer(void (*)(char, void*, unsigned int, unsigned int), char*, unsigned int, unsigned int, unsigned long long, bool, unsigned char, unsigned int, unsigned int, unsigned int) [clone .constprop.44]+0x1a6>
     62e:	bf cf       	rjmp	.-130    	; 0x5ae <print_integer(void (*)(char, void*, unsigned int, unsigned int), char*, unsigned int, unsigned int, unsigned long long, bool, unsigned char, unsigned int, unsigned int, unsigned int) [clone .constprop.44]+0x124>
     630:	6f cf       	rjmp	.-290    	; 0x510 <print_integer(void (*)(char, void*, unsigned int, unsigned int), char*, unsigned int, unsigned int, unsigned long long, bool, unsigned char, unsigned int, unsigned int, unsigned int) [clone .constprop.44]+0x86>
c:\users\admin\documents\arduino\libraries\libprintf\extras\printf/printf.c:412
    }
  }
  else {
    do {
      const char digit = (char)(value % base);
      buf[len++] = (char)(digit < 10 ? '0' + digit : (flags & FLAGS_UPPERCASE ? 'A' : 'a') + digit - 10);
     632:	5f a5       	ldd	r21, Y+47	; 0x2f
     634:	25 0f       	add	r18, r21
     636:	d0 cf       	rjmp	.-96     	; 0x5d8 <print_integer(void (*)(char, void*, unsigned int, unsigned int), char*, unsigned int, unsigned int, unsigned long long, bool, unsigned char, unsigned int, unsigned int, unsigned int) [clone .constprop.44]+0x14e>
print_integer_finalization():
c:\users\admin\documents\arduino\libraries\libprintf\extras\printf/printf.c:328
  size_t unpadded_len = len;

  // pad with leading zeros
  {
    if (!(flags & FLAGS_LEFT)) {
      if (width && (flags & FLAGS_ZEROPAD) && (negative || (flags & (FLAGS_PLUS | FLAGS_SPACE)))) {
     638:	83 01       	movw	r16, r6
     63a:	e1 e0       	ldi	r30, 0x01	; 1
     63c:	f0 e0       	ldi	r31, 0x00	; 0
     63e:	ec 0f       	add	r30, r28
     640:	fd 1f       	adc	r31, r29
     642:	e0 0f       	add	r30, r16
     644:	f1 1f       	adc	r31, r17
c:\users\admin\documents\arduino\libraries\libprintf\extras\printf/printf.c:337
        buf[len++] = '0';
      }
    }

    while ((len < precision) && (len < PRINTF_INTEGER_BUFFER_SIZE)) {
      buf[len++] = '0';
     646:	80 e3       	ldi	r24, 0x30	; 48
c:\users\admin\documents\arduino\libraries\libprintf\extras\printf/printf.c:336
      while ((flags & FLAGS_ZEROPAD) && (len < width) && (len < PRINTF_INTEGER_BUFFER_SIZE)) {
        buf[len++] = '0';
      }
    }

    while ((len < precision) && (len < PRINTF_INTEGER_BUFFER_SIZE)) {
     648:	27 96       	adiw	r28, 0x07	; 7
     64a:	2e ad       	ldd	r18, Y+62	; 0x3e
     64c:	3f ad       	ldd	r19, Y+63	; 0x3f
     64e:	27 97       	sbiw	r28, 0x07	; 7
     650:	02 17       	cp	r16, r18
     652:	13 07       	cpc	r17, r19
     654:	38 f4       	brcc	.+14     	; 0x664 <print_integer(void (*)(char, void*, unsigned int, unsigned int), char*, unsigned int, unsigned int, unsigned long long, bool, unsigned char, unsigned int, unsigned int, unsigned int) [clone .constprop.44]+0x1da>
     656:	00 32       	cpi	r16, 0x20	; 32
     658:	11 05       	cpc	r17, r1
     65a:	20 f4       	brcc	.+8      	; 0x664 <print_integer(void (*)(char, void*, unsigned int, unsigned int), char*, unsigned int, unsigned int, unsigned long long, bool, unsigned char, unsigned int, unsigned int, unsigned int) [clone .constprop.44]+0x1da>
c:\users\admin\documents\arduino\libraries\libprintf\extras\printf/printf.c:337
      buf[len++] = '0';
     65c:	0f 5f       	subi	r16, 0xFF	; 255
     65e:	1f 4f       	sbci	r17, 0xFF	; 255
     660:	81 93       	st	Z+, r24
     662:	f2 cf       	rjmp	.-28     	; 0x648 <print_integer(void (*)(char, void*, unsigned int, unsigned int), char*, unsigned int, unsigned int, unsigned long long, bool, unsigned char, unsigned int, unsigned int, unsigned int) [clone .constprop.44]+0x1be>
c:\users\admin\documents\arduino\libraries\libprintf\extras\printf/printf.c:340
    }

    if (base == BASE_OCTAL && (len > unpadded_len)) {
     664:	39 a1       	ldd	r19, Y+33	; 0x21
     666:	38 30       	cpi	r19, 0x08	; 8
     668:	29 f4       	brne	.+10     	; 0x674 <print_integer(void (*)(char, void*, unsigned int, unsigned int), char*, unsigned int, unsigned int, unsigned long long, bool, unsigned char, unsigned int, unsigned int, unsigned int) [clone .constprop.44]+0x1ea>
     66a:	60 16       	cp	r6, r16
     66c:	71 06       	cpc	r7, r17
     66e:	10 f4       	brcc	.+4      	; 0x674 <print_integer(void (*)(char, void*, unsigned int, unsigned int), char*, unsigned int, unsigned int, unsigned long long, bool, unsigned char, unsigned int, unsigned int, unsigned int) [clone .constprop.44]+0x1ea>
c:\users\admin\documents\arduino\libraries\libprintf\extras\printf/printf.c:342
      // Since we've written some zeros, we've satisfied the alternative format leading space requirement
      flags &= ~FLAGS_HASH;
     670:	e8 94       	clt
     672:	84 f8       	bld	r8, 4
c:\users\admin\documents\arduino\libraries\libprintf\extras\printf/printf.c:347
    }
  }

  // handle hash
  if (flags & (FLAGS_HASH | FLAGS_POINTER)) {
     674:	c4 01       	movw	r24, r8
     676:	80 71       	andi	r24, 0x10	; 16
     678:	90 71       	andi	r25, 0x10	; 16
     67a:	89 2b       	or	r24, r25
     67c:	09 f4       	brne	.+2      	; 0x680 <print_integer(void (*)(char, void*, unsigned int, unsigned int), char*, unsigned int, unsigned int, unsigned long long, bool, unsigned char, unsigned int, unsigned int, unsigned int) [clone .constprop.44]+0x1f6>
     67e:	47 c0       	rjmp	.+142    	; 0x70e <print_integer(void (*)(char, void*, unsigned int, unsigned int), char*, unsigned int, unsigned int, unsigned long long, bool, unsigned char, unsigned int, unsigned int, unsigned int) [clone .constprop.44]+0x284>
c:\users\admin\documents\arduino\libraries\libprintf\extras\printf/printf.c:348
    if (!(flags & FLAGS_PRECISION) && len && ((len == precision) || (len == width))) {
     680:	92 fc       	sbrc	r9, 2
     682:	25 c0       	rjmp	.+74     	; 0x6ce <print_integer(void (*)(char, void*, unsigned int, unsigned int), char*, unsigned int, unsigned int, unsigned long long, bool, unsigned char, unsigned int, unsigned int, unsigned int) [clone .constprop.44]+0x244>
     684:	01 15       	cp	r16, r1
     686:	11 05       	cpc	r17, r1
     688:	11 f1       	breq	.+68     	; 0x6ce <print_integer(void (*)(char, void*, unsigned int, unsigned int), char*, unsigned int, unsigned int, unsigned long long, bool, unsigned char, unsigned int, unsigned int, unsigned int) [clone .constprop.44]+0x244>
     68a:	27 96       	adiw	r28, 0x07	; 7
     68c:	4e ad       	ldd	r20, Y+62	; 0x3e
     68e:	5f ad       	ldd	r21, Y+63	; 0x3f
     690:	27 97       	sbiw	r28, 0x07	; 7
     692:	40 17       	cp	r20, r16
     694:	51 07       	cpc	r21, r17
     696:	39 f0       	breq	.+14     	; 0x6a6 <print_integer(void (*)(char, void*, unsigned int, unsigned int), char*, unsigned int, unsigned int, unsigned long long, bool, unsigned char, unsigned int, unsigned int, unsigned int) [clone .constprop.44]+0x21c>
     698:	29 96       	adiw	r28, 0x09	; 9
     69a:	8e ad       	ldd	r24, Y+62	; 0x3e
     69c:	9f ad       	ldd	r25, Y+63	; 0x3f
     69e:	29 97       	sbiw	r28, 0x09	; 9
     6a0:	08 17       	cp	r16, r24
     6a2:	19 07       	cpc	r17, r25
     6a4:	a1 f4       	brne	.+40     	; 0x6ce <print_integer(void (*)(char, void*, unsigned int, unsigned int), char*, unsigned int, unsigned int, unsigned long long, bool, unsigned char, unsigned int, unsigned int, unsigned int) [clone .constprop.44]+0x244>
c:\users\admin\documents\arduino\libraries\libprintf\extras\printf/printf.c:351
      // Let's take back some padding digits to fit in what will eventually
      // be the format-specific prefix
      if (unpadded_len < len) {
     6a6:	60 16       	cp	r6, r16
     6a8:	71 06       	cpc	r7, r17
     6aa:	08 f0       	brcs	.+2      	; 0x6ae <print_integer(void (*)(char, void*, unsigned int, unsigned int), char*, unsigned int, unsigned int, unsigned long long, bool, unsigned char, unsigned int, unsigned int, unsigned int) [clone .constprop.44]+0x224>
     6ac:	99 c0       	rjmp	.+306    	; 0x7e0 <print_integer(void (*)(char, void*, unsigned int, unsigned int), char*, unsigned int, unsigned int, unsigned long long, bool, unsigned char, unsigned int, unsigned int, unsigned int) [clone .constprop.44]+0x356>
c:\users\admin\documents\arduino\libraries\libprintf\extras\printf/printf.c:352
        len--;
     6ae:	c8 01       	movw	r24, r16
     6b0:	01 97       	sbiw	r24, 0x01	; 1
c:\users\admin\documents\arduino\libraries\libprintf\extras\printf/printf.c:354
      }
      if (len && (base == BASE_HEX)) {
     6b2:	59 f0       	breq	.+22     	; 0x6ca <print_integer(void (*)(char, void*, unsigned int, unsigned int), char*, unsigned int, unsigned int, unsigned long long, bool, unsigned char, unsigned int, unsigned int, unsigned int) [clone .constprop.44]+0x240>
     6b4:	e9 a1       	ldd	r30, Y+33	; 0x21
     6b6:	e0 31       	cpi	r30, 0x10	; 16
     6b8:	09 f0       	breq	.+2      	; 0x6bc <print_integer(void (*)(char, void*, unsigned int, unsigned int), char*, unsigned int, unsigned int, unsigned long long, bool, unsigned char, unsigned int, unsigned int, unsigned int) [clone .constprop.44]+0x232>
     6ba:	6e c0       	rjmp	.+220    	; 0x798 <print_integer(void (*)(char, void*, unsigned int, unsigned int), char*, unsigned int, unsigned int, unsigned long long, bool, unsigned char, unsigned int, unsigned int, unsigned int) [clone .constprop.44]+0x30e>
c:\users\admin\documents\arduino\libraries\libprintf\extras\printf/printf.c:356
        if (unpadded_len < len) {
          len--;
     6bc:	02 50       	subi	r16, 0x02	; 2
     6be:	11 09       	sbc	r17, r1
c:\users\admin\documents\arduino\libraries\libprintf\extras\printf/printf.c:355
      // be the format-specific prefix
      if (unpadded_len < len) {
        len--;
      }
      if (len && (base == BASE_HEX)) {
        if (unpadded_len < len) {
     6c0:	68 16       	cp	r6, r24
     6c2:	79 06       	cpc	r7, r25
     6c4:	40 f0       	brcs	.+16     	; 0x6d6 <print_integer(void (*)(char, void*, unsigned int, unsigned int), char*, unsigned int, unsigned int, unsigned long long, bool, unsigned char, unsigned int, unsigned int, unsigned int) [clone .constprop.44]+0x24c>
     6c6:	8c 01       	movw	r16, r24
     6c8:	06 c0       	rjmp	.+12     	; 0x6d6 <print_integer(void (*)(char, void*, unsigned int, unsigned int), char*, unsigned int, unsigned int, unsigned long long, bool, unsigned char, unsigned int, unsigned int, unsigned int) [clone .constprop.44]+0x24c>
c:\users\admin\documents\arduino\libraries\libprintf\extras\printf/printf.c:354
      // Let's take back some padding digits to fit in what will eventually
      // be the format-specific prefix
      if (unpadded_len < len) {
        len--;
      }
      if (len && (base == BASE_HEX)) {
     6ca:	10 e0       	ldi	r17, 0x00	; 0
     6cc:	00 e0       	ldi	r16, 0x00	; 0
c:\users\admin\documents\arduino\libraries\libprintf\extras\printf/printf.c:360
        if (unpadded_len < len) {
          len--;
        }
      }
    }
    if ((base == BASE_HEX) && !(flags & FLAGS_UPPERCASE) && (len < PRINTF_INTEGER_BUFFER_SIZE)) {
     6ce:	f9 a1       	ldd	r31, Y+33	; 0x21
     6d0:	f0 31       	cpi	r31, 0x10	; 16
     6d2:	09 f0       	breq	.+2      	; 0x6d6 <print_integer(void (*)(char, void*, unsigned int, unsigned int), char*, unsigned int, unsigned int, unsigned long long, bool, unsigned char, unsigned int, unsigned int, unsigned int) [clone .constprop.44]+0x24c>
     6d4:	62 c0       	rjmp	.+196    	; 0x79a <print_integer(void (*)(char, void*, unsigned int, unsigned int), char*, unsigned int, unsigned int, unsigned long long, bool, unsigned char, unsigned int, unsigned int, unsigned int) [clone .constprop.44]+0x310>
     6d6:	85 fc       	sbrc	r8, 5
     6d8:	54 c0       	rjmp	.+168    	; 0x782 <print_integer(void (*)(char, void*, unsigned int, unsigned int), char*, unsigned int, unsigned int, unsigned long long, bool, unsigned char, unsigned int, unsigned int, unsigned int) [clone .constprop.44]+0x2f8>
     6da:	00 32       	cpi	r16, 0x20	; 32
     6dc:	11 05       	cpc	r17, r1
     6de:	40 f5       	brcc	.+80     	; 0x730 <print_integer(void (*)(char, void*, unsigned int, unsigned int), char*, unsigned int, unsigned int, unsigned long long, bool, unsigned char, unsigned int, unsigned int, unsigned int) [clone .constprop.44]+0x2a6>
c:\users\admin\documents\arduino\libraries\libprintf\extras\printf/printf.c:361
      buf[len++] = 'x';
     6e0:	e1 e0       	ldi	r30, 0x01	; 1
     6e2:	f0 e0       	ldi	r31, 0x00	; 0
     6e4:	ec 0f       	add	r30, r28
     6e6:	fd 1f       	adc	r31, r29
     6e8:	e0 0f       	add	r30, r16
     6ea:	f1 1f       	adc	r31, r17
     6ec:	88 e7       	ldi	r24, 0x78	; 120
c:\users\admin\documents\arduino\libraries\libprintf\extras\printf/printf.c:367
    }
    else if ((base == BASE_HEX) && (flags & FLAGS_UPPERCASE) && (len < PRINTF_INTEGER_BUFFER_SIZE)) {
      buf[len++] = 'X';
    }
    else if ((base == BASE_BINARY) && (len < PRINTF_INTEGER_BUFFER_SIZE)) {
      buf[len++] = 'b';
     6ee:	80 83       	st	Z, r24
_ZL13print_integerPFvcPvjjEPcjjybhjjj.constprop.44():
     6f0:	0f 5f       	subi	r16, 0xFF	; 255
     6f2:	1f 4f       	sbci	r17, 0xFF	; 255
print_integer_finalization():
c:\users\admin\documents\arduino\libraries\libprintf\extras\printf/printf.c:369
    }
    if (len < PRINTF_INTEGER_BUFFER_SIZE) {
     6f4:	00 32       	cpi	r16, 0x20	; 32
     6f6:	11 05       	cpc	r17, r1
     6f8:	d8 f4       	brcc	.+54     	; 0x730 <print_integer(void (*)(char, void*, unsigned int, unsigned int), char*, unsigned int, unsigned int, unsigned long long, bool, unsigned char, unsigned int, unsigned int, unsigned int) [clone .constprop.44]+0x2a6>
c:\users\admin\documents\arduino\libraries\libprintf\extras\printf/printf.c:370
      buf[len++] = '0';
     6fa:	e1 e0       	ldi	r30, 0x01	; 1
     6fc:	f0 e0       	ldi	r31, 0x00	; 0
     6fe:	ec 0f       	add	r30, r28
     700:	fd 1f       	adc	r31, r29
     702:	e0 0f       	add	r30, r16
     704:	f1 1f       	adc	r31, r17
     706:	80 e3       	ldi	r24, 0x30	; 48
     708:	80 83       	st	Z, r24
_ZL13print_integerPFvcPvjjEPcjjybhjjj.constprop.44():
     70a:	0f 5f       	subi	r16, 0xFF	; 255
     70c:	1f 4f       	sbci	r17, 0xFF	; 255
print_integer_finalization():
c:\users\admin\documents\arduino\libraries\libprintf\extras\printf/printf.c:374
    }
  }

  if (len < PRINTF_INTEGER_BUFFER_SIZE) {
     70e:	00 32       	cpi	r16, 0x20	; 32
     710:	11 05       	cpc	r17, r1
     712:	70 f4       	brcc	.+28     	; 0x730 <print_integer(void (*)(char, void*, unsigned int, unsigned int), char*, unsigned int, unsigned int, unsigned long long, bool, unsigned char, unsigned int, unsigned int, unsigned int) [clone .constprop.44]+0x2a6>
c:\users\admin\documents\arduino\libraries\libprintf\extras\printf/printf.c:375
    if (negative) {
     714:	38 a5       	ldd	r19, Y+40	; 0x28
     716:	33 23       	and	r19, r19
     718:	09 f4       	brne	.+2      	; 0x71c <print_integer(void (*)(char, void*, unsigned int, unsigned int), char*, unsigned int, unsigned int, unsigned long long, bool, unsigned char, unsigned int, unsigned int, unsigned int) [clone .constprop.44]+0x292>
     71a:	4e c0       	rjmp	.+156    	; 0x7b8 <print_integer(void (*)(char, void*, unsigned int, unsigned int), char*, unsigned int, unsigned int, unsigned long long, bool, unsigned char, unsigned int, unsigned int, unsigned int) [clone .constprop.44]+0x32e>
c:\users\admin\documents\arduino\libraries\libprintf\extras\printf/printf.c:376
      buf[len++] = '-';
     71c:	e1 e0       	ldi	r30, 0x01	; 1
     71e:	f0 e0       	ldi	r31, 0x00	; 0
     720:	ec 0f       	add	r30, r28
     722:	fd 1f       	adc	r31, r29
     724:	e0 0f       	add	r30, r16
     726:	f1 1f       	adc	r31, r17
     728:	8d e2       	ldi	r24, 0x2D	; 45
c:\users\admin\documents\arduino\libraries\libprintf\extras\printf/printf.c:382
    }
    else if (flags & FLAGS_PLUS) {
      buf[len++] = '+';  // ignore the space if the '+' exists
    }
    else if (flags & FLAGS_SPACE) {
      buf[len++] = ' ';
     72a:	80 83       	st	Z, r24
_ZL13print_integerPFvcPvjjEPcjjybhjjj.constprop.44():
     72c:	0f 5f       	subi	r16, 0xFF	; 255
     72e:	1f 4f       	sbci	r17, 0xFF	; 255
print_integer_finalization():
c:\users\admin\documents\arduino\libraries\libprintf\extras\printf/printf.c:386
    }
  }

  return out_rev_(out, buffer, idx, maxlen, buf, len, width, flags);
     730:	64 01       	movw	r12, r8
     732:	29 96       	adiw	r28, 0x09	; 9
     734:	ee ac       	ldd	r14, Y+62	; 0x3e
     736:	ff ac       	ldd	r15, Y+63	; 0x3f
     738:	29 97       	sbiw	r28, 0x09	; 9
     73a:	9e 01       	movw	r18, r28
     73c:	2f 5f       	subi	r18, 0xFF	; 255
     73e:	3f 4f       	sbci	r19, 0xFF	; 255
     740:	4d a5       	ldd	r20, Y+45	; 0x2d
     742:	5e a5       	ldd	r21, Y+46	; 0x2e
     744:	6b a5       	ldd	r22, Y+43	; 0x2b
     746:	7c a5       	ldd	r23, Y+44	; 0x2c
     748:	89 a5       	ldd	r24, Y+41	; 0x29
     74a:	9a a5       	ldd	r25, Y+42	; 0x2a
     74c:	0e 94 bb 01 	call	0x376	; 0x376 <out_rev_(void (*)(char, void*, unsigned int, unsigned int), char*, unsigned int, unsigned int, char const*, unsigned int, unsigned int, unsigned int) [clone .constprop.46]>
_ZL13print_integerPFvcPvjjEPcjjybhjjj.constprop.44():
c:\users\admin\documents\arduino\libraries\libprintf\extras\printf/printf.c:418
      value /= base;
    } while (value && (len < PRINTF_INTEGER_BUFFER_SIZE));
  }

  return print_integer_finalization(out, buffer, idx, maxlen, buf, len, negative, base, precision, width, flags);
}
     750:	af 96       	adiw	r28, 0x2f	; 47
     752:	0f b6       	in	r0, 0x3f	; 63
     754:	f8 94       	cli
     756:	de bf       	out	0x3e, r29	; 62
     758:	0f be       	out	0x3f, r0	; 63
     75a:	cd bf       	out	0x3d, r28	; 61
     75c:	df 91       	pop	r29
     75e:	cf 91       	pop	r28
     760:	1f 91       	pop	r17
     762:	0f 91       	pop	r16
     764:	ff 90       	pop	r15
     766:	ef 90       	pop	r14
     768:	df 90       	pop	r13
     76a:	cf 90       	pop	r12
     76c:	bf 90       	pop	r11
     76e:	af 90       	pop	r10
     770:	9f 90       	pop	r9
     772:	8f 90       	pop	r8
     774:	7f 90       	pop	r7
     776:	6f 90       	pop	r6
     778:	5f 90       	pop	r5
     77a:	4f 90       	pop	r4
     77c:	3f 90       	pop	r3
     77e:	2f 90       	pop	r2
     780:	08 95       	ret
print_integer_finalization():
c:\users\admin\documents\arduino\libraries\libprintf\extras\printf/printf.c:363
      }
    }
    if ((base == BASE_HEX) && !(flags & FLAGS_UPPERCASE) && (len < PRINTF_INTEGER_BUFFER_SIZE)) {
      buf[len++] = 'x';
    }
    else if ((base == BASE_HEX) && (flags & FLAGS_UPPERCASE) && (len < PRINTF_INTEGER_BUFFER_SIZE)) {
     782:	00 32       	cpi	r16, 0x20	; 32
     784:	11 05       	cpc	r17, r1
     786:	a0 f6       	brcc	.-88     	; 0x730 <print_integer(void (*)(char, void*, unsigned int, unsigned int), char*, unsigned int, unsigned int, unsigned long long, bool, unsigned char, unsigned int, unsigned int, unsigned int) [clone .constprop.44]+0x2a6>
c:\users\admin\documents\arduino\libraries\libprintf\extras\printf/printf.c:364
      buf[len++] = 'X';
     788:	e1 e0       	ldi	r30, 0x01	; 1
     78a:	f0 e0       	ldi	r31, 0x00	; 0
     78c:	ec 0f       	add	r30, r28
     78e:	fd 1f       	adc	r31, r29
     790:	e0 0f       	add	r30, r16
     792:	f1 1f       	adc	r31, r17
     794:	88 e5       	ldi	r24, 0x58	; 88
     796:	ab cf       	rjmp	.-170    	; 0x6ee <print_integer(void (*)(char, void*, unsigned int, unsigned int), char*, unsigned int, unsigned int, unsigned long long, bool, unsigned char, unsigned int, unsigned int, unsigned int) [clone .constprop.44]+0x264>
c:\users\admin\documents\arduino\libraries\libprintf\extras\printf/printf.c:354
      // Let's take back some padding digits to fit in what will eventually
      // be the format-specific prefix
      if (unpadded_len < len) {
        len--;
      }
      if (len && (base == BASE_HEX)) {
     798:	8c 01       	movw	r16, r24
c:\users\admin\documents\arduino\libraries\libprintf\extras\printf/printf.c:366
      buf[len++] = 'x';
    }
    else if ((base == BASE_HEX) && (flags & FLAGS_UPPERCASE) && (len < PRINTF_INTEGER_BUFFER_SIZE)) {
      buf[len++] = 'X';
    }
    else if ((base == BASE_BINARY) && (len < PRINTF_INTEGER_BUFFER_SIZE)) {
     79a:	29 a1       	ldd	r18, Y+33	; 0x21
     79c:	22 30       	cpi	r18, 0x02	; 2
     79e:	09 f0       	breq	.+2      	; 0x7a2 <print_integer(void (*)(char, void*, unsigned int, unsigned int), char*, unsigned int, unsigned int, unsigned long long, bool, unsigned char, unsigned int, unsigned int, unsigned int) [clone .constprop.44]+0x318>
     7a0:	a9 cf       	rjmp	.-174    	; 0x6f4 <print_integer(void (*)(char, void*, unsigned int, unsigned int), char*, unsigned int, unsigned int, unsigned long long, bool, unsigned char, unsigned int, unsigned int, unsigned int) [clone .constprop.44]+0x26a>
     7a2:	00 32       	cpi	r16, 0x20	; 32
     7a4:	11 05       	cpc	r17, r1
     7a6:	20 f6       	brcc	.-120    	; 0x730 <print_integer(void (*)(char, void*, unsigned int, unsigned int), char*, unsigned int, unsigned int, unsigned long long, bool, unsigned char, unsigned int, unsigned int, unsigned int) [clone .constprop.44]+0x2a6>
c:\users\admin\documents\arduino\libraries\libprintf\extras\printf/printf.c:367
      buf[len++] = 'b';
     7a8:	e1 e0       	ldi	r30, 0x01	; 1
     7aa:	f0 e0       	ldi	r31, 0x00	; 0
     7ac:	ec 0f       	add	r30, r28
     7ae:	fd 1f       	adc	r31, r29
     7b0:	e0 0f       	add	r30, r16
     7b2:	f1 1f       	adc	r31, r17
     7b4:	82 e6       	ldi	r24, 0x62	; 98
     7b6:	9b cf       	rjmp	.-202    	; 0x6ee <print_integer(void (*)(char, void*, unsigned int, unsigned int), char*, unsigned int, unsigned int, unsigned long long, bool, unsigned char, unsigned int, unsigned int, unsigned int) [clone .constprop.44]+0x264>
c:\users\admin\documents\arduino\libraries\libprintf\extras\printf/printf.c:378

  if (len < PRINTF_INTEGER_BUFFER_SIZE) {
    if (negative) {
      buf[len++] = '-';
    }
    else if (flags & FLAGS_PLUS) {
     7b8:	82 fe       	sbrs	r8, 2
     7ba:	08 c0       	rjmp	.+16     	; 0x7cc <print_integer(void (*)(char, void*, unsigned int, unsigned int), char*, unsigned int, unsigned int, unsigned long long, bool, unsigned char, unsigned int, unsigned int, unsigned int) [clone .constprop.44]+0x342>
c:\users\admin\documents\arduino\libraries\libprintf\extras\printf/printf.c:379
      buf[len++] = '+';  // ignore the space if the '+' exists
     7bc:	e1 e0       	ldi	r30, 0x01	; 1
     7be:	f0 e0       	ldi	r31, 0x00	; 0
     7c0:	ec 0f       	add	r30, r28
     7c2:	fd 1f       	adc	r31, r29
     7c4:	e0 0f       	add	r30, r16
     7c6:	f1 1f       	adc	r31, r17
     7c8:	8b e2       	ldi	r24, 0x2B	; 43
     7ca:	af cf       	rjmp	.-162    	; 0x72a <print_integer(void (*)(char, void*, unsigned int, unsigned int), char*, unsigned int, unsigned int, unsigned long long, bool, unsigned char, unsigned int, unsigned int, unsigned int) [clone .constprop.44]+0x2a0>
c:\users\admin\documents\arduino\libraries\libprintf\extras\printf/printf.c:381
    }
    else if (flags & FLAGS_SPACE) {
     7cc:	83 fe       	sbrs	r8, 3
     7ce:	b0 cf       	rjmp	.-160    	; 0x730 <print_integer(void (*)(char, void*, unsigned int, unsigned int), char*, unsigned int, unsigned int, unsigned long long, bool, unsigned char, unsigned int, unsigned int, unsigned int) [clone .constprop.44]+0x2a6>
c:\users\admin\documents\arduino\libraries\libprintf\extras\printf/printf.c:382
      buf[len++] = ' ';
     7d0:	e1 e0       	ldi	r30, 0x01	; 1
     7d2:	f0 e0       	ldi	r31, 0x00	; 0
     7d4:	ec 0f       	add	r30, r28
     7d6:	fd 1f       	adc	r31, r29
     7d8:	e0 0f       	add	r30, r16
     7da:	f1 1f       	adc	r31, r17
     7dc:	80 e2       	ldi	r24, 0x20	; 32
     7de:	a5 cf       	rjmp	.-182    	; 0x72a <print_integer(void (*)(char, void*, unsigned int, unsigned int), char*, unsigned int, unsigned int, unsigned long long, bool, unsigned char, unsigned int, unsigned int, unsigned int) [clone .constprop.44]+0x2a0>
c:\users\admin\documents\arduino\libraries\libprintf\extras\printf/printf.c:354
      // Let's take back some padding digits to fit in what will eventually
      // be the format-specific prefix
      if (unpadded_len < len) {
        len--;
      }
      if (len && (base == BASE_HEX)) {
     7e0:	49 a1       	ldd	r20, Y+33	; 0x21
     7e2:	40 31       	cpi	r20, 0x10	; 16
     7e4:	d1 f6       	brne	.-76     	; 0x79a <print_integer(void (*)(char, void*, unsigned int, unsigned int), char*, unsigned int, unsigned int, unsigned long long, bool, unsigned char, unsigned int, unsigned int, unsigned int) [clone .constprop.44]+0x310>
     7e6:	77 cf       	rjmp	.-274    	; 0x6d6 <print_integer(void (*)(char, void*, unsigned int, unsigned int), char*, unsigned int, unsigned int, unsigned long long, bool, unsigned char, unsigned int, unsigned int, unsigned int) [clone .constprop.44]+0x24c>

000007e8 <print_broken_up_decimal(double_components, void (*)(char, void*, unsigned int, unsigned int), char*, unsigned int, unsigned int, unsigned int, unsigned int, unsigned int, char*, unsigned int) [clone .constprop.43]>:
_ZL23print_broken_up_decimal17double_componentsPFvcPvjjEPcjjjjjS3_j.constprop.43():
c:\users\admin\documents\arduino\libraries\libprintf\extras\printf/printf.c:557
  }
  return components;
}
#endif

static size_t print_broken_up_decimal(
     7e8:	2f 92       	push	r2
     7ea:	3f 92       	push	r3
     7ec:	4f 92       	push	r4
     7ee:	5f 92       	push	r5
     7f0:	6f 92       	push	r6
     7f2:	7f 92       	push	r7
     7f4:	8f 92       	push	r8
     7f6:	9f 92       	push	r9
     7f8:	af 92       	push	r10
     7fa:	bf 92       	push	r11
     7fc:	cf 92       	push	r12
     7fe:	df 92       	push	r13
     800:	ef 92       	push	r14
     802:	ff 92       	push	r15
     804:	0f 93       	push	r16
     806:	1f 93       	push	r17
     808:	cf 93       	push	r28
     80a:	df 93       	push	r29
     80c:	cd b7       	in	r28, 0x3d	; 61
     80e:	de b7       	in	r29, 0x3e	; 62
     810:	6e 97       	sbiw	r28, 0x1e	; 30
     812:	0f b6       	in	r0, 0x3f	; 63
     814:	f8 94       	cli
     816:	de bf       	out	0x3e, r29	; 62
     818:	0f be       	out	0x3f, r0	; 63
     81a:	cd bf       	out	0x3d, r28	; 61
     81c:	09 87       	std	Y+9, r16	; 0x09
     81e:	1a 87       	std	Y+10, r17	; 0x0a
     820:	2b 87       	std	Y+11, r18	; 0x0b
     822:	3c 87       	std	Y+12, r19	; 0x0c
     824:	4d 87       	std	Y+13, r20	; 0x0d
     826:	5e 87       	std	Y+14, r21	; 0x0e
     828:	6f 87       	std	Y+15, r22	; 0x0f
     82a:	78 8b       	std	Y+16, r23	; 0x10
     82c:	24 96       	adiw	r28, 0x04	; 4
     82e:	4e ac       	ldd	r4, Y+62	; 0x3e
     830:	5f ac       	ldd	r5, Y+63	; 0x3f
     832:	24 97       	sbiw	r28, 0x04	; 4
     834:	8c 8a       	std	Y+20, r8	; 0x14
     836:	9d 8a       	std	Y+21, r9	; 0x15
     838:	ae 8a       	std	Y+22, r10	; 0x16
     83a:	bf 8a       	std	Y+23, r11	; 0x17
     83c:	c8 8e       	std	Y+24, r12	; 0x18
     83e:	d9 8e       	std	Y+25, r13	; 0x19
     840:	ea 8e       	std	Y+26, r14	; 0x1a
     842:	fb 8e       	std	Y+27, r15	; 0x1b
     844:	8c 8f       	std	Y+28, r24	; 0x1c
c:\users\admin\documents\arduino\libraries\libprintf\extras\printf/printf.c:561
  struct double_components number_, out_fct_type out, char *buffer, size_t idx, size_t maxlen, unsigned int precision,
  unsigned int width, unsigned int flags, char *buf, size_t len)
{
  if (precision != 0U) {
     846:	2a ad       	ldd	r18, Y+58	; 0x3a
     848:	3b ad       	ldd	r19, Y+59	; 0x3b
     84a:	23 2b       	or	r18, r19
     84c:	09 f4       	brne	.+2      	; 0x850 <print_broken_up_decimal(double_components, void (*)(char, void*, unsigned int, unsigned int), char*, unsigned int, unsigned int, unsigned int, unsigned int, unsigned int, char*, unsigned int) [clone .constprop.43]+0x68>
     84e:	9e c0       	rjmp	.+316    	; 0x98c <print_broken_up_decimal(double_components, void (*)(char, void*, unsigned int, unsigned int), char*, unsigned int, unsigned int, unsigned int, unsigned int, unsigned int, char*, unsigned int) [clone .constprop.43]+0x1a4>
     850:	0a 8b       	std	Y+18, r16	; 0x12
     852:	1b 8b       	std	Y+19, r17	; 0x13
     854:	6b 84       	ldd	r6, Y+11	; 0x0b
     856:	7c 84       	ldd	r7, Y+12	; 0x0c
     858:	4a 01       	movw	r8, r20
     85a:	1b 01       	movw	r2, r22
c:\users\admin\documents\arduino\libraries\libprintf\extras\printf/printf.c:566
    // do fractional part, as an unsigned number

    unsigned int count = precision;

    if (flags & FLAGS_ADAPT_EXP && !(flags & FLAGS_HASH)) {
     85c:	ee ad       	ldd	r30, Y+62	; 0x3e
     85e:	ff ad       	ldd	r31, Y+63	; 0x3f
     860:	f3 ff       	sbrs	r31, 3
     862:	3e c0       	rjmp	.+124    	; 0x8e0 <print_broken_up_decimal(double_components, void (*)(char, void*, unsigned int, unsigned int), char*, unsigned int, unsigned int, unsigned int, unsigned int, unsigned int, char*, unsigned int) [clone .constprop.43]+0xf8>
     864:	e4 fd       	sbrc	r30, 4
     866:	3c c0       	rjmp	.+120    	; 0x8e0 <print_broken_up_decimal(double_components, void (*)(char, void*, unsigned int, unsigned int), char*, unsigned int, unsigned int, unsigned int, unsigned int, unsigned int, char*, unsigned int) [clone .constprop.43]+0xf8>
c:\users\admin\documents\arduino\libraries\libprintf\extras\printf/printf.c:568
      // %g/%G mandates we skip the trailing 0 digits...
      if (number_.fractional > 0) {
     868:	20 2f       	mov	r18, r16
     86a:	31 2f       	mov	r19, r17
     86c:	a3 01       	movw	r20, r6
     86e:	b4 01       	movw	r22, r8
     870:	c1 01       	movw	r24, r2
     872:	a0 e0       	ldi	r26, 0x00	; 0
     874:	0e 94 db 28 	call	0x51b6	; 0x51b6 <__cmpdi2_s8>
     878:	09 f0       	breq	.+2      	; 0x87c <print_broken_up_decimal(double_components, void (*)(char, void*, unsigned int, unsigned int), char*, unsigned int, unsigned int, unsigned int, unsigned int, unsigned int, char*, unsigned int) [clone .constprop.43]+0x94>
     87a:	0c f4       	brge	.+2      	; 0x87e <print_broken_up_decimal(double_components, void (*)(char, void*, unsigned int, unsigned int), char*, unsigned int, unsigned int, unsigned int, unsigned int, unsigned int, char*, unsigned int) [clone .constprop.43]+0x96>
     87c:	9a c0       	rjmp	.+308    	; 0x9b2 <print_broken_up_decimal(double_components, void (*)(char, void*, unsigned int, unsigned int), char*, unsigned int, unsigned int, unsigned int, unsigned int, unsigned int, char*, unsigned int) [clone .constprop.43]+0x1ca>
c:\users\admin\documents\arduino\libraries\libprintf\extras\printf/printf.c:570
        while(true) {
          int_fast64_t digit = number_.fractional % 10U;
     87e:	2a e0       	ldi	r18, 0x0A	; 10
     880:	a2 2e       	mov	r10, r18
     882:	b1 2c       	mov	r11, r1
     884:	c1 2c       	mov	r12, r1
     886:	d1 2c       	mov	r13, r1
     888:	e1 2c       	mov	r14, r1
     88a:	f1 2c       	mov	r15, r1
     88c:	00 e0       	ldi	r16, 0x00	; 0
     88e:	10 e0       	ldi	r17, 0x00	; 0
     890:	2a 89       	ldd	r18, Y+18	; 0x12
     892:	3b 89       	ldd	r19, Y+19	; 0x13
     894:	a3 01       	movw	r20, r6
     896:	b4 01       	movw	r22, r8
     898:	c1 01       	movw	r24, r2
     89a:	0e 94 d2 27 	call	0x4fa4	; 0x4fa4 <__moddi3>
c:\users\admin\documents\arduino\libraries\libprintf\extras\printf/printf.c:571
          if (digit != 0) {
     89e:	a0 e0       	ldi	r26, 0x00	; 0
     8a0:	0e 94 db 28 	call	0x51b6	; 0x51b6 <__cmpdi2_s8>
     8a4:	99 f4       	brne	.+38     	; 0x8cc <print_broken_up_decimal(double_components, void (*)(char, void*, unsigned int, unsigned int), char*, unsigned int, unsigned int, unsigned int, unsigned int, unsigned int, char*, unsigned int) [clone .constprop.43]+0xe4>
c:\users\admin\documents\arduino\libraries\libprintf\extras\printf/printf.c:574
            break;
          }
          --count;
     8a6:	2a ad       	ldd	r18, Y+58	; 0x3a
     8a8:	3b ad       	ldd	r19, Y+59	; 0x3b
     8aa:	21 50       	subi	r18, 0x01	; 1
     8ac:	31 09       	sbc	r19, r1
     8ae:	3b af       	std	Y+59, r19	; 0x3b
     8b0:	2a af       	std	Y+58, r18	; 0x3a
c:\users\admin\documents\arduino\libraries\libprintf\extras\printf/printf.c:575
          number_.fractional /= 10U;
     8b2:	2a 89       	ldd	r18, Y+18	; 0x12
     8b4:	3b 89       	ldd	r19, Y+19	; 0x13
     8b6:	a3 01       	movw	r20, r6
     8b8:	b4 01       	movw	r22, r8
     8ba:	c1 01       	movw	r24, r2
     8bc:	0e 94 d4 27 	call	0x4fa8	; 0x4fa8 <__divdi3>
     8c0:	2a 8b       	std	Y+18, r18	; 0x12
     8c2:	3b 8b       	std	Y+19, r19	; 0x13
     8c4:	3a 01       	movw	r6, r20
     8c6:	4b 01       	movw	r8, r22
     8c8:	1c 01       	movw	r2, r24
     8ca:	d9 cf       	rjmp	.-78     	; 0x87e <print_broken_up_decimal(double_components, void (*)(char, void*, unsigned int, unsigned int), char*, unsigned int, unsigned int, unsigned int, unsigned int, unsigned int, char*, unsigned int) [clone .constprop.43]+0x96>
c:\users\admin\documents\arduino\libraries\libprintf\extras\printf/printf.c:583
      }
      // ... and even the decimal point if there are no
      // non-zero fractional part digits (see below)
    }

    if (number_.fractional > 0 || !(flags & FLAGS_ADAPT_EXP) || (flags & FLAGS_HASH) ) {
     8cc:	2a 89       	ldd	r18, Y+18	; 0x12
     8ce:	3b 89       	ldd	r19, Y+19	; 0x13
     8d0:	a3 01       	movw	r20, r6
     8d2:	b4 01       	movw	r22, r8
     8d4:	c1 01       	movw	r24, r2
     8d6:	a0 e0       	ldi	r26, 0x00	; 0
     8d8:	0e 94 db 28 	call	0x51b6	; 0x51b6 <__cmpdi2_s8>
     8dc:	09 f4       	brne	.+2      	; 0x8e0 <print_broken_up_decimal(double_components, void (*)(char, void*, unsigned int, unsigned int), char*, unsigned int, unsigned int, unsigned int, unsigned int, unsigned int, char*, unsigned int) [clone .constprop.43]+0xf8>
     8de:	69 c0       	rjmp	.+210    	; 0x9b2 <print_broken_up_decimal(double_components, void (*)(char, void*, unsigned int, unsigned int), char*, unsigned int, unsigned int, unsigned int, unsigned int, unsigned int, char*, unsigned int) [clone .constprop.43]+0x1ca>
     8e0:	22 96       	adiw	r28, 0x02	; 2
     8e2:	8e ad       	ldd	r24, Y+62	; 0x3e
     8e4:	9f ad       	ldd	r25, Y+63	; 0x3f
     8e6:	22 97       	sbiw	r28, 0x02	; 2
     8e8:	84 0d       	add	r24, r4
     8ea:	95 1d       	adc	r25, r5
     8ec:	9e 8f       	std	Y+30, r25	; 0x1e
     8ee:	8d 8f       	std	Y+29, r24	; 0x1d
c:\users\admin\documents\arduino\libraries\libprintf\extras\printf/printf.c:584
      while (len < PRINTF_FTOA_BUFFER_SIZE) {
     8f0:	90 e2       	ldi	r25, 0x20	; 32
     8f2:	49 16       	cp	r4, r25
     8f4:	51 04       	cpc	r5, r1
     8f6:	08 f0       	brcs	.+2      	; 0x8fa <print_broken_up_decimal(double_components, void (*)(char, void*, unsigned int, unsigned int), char*, unsigned int, unsigned int, unsigned int, unsigned int, unsigned int, char*, unsigned int) [clone .constprop.43]+0x112>
     8f8:	96 c0       	rjmp	.+300    	; 0xa26 <print_broken_up_decimal(double_components, void (*)(char, void*, unsigned int, unsigned int), char*, unsigned int, unsigned int, unsigned int, unsigned int, unsigned int, char*, unsigned int) [clone .constprop.43]+0x23e>
c:\users\admin\documents\arduino\libraries\libprintf\extras\printf/printf.c:585
        --count;
     8fa:	ea ad       	ldd	r30, Y+58	; 0x3a
     8fc:	fb ad       	ldd	r31, Y+59	; 0x3b
     8fe:	31 97       	sbiw	r30, 0x01	; 1
     900:	fb af       	std	Y+59, r31	; 0x3b
     902:	ea af       	std	Y+58, r30	; 0x3a
c:\users\admin\documents\arduino\libraries\libprintf\extras\printf/printf.c:586
        buf[len++] = (char)('0' + number_.fractional % 10U);
     904:	ff ef       	ldi	r31, 0xFF	; 255
     906:	4f 1a       	sub	r4, r31
     908:	5f 0a       	sbc	r5, r31
     90a:	9a e0       	ldi	r25, 0x0A	; 10
     90c:	a9 2e       	mov	r10, r25
     90e:	b1 2c       	mov	r11, r1
     910:	c1 2c       	mov	r12, r1
     912:	d1 2c       	mov	r13, r1
     914:	e1 2c       	mov	r14, r1
     916:	f1 2c       	mov	r15, r1
     918:	00 e0       	ldi	r16, 0x00	; 0
     91a:	10 e0       	ldi	r17, 0x00	; 0
     91c:	2a 89       	ldd	r18, Y+18	; 0x12
     91e:	3b 89       	ldd	r19, Y+19	; 0x13
     920:	a3 01       	movw	r20, r6
     922:	b4 01       	movw	r22, r8
     924:	c1 01       	movw	r24, r2
     926:	0e 94 d2 27 	call	0x4fa4	; 0x4fa4 <__moddi3>
     92a:	20 5d       	subi	r18, 0xD0	; 208
     92c:	ed 8d       	ldd	r30, Y+29	; 0x1d
     92e:	fe 8d       	ldd	r31, Y+30	; 0x1e
     930:	21 93       	st	Z+, r18
     932:	fe 8f       	std	Y+30, r31	; 0x1e
     934:	ed 8f       	std	Y+29, r30	; 0x1d
c:\users\admin\documents\arduino\libraries\libprintf\extras\printf/printf.c:587
        if (!(number_.fractional /= 10U)) {
     936:	2a 89       	ldd	r18, Y+18	; 0x12
     938:	3b 89       	ldd	r19, Y+19	; 0x13
     93a:	a3 01       	movw	r20, r6
     93c:	b4 01       	movw	r22, r8
     93e:	c1 01       	movw	r24, r2
     940:	0e 94 d4 27 	call	0x4fa8	; 0x4fa8 <__divdi3>
     944:	2a 8b       	std	Y+18, r18	; 0x12
     946:	3b 8b       	std	Y+19, r19	; 0x13
     948:	3a 01       	movw	r6, r20
     94a:	4b 01       	movw	r8, r22
     94c:	1c 01       	movw	r2, r24
     94e:	a0 e0       	ldi	r26, 0x00	; 0
     950:	0e 94 db 28 	call	0x51b6	; 0x51b6 <__cmpdi2_s8>
     954:	69 f6       	brne	.-102    	; 0x8f0 <print_broken_up_decimal(double_components, void (*)(char, void*, unsigned int, unsigned int), char*, unsigned int, unsigned int, unsigned int, unsigned int, unsigned int, char*, unsigned int) [clone .constprop.43]+0x108>
     956:	22 96       	adiw	r28, 0x02	; 2
     958:	ee ad       	ldd	r30, Y+62	; 0x3e
     95a:	ff ad       	ldd	r31, Y+63	; 0x3f
     95c:	22 97       	sbiw	r28, 0x02	; 2
     95e:	e4 0d       	add	r30, r4
     960:	f5 1d       	adc	r31, r5
c:\users\admin\documents\arduino\libraries\libprintf\extras\printf/printf.c:593
          break;
        }
      }
      // add extra 0s
      while ((len < PRINTF_FTOA_BUFFER_SIZE) && (count-- > 0U)) {
        buf[len++] = '0';
     962:	80 e3       	ldi	r24, 0x30	; 48
c:\users\admin\documents\arduino\libraries\libprintf\extras\printf/printf.c:592
        if (!(number_.fractional /= 10U)) {
          break;
        }
      }
      // add extra 0s
      while ((len < PRINTF_FTOA_BUFFER_SIZE) && (count-- > 0U)) {
     964:	20 e2       	ldi	r18, 0x20	; 32
     966:	42 16       	cp	r4, r18
     968:	51 04       	cpc	r5, r1
     96a:	09 f4       	brne	.+2      	; 0x96e <print_broken_up_decimal(double_components, void (*)(char, void*, unsigned int, unsigned int), char*, unsigned int, unsigned int, unsigned int, unsigned int, unsigned int, char*, unsigned int) [clone .constprop.43]+0x186>
     96c:	5c c0       	rjmp	.+184    	; 0xa26 <print_broken_up_decimal(double_components, void (*)(char, void*, unsigned int, unsigned int), char*, unsigned int, unsigned int, unsigned int, unsigned int, unsigned int, char*, unsigned int) [clone .constprop.43]+0x23e>
     96e:	3f ef       	ldi	r19, 0xFF	; 255
     970:	43 1a       	sub	r4, r19
     972:	53 0a       	sbc	r5, r19
     974:	2a ad       	ldd	r18, Y+58	; 0x3a
     976:	3b ad       	ldd	r19, Y+59	; 0x3b
     978:	21 15       	cp	r18, r1
     97a:	31 05       	cpc	r19, r1
     97c:	09 f4       	brne	.+2      	; 0x980 <print_broken_up_decimal(double_components, void (*)(char, void*, unsigned int, unsigned int), char*, unsigned int, unsigned int, unsigned int, unsigned int, unsigned int, char*, unsigned int) [clone .constprop.43]+0x198>
     97e:	da c0       	rjmp	.+436    	; 0xb34 <print_broken_up_decimal(double_components, void (*)(char, void*, unsigned int, unsigned int), char*, unsigned int, unsigned int, unsigned int, unsigned int, unsigned int, char*, unsigned int) [clone .constprop.43]+0x34c>
c:\users\admin\documents\arduino\libraries\libprintf\extras\printf/printf.c:593
        buf[len++] = '0';
     980:	81 93       	st	Z+, r24
     982:	21 50       	subi	r18, 0x01	; 1
     984:	31 09       	sbc	r19, r1
     986:	3b af       	std	Y+59, r19	; 0x3b
     988:	2a af       	std	Y+58, r18	; 0x3a
     98a:	ec cf       	rjmp	.-40     	; 0x964 <print_broken_up_decimal(double_components, void (*)(char, void*, unsigned int, unsigned int), char*, unsigned int, unsigned int, unsigned int, unsigned int, unsigned int, char*, unsigned int) [clone .constprop.43]+0x17c>
c:\users\admin\documents\arduino\libraries\libprintf\extras\printf/printf.c:601
        buf[len++] = '.';
      }
    }
  }
  else {
    if (flags & FLAGS_HASH) {
     98c:	3e ad       	ldd	r19, Y+62	; 0x3e
     98e:	34 ff       	sbrs	r19, 4
     990:	10 c0       	rjmp	.+32     	; 0x9b2 <print_broken_up_decimal(double_components, void (*)(char, void*, unsigned int, unsigned int), char*, unsigned int, unsigned int, unsigned int, unsigned int, unsigned int, char*, unsigned int) [clone .constprop.43]+0x1ca>
c:\users\admin\documents\arduino\libraries\libprintf\extras\printf/printf.c:602
      if (len < PRINTF_FTOA_BUFFER_SIZE) {
     992:	80 e2       	ldi	r24, 0x20	; 32
     994:	48 16       	cp	r4, r24
     996:	51 04       	cpc	r5, r1
     998:	08 f0       	brcs	.+2      	; 0x99c <print_broken_up_decimal(double_components, void (*)(char, void*, unsigned int, unsigned int), char*, unsigned int, unsigned int, unsigned int, unsigned int, unsigned int, char*, unsigned int) [clone .constprop.43]+0x1b4>
     99a:	45 c0       	rjmp	.+138    	; 0xa26 <print_broken_up_decimal(double_components, void (*)(char, void*, unsigned int, unsigned int), char*, unsigned int, unsigned int, unsigned int, unsigned int, unsigned int, char*, unsigned int) [clone .constprop.43]+0x23e>
c:\users\admin\documents\arduino\libraries\libprintf\extras\printf/printf.c:603
        buf[len++] = '.';
     99c:	22 96       	adiw	r28, 0x02	; 2
     99e:	ee ad       	ldd	r30, Y+62	; 0x3e
     9a0:	ff ad       	ldd	r31, Y+63	; 0x3f
     9a2:	22 97       	sbiw	r28, 0x02	; 2
     9a4:	e4 0d       	add	r30, r4
     9a6:	f5 1d       	adc	r31, r5
     9a8:	8e e2       	ldi	r24, 0x2E	; 46
     9aa:	80 83       	st	Z, r24
     9ac:	f2 01       	movw	r30, r4
     9ae:	31 96       	adiw	r30, 0x01	; 1
     9b0:	2f 01       	movw	r4, r30
     9b2:	22 96       	adiw	r28, 0x02	; 2
     9b4:	6e ac       	ldd	r6, Y+62	; 0x3e
     9b6:	7f ac       	ldd	r7, Y+63	; 0x3f
     9b8:	22 97       	sbiw	r28, 0x02	; 2
     9ba:	64 0c       	add	r6, r4
     9bc:	75 1c       	adc	r7, r5
c:\users\admin\documents\arduino\libraries\libprintf\extras\printf/printf.c:610
    }
  }

  // Write the integer part of the number (it comes after the fractional
  // since the character order is reversed)
  while (len < PRINTF_FTOA_BUFFER_SIZE) {
     9be:	f0 e2       	ldi	r31, 0x20	; 32
     9c0:	4f 16       	cp	r4, r31
     9c2:	51 04       	cpc	r5, r1
     9c4:	80 f5       	brcc	.+96     	; 0xa26 <print_broken_up_decimal(double_components, void (*)(char, void*, unsigned int, unsigned int), char*, unsigned int, unsigned int, unsigned int, unsigned int, unsigned int, char*, unsigned int) [clone .constprop.43]+0x23e>
c:\users\admin\documents\arduino\libraries\libprintf\extras\printf/printf.c:611
    buf[len++] = (char)('0' + (number_.integral % 10));
     9c6:	2f ef       	ldi	r18, 0xFF	; 255
     9c8:	42 1a       	sub	r4, r18
     9ca:	52 0a       	sbc	r5, r18
     9cc:	8a e0       	ldi	r24, 0x0A	; 10
     9ce:	a8 2e       	mov	r10, r24
     9d0:	b1 2c       	mov	r11, r1
     9d2:	c1 2c       	mov	r12, r1
     9d4:	d1 2c       	mov	r13, r1
     9d6:	e1 2c       	mov	r14, r1
     9d8:	f1 2c       	mov	r15, r1
     9da:	00 e0       	ldi	r16, 0x00	; 0
     9dc:	10 e0       	ldi	r17, 0x00	; 0
     9de:	2c 89       	ldd	r18, Y+20	; 0x14
     9e0:	3d 89       	ldd	r19, Y+21	; 0x15
     9e2:	4e 89       	ldd	r20, Y+22	; 0x16
     9e4:	5f 89       	ldd	r21, Y+23	; 0x17
     9e6:	68 8d       	ldd	r22, Y+24	; 0x18
     9e8:	79 8d       	ldd	r23, Y+25	; 0x19
     9ea:	8a 8d       	ldd	r24, Y+26	; 0x1a
     9ec:	9b 8d       	ldd	r25, Y+27	; 0x1b
     9ee:	0e 94 d2 27 	call	0x4fa4	; 0x4fa4 <__moddi3>
     9f2:	20 5d       	subi	r18, 0xD0	; 208
     9f4:	f3 01       	movw	r30, r6
     9f6:	21 93       	st	Z+, r18
     9f8:	3f 01       	movw	r6, r30
c:\users\admin\documents\arduino\libraries\libprintf\extras\printf/printf.c:612
    if (!(number_.integral /= 10)) {
     9fa:	2c 89       	ldd	r18, Y+20	; 0x14
     9fc:	3d 89       	ldd	r19, Y+21	; 0x15
     9fe:	4e 89       	ldd	r20, Y+22	; 0x16
     a00:	5f 89       	ldd	r21, Y+23	; 0x17
     a02:	68 8d       	ldd	r22, Y+24	; 0x18
     a04:	79 8d       	ldd	r23, Y+25	; 0x19
     a06:	8a 8d       	ldd	r24, Y+26	; 0x1a
     a08:	9b 8d       	ldd	r25, Y+27	; 0x1b
     a0a:	0e 94 d4 27 	call	0x4fa8	; 0x4fa8 <__divdi3>
     a0e:	2c 8b       	std	Y+20, r18	; 0x14
     a10:	3d 8b       	std	Y+21, r19	; 0x15
     a12:	4e 8b       	std	Y+22, r20	; 0x16
     a14:	5f 8b       	std	Y+23, r21	; 0x17
     a16:	68 8f       	std	Y+24, r22	; 0x18
     a18:	79 8f       	std	Y+25, r23	; 0x19
     a1a:	8a 8f       	std	Y+26, r24	; 0x1a
     a1c:	9b 8f       	std	Y+27, r25	; 0x1b
     a1e:	a0 e0       	ldi	r26, 0x00	; 0
     a20:	0e 94 db 28 	call	0x51b6	; 0x51b6 <__cmpdi2_s8>
     a24:	61 f6       	brne	.-104    	; 0x9be <print_broken_up_decimal(double_components, void (*)(char, void*, unsigned int, unsigned int), char*, unsigned int, unsigned int, unsigned int, unsigned int, unsigned int, char*, unsigned int) [clone .constprop.43]+0x1d6>
c:\users\admin\documents\arduino\libraries\libprintf\extras\printf/printf.c:618
      break;
    }
  }

  // pad leading zeros
  if (!(flags & FLAGS_LEFT) && (flags & FLAGS_ZEROPAD)) {
     a26:	fe ad       	ldd	r31, Y+62	; 0x3e
     a28:	f1 fd       	sbrc	r31, 1
     a2a:	29 c0       	rjmp	.+82     	; 0xa7e <print_broken_up_decimal(double_components, void (*)(char, void*, unsigned int, unsigned int), char*, unsigned int, unsigned int, unsigned int, unsigned int, unsigned int, char*, unsigned int) [clone .constprop.43]+0x296>
     a2c:	f0 ff       	sbrs	r31, 0
     a2e:	27 c0       	rjmp	.+78     	; 0xa7e <print_broken_up_decimal(double_components, void (*)(char, void*, unsigned int, unsigned int), char*, unsigned int, unsigned int, unsigned int, unsigned int, unsigned int, char*, unsigned int) [clone .constprop.43]+0x296>
c:\users\admin\documents\arduino\libraries\libprintf\extras\printf/printf.c:619
    if (width && (number_.is_negative || (flags & (FLAGS_PLUS | FLAGS_SPACE)))) {
     a30:	2c ad       	ldd	r18, Y+60	; 0x3c
     a32:	3d ad       	ldd	r19, Y+61	; 0x3d
     a34:	23 2b       	or	r18, r19
     a36:	19 f1       	breq	.+70     	; 0xa7e <print_broken_up_decimal(double_components, void (*)(char, void*, unsigned int, unsigned int), char*, unsigned int, unsigned int, unsigned int, unsigned int, unsigned int, char*, unsigned int) [clone .constprop.43]+0x296>
     a38:	3c 8d       	ldd	r19, Y+28	; 0x1c
     a3a:	31 11       	cpse	r19, r1
     a3c:	06 c0       	rjmp	.+12     	; 0xa4a <print_broken_up_decimal(double_components, void (*)(char, void*, unsigned int, unsigned int), char*, unsigned int, unsigned int, unsigned int, unsigned int, unsigned int, char*, unsigned int) [clone .constprop.43]+0x262>
     a3e:	8e ad       	ldd	r24, Y+62	; 0x3e
     a40:	9f ad       	ldd	r25, Y+63	; 0x3f
     a42:	8c 70       	andi	r24, 0x0C	; 12
     a44:	99 27       	eor	r25, r25
     a46:	89 2b       	or	r24, r25
     a48:	29 f0       	breq	.+10     	; 0xa54 <print_broken_up_decimal(double_components, void (*)(char, void*, unsigned int, unsigned int), char*, unsigned int, unsigned int, unsigned int, unsigned int, unsigned int, char*, unsigned int) [clone .constprop.43]+0x26c>
c:\users\admin\documents\arduino\libraries\libprintf\extras\printf/printf.c:620
      width--;
     a4a:	8c ad       	ldd	r24, Y+60	; 0x3c
     a4c:	9d ad       	ldd	r25, Y+61	; 0x3d
     a4e:	01 97       	sbiw	r24, 0x01	; 1
     a50:	9d af       	std	Y+61, r25	; 0x3d
     a52:	8c af       	std	Y+60, r24	; 0x3c
     a54:	22 96       	adiw	r28, 0x02	; 2
     a56:	ee ad       	ldd	r30, Y+62	; 0x3e
     a58:	ff ad       	ldd	r31, Y+63	; 0x3f
     a5a:	22 97       	sbiw	r28, 0x02	; 2
     a5c:	e4 0d       	add	r30, r4
     a5e:	f5 1d       	adc	r31, r5
c:\users\admin\documents\arduino\libraries\libprintf\extras\printf/printf.c:623
    }
    while ((len < width) && (len < PRINTF_FTOA_BUFFER_SIZE)) {
      buf[len++] = '0';
     a60:	80 e3       	ldi	r24, 0x30	; 48
c:\users\admin\documents\arduino\libraries\libprintf\extras\printf/printf.c:622
  // pad leading zeros
  if (!(flags & FLAGS_LEFT) && (flags & FLAGS_ZEROPAD)) {
    if (width && (number_.is_negative || (flags & (FLAGS_PLUS | FLAGS_SPACE)))) {
      width--;
    }
    while ((len < width) && (len < PRINTF_FTOA_BUFFER_SIZE)) {
     a62:	2c ad       	ldd	r18, Y+60	; 0x3c
     a64:	3d ad       	ldd	r19, Y+61	; 0x3d
     a66:	42 16       	cp	r4, r18
     a68:	53 06       	cpc	r5, r19
     a6a:	48 f4       	brcc	.+18     	; 0xa7e <print_broken_up_decimal(double_components, void (*)(char, void*, unsigned int, unsigned int), char*, unsigned int, unsigned int, unsigned int, unsigned int, unsigned int, char*, unsigned int) [clone .constprop.43]+0x296>
     a6c:	30 e2       	ldi	r19, 0x20	; 32
     a6e:	43 16       	cp	r4, r19
     a70:	51 04       	cpc	r5, r1
     a72:	c0 f4       	brcc	.+48     	; 0xaa4 <print_broken_up_decimal(double_components, void (*)(char, void*, unsigned int, unsigned int), char*, unsigned int, unsigned int, unsigned int, unsigned int, unsigned int, char*, unsigned int) [clone .constprop.43]+0x2bc>
c:\users\admin\documents\arduino\libraries\libprintf\extras\printf/printf.c:623
      buf[len++] = '0';
     a74:	9f ef       	ldi	r25, 0xFF	; 255
     a76:	49 1a       	sub	r4, r25
     a78:	59 0a       	sbc	r5, r25
     a7a:	81 93       	st	Z+, r24
     a7c:	f2 cf       	rjmp	.-28     	; 0xa62 <print_broken_up_decimal(double_components, void (*)(char, void*, unsigned int, unsigned int), char*, unsigned int, unsigned int, unsigned int, unsigned int, unsigned int, char*, unsigned int) [clone .constprop.43]+0x27a>
c:\users\admin\documents\arduino\libraries\libprintf\extras\printf/printf.c:627
    }
  }

  if (len < PRINTF_FTOA_BUFFER_SIZE) {
     a7e:	e0 e2       	ldi	r30, 0x20	; 32
     a80:	4e 16       	cp	r4, r30
     a82:	51 04       	cpc	r5, r1
     a84:	78 f4       	brcc	.+30     	; 0xaa4 <print_broken_up_decimal(double_components, void (*)(char, void*, unsigned int, unsigned int), char*, unsigned int, unsigned int, unsigned int, unsigned int, unsigned int, char*, unsigned int) [clone .constprop.43]+0x2bc>
c:\users\admin\documents\arduino\libraries\libprintf\extras\printf/printf.c:628
    if (number_.is_negative) {
     a86:	fc 8d       	ldd	r31, Y+28	; 0x1c
     a88:	ff 23       	and	r31, r31
     a8a:	b1 f1       	breq	.+108    	; 0xaf8 <print_broken_up_decimal(double_components, void (*)(char, void*, unsigned int, unsigned int), char*, unsigned int, unsigned int, unsigned int, unsigned int, unsigned int, char*, unsigned int) [clone .constprop.43]+0x310>
c:\users\admin\documents\arduino\libraries\libprintf\extras\printf/printf.c:629
      buf[len++] = '-';
     a8c:	22 96       	adiw	r28, 0x02	; 2
     a8e:	ee ad       	ldd	r30, Y+62	; 0x3e
     a90:	ff ad       	ldd	r31, Y+63	; 0x3f
     a92:	22 97       	sbiw	r28, 0x02	; 2
     a94:	e4 0d       	add	r30, r4
     a96:	f5 1d       	adc	r31, r5
     a98:	8d e2       	ldi	r24, 0x2D	; 45
     a9a:	80 83       	st	Z, r24
     a9c:	92 01       	movw	r18, r4
     a9e:	2f 5f       	subi	r18, 0xFF	; 255
     aa0:	3f 4f       	sbci	r19, 0xFF	; 255
     aa2:	29 01       	movw	r4, r18
c:\users\admin\documents\arduino\libraries\libprintf\extras\printf/printf.c:639
    else if (flags & FLAGS_SPACE) {
      buf[len++] = ' ';
    }
  }

  return out_rev_(out, buffer, idx, maxlen, buf, len, width, flags);
     aa4:	ce ac       	ldd	r12, Y+62	; 0x3e
     aa6:	df ac       	ldd	r13, Y+63	; 0x3f
     aa8:	ec ac       	ldd	r14, Y+60	; 0x3c
     aaa:	fd ac       	ldd	r15, Y+61	; 0x3d
     aac:	82 01       	movw	r16, r4
     aae:	22 96       	adiw	r28, 0x02	; 2
     ab0:	2e ad       	ldd	r18, Y+62	; 0x3e
     ab2:	3f ad       	ldd	r19, Y+63	; 0x3f
     ab4:	22 97       	sbiw	r28, 0x02	; 2
     ab6:	48 ad       	ldd	r20, Y+56	; 0x38
     ab8:	59 ad       	ldd	r21, Y+57	; 0x39
     aba:	6e a9       	ldd	r22, Y+54	; 0x36
     abc:	7f a9       	ldd	r23, Y+55	; 0x37
     abe:	8c a9       	ldd	r24, Y+52	; 0x34
     ac0:	9d a9       	ldd	r25, Y+53	; 0x35
     ac2:	0e 94 bb 01 	call	0x376	; 0x376 <out_rev_(void (*)(char, void*, unsigned int, unsigned int), char*, unsigned int, unsigned int, char const*, unsigned int, unsigned int, unsigned int) [clone .constprop.46]>
c:\users\admin\documents\arduino\libraries\libprintf\extras\printf/printf.c:640
}
     ac6:	6e 96       	adiw	r28, 0x1e	; 30
     ac8:	0f b6       	in	r0, 0x3f	; 63
     aca:	f8 94       	cli
     acc:	de bf       	out	0x3e, r29	; 62
     ace:	0f be       	out	0x3f, r0	; 63
     ad0:	cd bf       	out	0x3d, r28	; 61
     ad2:	df 91       	pop	r29
     ad4:	cf 91       	pop	r28
     ad6:	1f 91       	pop	r17
     ad8:	0f 91       	pop	r16
     ada:	ff 90       	pop	r15
     adc:	ef 90       	pop	r14
     ade:	df 90       	pop	r13
     ae0:	cf 90       	pop	r12
     ae2:	bf 90       	pop	r11
     ae4:	af 90       	pop	r10
     ae6:	9f 90       	pop	r9
     ae8:	8f 90       	pop	r8
     aea:	7f 90       	pop	r7
     aec:	6f 90       	pop	r6
     aee:	5f 90       	pop	r5
     af0:	4f 90       	pop	r4
     af2:	3f 90       	pop	r3
     af4:	2f 90       	pop	r2
     af6:	08 95       	ret
c:\users\admin\documents\arduino\libraries\libprintf\extras\printf/printf.c:631

  if (len < PRINTF_FTOA_BUFFER_SIZE) {
    if (number_.is_negative) {
      buf[len++] = '-';
    }
    else if (flags & FLAGS_PLUS) {
     af8:	3e ad       	ldd	r19, Y+62	; 0x3e
     afa:	32 ff       	sbrs	r19, 2
     afc:	0c c0       	rjmp	.+24     	; 0xb16 <print_broken_up_decimal(double_components, void (*)(char, void*, unsigned int, unsigned int), char*, unsigned int, unsigned int, unsigned int, unsigned int, unsigned int, char*, unsigned int) [clone .constprop.43]+0x32e>
c:\users\admin\documents\arduino\libraries\libprintf\extras\printf/printf.c:632
      buf[len++] = '+';  // ignore the space if the '+' exists
     afe:	22 96       	adiw	r28, 0x02	; 2
     b00:	ee ad       	ldd	r30, Y+62	; 0x3e
     b02:	ff ad       	ldd	r31, Y+63	; 0x3f
     b04:	22 97       	sbiw	r28, 0x02	; 2
     b06:	e4 0d       	add	r30, r4
     b08:	f5 1d       	adc	r31, r5
     b0a:	8b e2       	ldi	r24, 0x2B	; 43
     b0c:	80 83       	st	Z, r24
     b0e:	c2 01       	movw	r24, r4
     b10:	01 96       	adiw	r24, 0x01	; 1
     b12:	2c 01       	movw	r4, r24
     b14:	c7 cf       	rjmp	.-114    	; 0xaa4 <print_broken_up_decimal(double_components, void (*)(char, void*, unsigned int, unsigned int), char*, unsigned int, unsigned int, unsigned int, unsigned int, unsigned int, char*, unsigned int) [clone .constprop.43]+0x2bc>
c:\users\admin\documents\arduino\libraries\libprintf\extras\printf/printf.c:634
    }
    else if (flags & FLAGS_SPACE) {
     b16:	9e ad       	ldd	r25, Y+62	; 0x3e
     b18:	93 ff       	sbrs	r25, 3
     b1a:	c4 cf       	rjmp	.-120    	; 0xaa4 <print_broken_up_decimal(double_components, void (*)(char, void*, unsigned int, unsigned int), char*, unsigned int, unsigned int, unsigned int, unsigned int, unsigned int, char*, unsigned int) [clone .constprop.43]+0x2bc>
c:\users\admin\documents\arduino\libraries\libprintf\extras\printf/printf.c:635
      buf[len++] = ' ';
     b1c:	22 96       	adiw	r28, 0x02	; 2
     b1e:	ee ad       	ldd	r30, Y+62	; 0x3e
     b20:	ff ad       	ldd	r31, Y+63	; 0x3f
     b22:	22 97       	sbiw	r28, 0x02	; 2
     b24:	e4 0d       	add	r30, r4
     b26:	f5 1d       	adc	r31, r5
     b28:	80 e2       	ldi	r24, 0x20	; 32
     b2a:	80 83       	st	Z, r24
     b2c:	f2 01       	movw	r30, r4
     b2e:	31 96       	adiw	r30, 0x01	; 1
     b30:	2f 01       	movw	r4, r30
     b32:	b8 cf       	rjmp	.-144    	; 0xaa4 <print_broken_up_decimal(double_components, void (*)(char, void*, unsigned int, unsigned int), char*, unsigned int, unsigned int, unsigned int, unsigned int, unsigned int, char*, unsigned int) [clone .constprop.43]+0x2bc>
c:\users\admin\documents\arduino\libraries\libprintf\extras\printf/printf.c:596
      // add extra 0s
      while ((len < PRINTF_FTOA_BUFFER_SIZE) && (count-- > 0U)) {
        buf[len++] = '0';
      }
      if (len < PRINTF_FTOA_BUFFER_SIZE) {
        buf[len++] = '.';
     b34:	8e e2       	ldi	r24, 0x2E	; 46
     b36:	80 83       	st	Z, r24
     b38:	3c cf       	rjmp	.-392    	; 0x9b2 <print_broken_up_decimal(double_components, void (*)(char, void*, unsigned int, unsigned int), char*, unsigned int, unsigned int, unsigned int, unsigned int, unsigned int, char*, unsigned int) [clone .constprop.43]+0x1ca>

00000b3a <turnOffPWM>:
turnOffPWM():
C:\Users\admin\AppData\Local\Arduino15\packages\MegaCore\hardware\avr\3.0.0\cores\MCUdude_corefiles/wiring_digital.c:77
//
//static inline void turnOffPWM(uint8_t timer) __attribute__ ((always_inline));
//static inline void turnOffPWM(uint8_t timer)
static void turnOffPWM(uint8_t timer)
{
  switch (timer)
     b3a:	82 50       	subi	r24, 0x02	; 2
     b3c:	82 31       	cpi	r24, 0x12	; 18
     b3e:	08 f0       	brcs	.+2      	; 0xb42 <turnOffPWM+0x8>
     b40:	5f c0       	rjmp	.+190    	; 0xc00 <turnOffPWM+0xc6>
     b42:	e8 2f       	mov	r30, r24
     b44:	f0 e0       	ldi	r31, 0x00	; 0
     b46:	88 27       	eor	r24, r24
     b48:	e7 55       	subi	r30, 0x57	; 87
     b4a:	fa 4f       	sbci	r31, 0xFA	; 250
     b4c:	8f 4f       	sbci	r24, 0xFF	; 255
     b4e:	0c 94 ca 27 	jmp	0x4f94	; 0x4f94 <__tablejump2__>
     b52:	fd 05       	cpc	r31, r13
     b54:	01 06       	cpc	r0, r17
     b56:	bb 05       	cpc	r27, r11
     b58:	c1 05       	cpc	r28, r1
     b5a:	c5 05       	cpc	r28, r5
     b5c:	00 06       	cpc	r0, r16
     b5e:	c9 05       	cpc	r28, r9
     b60:	cf 05       	cpc	r28, r15
     b62:	d3 05       	cpc	r29, r3
     b64:	d9 05       	cpc	r29, r9
     b66:	dd 05       	cpc	r29, r13
     b68:	e1 05       	cpc	r30, r1
     b6a:	e7 05       	cpc	r30, r7
     b6c:	eb 05       	cpc	r30, r11
     b6e:	00 06       	cpc	r0, r16
     b70:	ef 05       	cpc	r30, r15
     b72:	f5 05       	cpc	r31, r5
     b74:	f9 05       	cpc	r31, r9
C:\Users\admin\AppData\Local\Arduino15\packages\MegaCore\hardware\avr\3.0.0\cores\MCUdude_corefiles/wiring_digital.c:82
  {
    // Timer1
    #if defined(TCCR1A) && defined(COM1A1)
      case TIMER1A:
        TCCR1A &= ~_BV(COM1A1);
     b76:	80 91 80 00 	lds	r24, 0x0080	; 0x800080 <__TEXT_REGION_LENGTH__+0x700080>
     b7a:	8f 77       	andi	r24, 0x7F	; 127
C:\Users\admin\AppData\Local\Arduino15\packages\MegaCore\hardware\avr\3.0.0\cores\MCUdude_corefiles/wiring_digital.c:87
        break;
    #endif
    #if defined(TCCR1A) && defined(COM1B1)
      case TIMER1B:
        TCCR1A &= ~_BV(COM1B1);
     b7c:	80 93 80 00 	sts	0x0080, r24	; 0x800080 <__TEXT_REGION_LENGTH__+0x700080>
     b80:	08 95       	ret
     b82:	80 91 80 00 	lds	r24, 0x0080	; 0x800080 <__TEXT_REGION_LENGTH__+0x700080>
     b86:	8f 7d       	andi	r24, 0xDF	; 223
     b88:	f9 cf       	rjmp	.-14     	; 0xb7c <turnOffPWM+0x42>
C:\Users\admin\AppData\Local\Arduino15\packages\MegaCore\hardware\avr\3.0.0\cores\MCUdude_corefiles/wiring_digital.c:92
        break;
    #endif
    #if defined(TCCR1A) && defined(COM1C1)
      case TIMER1C:
        TCCR1A &= ~_BV(COM1C1);
     b8a:	80 91 80 00 	lds	r24, 0x0080	; 0x800080 <__TEXT_REGION_LENGTH__+0x700080>
     b8e:	87 7f       	andi	r24, 0xF7	; 247
     b90:	f5 cf       	rjmp	.-22     	; 0xb7c <turnOffPWM+0x42>
C:\Users\admin\AppData\Local\Arduino15\packages\MegaCore\hardware\avr\3.0.0\cores\MCUdude_corefiles/wiring_digital.c:104
        TCCR2 &= ~_BV(COM21);
        break;
    #endif
    #if defined(TCCR2A) && defined(COM2A1)
      case TIMER2A:
        TCCR2A &= ~_BV(COM2A1);
     b92:	80 91 b0 00 	lds	r24, 0x00B0	; 0x8000b0 <__TEXT_REGION_LENGTH__+0x7000b0>
     b96:	8f 77       	andi	r24, 0x7F	; 127
C:\Users\admin\AppData\Local\Arduino15\packages\MegaCore\hardware\avr\3.0.0\cores\MCUdude_corefiles/wiring_digital.c:109
        break;
    #endif
    #if defined(TCCR2A) && defined(COM2B1)
      case TIMER2B:
        TCCR2A &= ~_BV(COM2B1);
     b98:	80 93 b0 00 	sts	0x00B0, r24	; 0x8000b0 <__TEXT_REGION_LENGTH__+0x7000b0>
     b9c:	08 95       	ret
     b9e:	80 91 b0 00 	lds	r24, 0x00B0	; 0x8000b0 <__TEXT_REGION_LENGTH__+0x7000b0>
     ba2:	8f 7d       	andi	r24, 0xDF	; 223
     ba4:	f9 cf       	rjmp	.-14     	; 0xb98 <turnOffPWM+0x5e>
C:\Users\admin\AppData\Local\Arduino15\packages\MegaCore\hardware\avr\3.0.0\cores\MCUdude_corefiles/wiring_digital.c:116
    #endif

    // Timer3
    #if defined(TCCR3A) && defined(COM3A1)
      case TIMER3A:
        TCCR3A &= ~_BV(COM3A1);
     ba6:	80 91 90 00 	lds	r24, 0x0090	; 0x800090 <__TEXT_REGION_LENGTH__+0x700090>
     baa:	8f 77       	andi	r24, 0x7F	; 127
C:\Users\admin\AppData\Local\Arduino15\packages\MegaCore\hardware\avr\3.0.0\cores\MCUdude_corefiles/wiring_digital.c:126
        TCCR3A &= ~_BV(COM3B1);
        break;
    #endif
    #if defined(TCCR3A) && defined(COM3C1)
      case TIMER3C:
        TCCR3A &= ~_BV(COM3C1);
     bac:	80 93 90 00 	sts	0x0090, r24	; 0x800090 <__TEXT_REGION_LENGTH__+0x700090>
     bb0:	08 95       	ret
C:\Users\admin\AppData\Local\Arduino15\packages\MegaCore\hardware\avr\3.0.0\cores\MCUdude_corefiles/wiring_digital.c:121
        TCCR3A &= ~_BV(COM3A1);
        break;
    #endif
    #if defined(TCCR3A) && defined(COM3B1)
      case TIMER3B:
        TCCR3A &= ~_BV(COM3B1);
     bb2:	80 91 90 00 	lds	r24, 0x0090	; 0x800090 <__TEXT_REGION_LENGTH__+0x700090>
     bb6:	8f 7d       	andi	r24, 0xDF	; 223
     bb8:	f9 cf       	rjmp	.-14     	; 0xbac <turnOffPWM+0x72>
C:\Users\admin\AppData\Local\Arduino15\packages\MegaCore\hardware\avr\3.0.0\cores\MCUdude_corefiles/wiring_digital.c:126
        break;
    #endif
    #if defined(TCCR3A) && defined(COM3C1)
      case TIMER3C:
        TCCR3A &= ~_BV(COM3C1);
     bba:	80 91 90 00 	lds	r24, 0x0090	; 0x800090 <__TEXT_REGION_LENGTH__+0x700090>
     bbe:	87 7f       	andi	r24, 0xF7	; 247
     bc0:	f5 cf       	rjmp	.-22     	; 0xbac <turnOffPWM+0x72>
C:\Users\admin\AppData\Local\Arduino15\packages\MegaCore\hardware\avr\3.0.0\cores\MCUdude_corefiles/wiring_digital.c:133
    #endif

    // Timer4
    #if defined(TCCR4A) && defined(COM4A1)
      case TIMER4A:
        TCCR4A &= ~_BV(COM4A1);
     bc2:	80 91 a0 00 	lds	r24, 0x00A0	; 0x8000a0 <__TEXT_REGION_LENGTH__+0x7000a0>
     bc6:	8f 77       	andi	r24, 0x7F	; 127
C:\Users\admin\AppData\Local\Arduino15\packages\MegaCore\hardware\avr\3.0.0\cores\MCUdude_corefiles/wiring_digital.c:143
        TCCR4A &= ~_BV(COM4B1);
        break;
    #endif
    #if defined(TCCR4A) && defined(COM4C1)
      case TIMER4C:
        TCCR4A &= ~_BV(COM4C1);
     bc8:	80 93 a0 00 	sts	0x00A0, r24	; 0x8000a0 <__TEXT_REGION_LENGTH__+0x7000a0>
     bcc:	08 95       	ret
C:\Users\admin\AppData\Local\Arduino15\packages\MegaCore\hardware\avr\3.0.0\cores\MCUdude_corefiles/wiring_digital.c:138
        TCCR4A &= ~_BV(COM4A1);
        break;
    #endif
    #if defined(TCCR4A) && defined(COM4B1)
      case  TIMER4B:
        TCCR4A &= ~_BV(COM4B1);
     bce:	80 91 a0 00 	lds	r24, 0x00A0	; 0x8000a0 <__TEXT_REGION_LENGTH__+0x7000a0>
     bd2:	8f 7d       	andi	r24, 0xDF	; 223
     bd4:	f9 cf       	rjmp	.-14     	; 0xbc8 <turnOffPWM+0x8e>
C:\Users\admin\AppData\Local\Arduino15\packages\MegaCore\hardware\avr\3.0.0\cores\MCUdude_corefiles/wiring_digital.c:143
        break;
    #endif
    #if defined(TCCR4A) && defined(COM4C1)
      case TIMER4C:
        TCCR4A &= ~_BV(COM4C1);
     bd6:	80 91 a0 00 	lds	r24, 0x00A0	; 0x8000a0 <__TEXT_REGION_LENGTH__+0x7000a0>
     bda:	87 7f       	andi	r24, 0xF7	; 247
     bdc:	f5 cf       	rjmp	.-22     	; 0xbc8 <turnOffPWM+0x8e>
C:\Users\admin\AppData\Local\Arduino15\packages\MegaCore\hardware\avr\3.0.0\cores\MCUdude_corefiles/wiring_digital.c:155
    #endif

    // Timer5
    #if defined(TCCR5A)
      case TIMER5A:
        TCCR5A &= ~_BV(COM5A1);
     bde:	80 91 20 01 	lds	r24, 0x0120	; 0x800120 <__TEXT_REGION_LENGTH__+0x700120>
     be2:	8f 77       	andi	r24, 0x7F	; 127
C:\Users\admin\AppData\Local\Arduino15\packages\MegaCore\hardware\avr\3.0.0\cores\MCUdude_corefiles/wiring_digital.c:161
        break;
      case TIMER5B:
        TCCR5A &= ~_BV(COM5B1);
        break;
      case TIMER5C:
        TCCR5A &= ~_BV(COM5C1);
     be4:	80 93 20 01 	sts	0x0120, r24	; 0x800120 <__TEXT_REGION_LENGTH__+0x700120>
     be8:	08 95       	ret
C:\Users\admin\AppData\Local\Arduino15\packages\MegaCore\hardware\avr\3.0.0\cores\MCUdude_corefiles/wiring_digital.c:158
    #if defined(TCCR5A)
      case TIMER5A:
        TCCR5A &= ~_BV(COM5A1);
        break;
      case TIMER5B:
        TCCR5A &= ~_BV(COM5B1);
     bea:	80 91 20 01 	lds	r24, 0x0120	; 0x800120 <__TEXT_REGION_LENGTH__+0x700120>
     bee:	8f 7d       	andi	r24, 0xDF	; 223
     bf0:	f9 cf       	rjmp	.-14     	; 0xbe4 <turnOffPWM+0xaa>
C:\Users\admin\AppData\Local\Arduino15\packages\MegaCore\hardware\avr\3.0.0\cores\MCUdude_corefiles/wiring_digital.c:161
        break;
      case TIMER5C:
        TCCR5A &= ~_BV(COM5C1);
     bf2:	80 91 20 01 	lds	r24, 0x0120	; 0x800120 <__TEXT_REGION_LENGTH__+0x700120>
     bf6:	87 7f       	andi	r24, 0xF7	; 247
     bf8:	f5 cf       	rjmp	.-22     	; 0xbe4 <turnOffPWM+0xaa>
C:\Users\admin\AppData\Local\Arduino15\packages\MegaCore\hardware\avr\3.0.0\cores\MCUdude_corefiles/wiring_digital.c:176
        TCCR0 &= ~_BV(COM01);
        break;
    #endif
    #if defined(TCCR0A) && defined(COM0A1)
      case TIMER0A:
        TCCR0A &= ~_BV(COM0A1);
     bfa:	84 b5       	in	r24, 0x24	; 36
     bfc:	8f 77       	andi	r24, 0x7F	; 127
C:\Users\admin\AppData\Local\Arduino15\packages\MegaCore\hardware\avr\3.0.0\cores\MCUdude_corefiles/wiring_digital.c:181
        break;
    #endif
    #if defined(TCCR0A) && defined(COM0B1)
      case TIMER0B:
        TCCR0A &= ~_BV(COM0B1);
     bfe:	84 bd       	out	0x24, r24	; 36
C:\Users\admin\AppData\Local\Arduino15\packages\MegaCore\hardware\avr\3.0.0\cores\MCUdude_corefiles/wiring_digital.c:185
        break;
    #endif
  }
}
     c00:	08 95       	ret
C:\Users\admin\AppData\Local\Arduino15\packages\MegaCore\hardware\avr\3.0.0\cores\MCUdude_corefiles/wiring_digital.c:181
        TCCR0A &= ~_BV(COM0A1);
        break;
    #endif
    #if defined(TCCR0A) && defined(COM0B1)
      case TIMER0B:
        TCCR0A &= ~_BV(COM0B1);
     c02:	84 b5       	in	r24, 0x24	; 36
     c04:	8f 7d       	andi	r24, 0xDF	; 223
     c06:	fb cf       	rjmp	.-10     	; 0xbfe <turnOffPWM+0xc4>

00000c08 <digitalRead>:
digitalRead():
C:\Users\admin\AppData\Local\Arduino15\packages\MegaCore\hardware\avr\3.0.0\cores\MCUdude_corefiles/wiring_digital.c:215

  SREG = oldSREG;
}

int digitalRead(uint8_t pin)
{
     c08:	cf 93       	push	r28
     c0a:	df 93       	push	r29
C:\Users\admin\AppData\Local\Arduino15\packages\MegaCore\hardware\avr\3.0.0\cores\MCUdude_corefiles/wiring_digital.c:216
  uint8_t timer = digitalPinToTimer(pin);
     c0c:	28 2f       	mov	r18, r24
     c0e:	30 e0       	ldi	r19, 0x00	; 0
     c10:	f9 01       	movw	r30, r18
     c12:	ea 58       	subi	r30, 0x8A	; 138
     c14:	fe 4f       	sbci	r31, 0xFE	; 254
     c16:	84 91       	lpm	r24, Z
C:\Users\admin\AppData\Local\Arduino15\packages\MegaCore\hardware\avr\3.0.0\cores\MCUdude_corefiles/wiring_digital.c:217
  uint8_t bit = digitalPinToBitMask(pin);
     c18:	f9 01       	movw	r30, r18
     c1a:	ea 51       	subi	r30, 0x1A	; 26
     c1c:	fe 4f       	sbci	r31, 0xFE	; 254
     c1e:	d4 91       	lpm	r29, Z
C:\Users\admin\AppData\Local\Arduino15\packages\MegaCore\hardware\avr\3.0.0\cores\MCUdude_corefiles/wiring_digital.c:218
  uint8_t port = digitalPinToPort(pin);
     c20:	f9 01       	movw	r30, r18
     c22:	ea 5a       	subi	r30, 0xAA	; 170
     c24:	fd 4f       	sbci	r31, 0xFD	; 253
     c26:	c4 91       	lpm	r28, Z
C:\Users\admin\AppData\Local\Arduino15\packages\MegaCore\hardware\avr\3.0.0\cores\MCUdude_corefiles/wiring_digital.c:220

  if (port == NOT_A_PIN) return LOW;
     c28:	cc 23       	and	r28, r28
     c2a:	a1 f0       	breq	.+40     	; 0xc54 <digitalRead+0x4c>
C:\Users\admin\AppData\Local\Arduino15\packages\MegaCore\hardware\avr\3.0.0\cores\MCUdude_corefiles/wiring_digital.c:224

  // If the pin that support PWM output, we need to turn it off
  // before getting a digital reading.
  if (timer != NOT_ON_TIMER) turnOffPWM(timer);
     c2c:	81 11       	cpse	r24, r1
     c2e:	0e 94 9d 05 	call	0xb3a	; 0xb3a <turnOffPWM>
C:\Users\admin\AppData\Local\Arduino15\packages\MegaCore\hardware\avr\3.0.0\cores\MCUdude_corefiles/wiring_digital.c:226

  if (*portInputRegister(port) & bit) return HIGH;
     c32:	ec 2f       	mov	r30, r28
     c34:	f0 e0       	ldi	r31, 0x00	; 0
     c36:	ee 0f       	add	r30, r30
     c38:	ff 1f       	adc	r31, r31
     c3a:	e4 53       	subi	r30, 0x34	; 52
     c3c:	fe 4f       	sbci	r31, 0xFE	; 254
     c3e:	a5 91       	lpm	r26, Z+
     c40:	b4 91       	lpm	r27, Z
     c42:	ec 91       	ld	r30, X
     c44:	ed 23       	and	r30, r29
     c46:	81 e0       	ldi	r24, 0x01	; 1
     c48:	90 e0       	ldi	r25, 0x00	; 0
     c4a:	09 f4       	brne	.+2      	; 0xc4e <digitalRead+0x46>
     c4c:	80 e0       	ldi	r24, 0x00	; 0
C:\Users\admin\AppData\Local\Arduino15\packages\MegaCore\hardware\avr\3.0.0\cores\MCUdude_corefiles/wiring_digital.c:228
  return LOW;
}
     c4e:	df 91       	pop	r29
     c50:	cf 91       	pop	r28
     c52:	08 95       	ret
C:\Users\admin\AppData\Local\Arduino15\packages\MegaCore\hardware\avr\3.0.0\cores\MCUdude_corefiles/wiring_digital.c:220
{
  uint8_t timer = digitalPinToTimer(pin);
  uint8_t bit = digitalPinToBitMask(pin);
  uint8_t port = digitalPinToPort(pin);

  if (port == NOT_A_PIN) return LOW;
     c54:	80 e0       	ldi	r24, 0x00	; 0
     c56:	90 e0       	ldi	r25, 0x00	; 0
     c58:	fa cf       	rjmp	.-12     	; 0xc4e <digitalRead+0x46>

00000c5a <digitalWrite>:
digitalWrite():
C:\Users\admin\AppData\Local\Arduino15\packages\MegaCore\hardware\avr\3.0.0\cores\MCUdude_corefiles/wiring_digital.c:188
    #endif
  }
}

void digitalWrite(uint8_t pin, uint8_t val)
{
     c5a:	1f 93       	push	r17
     c5c:	cf 93       	push	r28
     c5e:	df 93       	push	r29
C:\Users\admin\AppData\Local\Arduino15\packages\MegaCore\hardware\avr\3.0.0\cores\MCUdude_corefiles/wiring_digital.c:189
  uint8_t timer = digitalPinToTimer(pin);
     c60:	28 2f       	mov	r18, r24
     c62:	30 e0       	ldi	r19, 0x00	; 0
     c64:	f9 01       	movw	r30, r18
     c66:	ea 58       	subi	r30, 0x8A	; 138
     c68:	fe 4f       	sbci	r31, 0xFE	; 254
     c6a:	84 91       	lpm	r24, Z
C:\Users\admin\AppData\Local\Arduino15\packages\MegaCore\hardware\avr\3.0.0\cores\MCUdude_corefiles/wiring_digital.c:190
  uint8_t bit = digitalPinToBitMask(pin);
     c6c:	f9 01       	movw	r30, r18
     c6e:	ea 51       	subi	r30, 0x1A	; 26
     c70:	fe 4f       	sbci	r31, 0xFE	; 254
     c72:	d4 91       	lpm	r29, Z
C:\Users\admin\AppData\Local\Arduino15\packages\MegaCore\hardware\avr\3.0.0\cores\MCUdude_corefiles/wiring_digital.c:191
  uint8_t port = digitalPinToPort(pin);
     c74:	f9 01       	movw	r30, r18
     c76:	ea 5a       	subi	r30, 0xAA	; 170
     c78:	fd 4f       	sbci	r31, 0xFD	; 253
     c7a:	c4 91       	lpm	r28, Z
C:\Users\admin\AppData\Local\Arduino15\packages\MegaCore\hardware\avr\3.0.0\cores\MCUdude_corefiles/wiring_digital.c:194
  volatile uint8_t *out;

  if (port == NOT_A_PIN) return;
     c7c:	cc 23       	and	r28, r28
     c7e:	a9 f0       	breq	.+42     	; 0xcaa <digitalWrite+0x50>
     c80:	16 2f       	mov	r17, r22
C:\Users\admin\AppData\Local\Arduino15\packages\MegaCore\hardware\avr\3.0.0\cores\MCUdude_corefiles/wiring_digital.c:198

  // If the pin that support PWM output, we need to turn it off
  // before doing a digital write.
  if (timer != NOT_ON_TIMER) turnOffPWM(timer);
     c82:	81 11       	cpse	r24, r1
     c84:	0e 94 9d 05 	call	0xb3a	; 0xb3a <turnOffPWM>
C:\Users\admin\AppData\Local\Arduino15\packages\MegaCore\hardware\avr\3.0.0\cores\MCUdude_corefiles/wiring_digital.c:200

  out = portOutputRegister(port);
     c88:	ec 2f       	mov	r30, r28
     c8a:	f0 e0       	ldi	r31, 0x00	; 0
     c8c:	ee 0f       	add	r30, r30
     c8e:	ff 1f       	adc	r31, r31
     c90:	e4 5c       	subi	r30, 0xC4	; 196
     c92:	fd 4f       	sbci	r31, 0xFD	; 253
     c94:	a5 91       	lpm	r26, Z+
     c96:	b4 91       	lpm	r27, Z
C:\Users\admin\AppData\Local\Arduino15\packages\MegaCore\hardware\avr\3.0.0\cores\MCUdude_corefiles/wiring_digital.c:202

  uint8_t oldSREG = SREG;
     c98:	8f b7       	in	r24, 0x3f	; 63
C:\Users\admin\AppData\Local\Arduino15\packages\MegaCore\hardware\avr\3.0.0\cores\MCUdude_corefiles/wiring_digital.c:203
  cli();
     c9a:	f8 94       	cli
C:\Users\admin\AppData\Local\Arduino15\packages\MegaCore\hardware\avr\3.0.0\cores\MCUdude_corefiles/wiring_digital.c:206

  if (val == LOW) {
    *out &= ~bit;
     c9c:	ec 91       	ld	r30, X
C:\Users\admin\AppData\Local\Arduino15\packages\MegaCore\hardware\avr\3.0.0\cores\MCUdude_corefiles/wiring_digital.c:205
  out = portOutputRegister(port);

  uint8_t oldSREG = SREG;
  cli();

  if (val == LOW) {
     c9e:	11 11       	cpse	r17, r1
     ca0:	08 c0       	rjmp	.+16     	; 0xcb2 <digitalWrite+0x58>
C:\Users\admin\AppData\Local\Arduino15\packages\MegaCore\hardware\avr\3.0.0\cores\MCUdude_corefiles/wiring_digital.c:206
    *out &= ~bit;
     ca2:	d0 95       	com	r29
     ca4:	de 23       	and	r29, r30
C:\Users\admin\AppData\Local\Arduino15\packages\MegaCore\hardware\avr\3.0.0\cores\MCUdude_corefiles/wiring_digital.c:208
  } else {
    *out |= bit;
     ca6:	dc 93       	st	X, r29
C:\Users\admin\AppData\Local\Arduino15\packages\MegaCore\hardware\avr\3.0.0\cores\MCUdude_corefiles/wiring_digital.c:211
  }

  SREG = oldSREG;
     ca8:	8f bf       	out	0x3f, r24	; 63
C:\Users\admin\AppData\Local\Arduino15\packages\MegaCore\hardware\avr\3.0.0\cores\MCUdude_corefiles/wiring_digital.c:212
}
     caa:	df 91       	pop	r29
     cac:	cf 91       	pop	r28
     cae:	1f 91       	pop	r17
     cb0:	08 95       	ret
C:\Users\admin\AppData\Local\Arduino15\packages\MegaCore\hardware\avr\3.0.0\cores\MCUdude_corefiles/wiring_digital.c:208
  cli();

  if (val == LOW) {
    *out &= ~bit;
  } else {
    *out |= bit;
     cb2:	de 2b       	or	r29, r30
     cb4:	f8 cf       	rjmp	.-16     	; 0xca6 <digitalWrite+0x4c>

00000cb6 <Adafruit_SPIDevice::endTransactionWithDeassertingCS() [clone .constprop.35]>:
_ZN18Adafruit_SPIDevice31endTransactionWithDeassertingCSEv.constprop.35():
c:\Users\admin\Documents\Arduino\libraries\Adafruit_BusIO/Adafruit_SPIDevice.cpp:307
/*!
 *    @brief  Assert/Deassert the CS pin if it is defined
 *    @param  value The state the CS is set to
 */
void Adafruit_SPIDevice::setChipSelect(int value) {
  if (_cs != -1) {
     cb6:	80 91 8b 05 	lds	r24, 0x058B	; 0x80058b <tempSensor+0xb>
     cba:	8f 3f       	cpi	r24, 0xFF	; 255
     cbc:	19 f0       	breq	.+6      	; 0xcc4 <Adafruit_SPIDevice::endTransactionWithDeassertingCS() [clone .constprop.35]+0xe>
c:\Users\admin\Documents\Arduino\libraries\Adafruit_BusIO/Adafruit_SPIDevice.cpp:308
    digitalWrite(_cs, value);
     cbe:	61 e0       	ldi	r22, 0x01	; 1
     cc0:	0c 94 2d 06 	jmp	0xc5a	; 0xc5a <digitalWrite>
c:\Users\admin\Documents\Arduino\libraries\Adafruit_BusIO/Adafruit_SPIDevice.cpp:330
 *            with deasserting the CS pin
 */
void Adafruit_SPIDevice::endTransactionWithDeassertingCS() {
  setChipSelect(HIGH);
  endTransaction();
}
     cc4:	08 95       	ret

00000cc6 <Adafruit_SPIDevice::beginTransactionWithAssertingCS() [clone .constprop.28]>:
_ZN18Adafruit_SPIDevice31beginTransactionWithAssertingCSEv.constprop.28():
c:\Users\admin\Documents\Arduino\libraries\Adafruit_BusIO/Adafruit_SPIDevice.cpp:284
/*!
 *    @brief  Manually begin a transaction (calls beginTransaction if hardware
 * SPI)
 */
void Adafruit_SPIDevice::beginTransaction(void) {
  if (_spi) {
     cc6:	80 91 80 05 	lds	r24, 0x0580	; 0x800580 <tempSensor>
     cca:	90 91 81 05 	lds	r25, 0x0581	; 0x800581 <tempSensor+0x1>
     cce:	89 2b       	or	r24, r25
     cd0:	41 f0       	breq	.+16     	; 0xce2 <Adafruit_SPIDevice::beginTransactionWithAssertingCS() [clone .constprop.28]+0x1c>
c:\Users\admin\Documents\Arduino\libraries\Adafruit_BusIO/Adafruit_SPIDevice.cpp:286
#ifdef BUSIO_HAS_HW_SPI
    _spi->beginTransaction(*_spiSetting);
     cd2:	e0 91 82 05 	lds	r30, 0x0582	; 0x800582 <tempSensor+0x2>
     cd6:	f0 91 83 05 	lds	r31, 0x0583	; 0x800583 <tempSensor+0x3>
     cda:	90 81       	ld	r25, Z
     cdc:	81 81       	ldd	r24, Z+1	; 0x01
beginTransaction():
C:\Users\admin\AppData\Local\Arduino15\packages\MegaCore\hardware\avr\3.0.0\libraries\SPI\src/SPI.h:206
      digitalWrite(SPI_TRANSACTION_MISMATCH_LED, HIGH);
    }
    inTransactionFlag = 1;
    #endif

    SPCR = settings.spcr;
     cde:	9c bd       	out	0x2c, r25	; 44
C:\Users\admin\AppData\Local\Arduino15\packages\MegaCore\hardware\avr\3.0.0\libraries\SPI\src/SPI.h:207
    SPSR = settings.spsr;
     ce0:	8d bd       	out	0x2d, r24	; 45
setChipSelect():
c:\Users\admin\Documents\Arduino\libraries\Adafruit_BusIO/Adafruit_SPIDevice.cpp:307
/*!
 *    @brief  Assert/Deassert the CS pin if it is defined
 *    @param  value The state the CS is set to
 */
void Adafruit_SPIDevice::setChipSelect(int value) {
  if (_cs != -1) {
     ce2:	80 91 8b 05 	lds	r24, 0x058B	; 0x80058b <tempSensor+0xb>
     ce6:	8f 3f       	cpi	r24, 0xFF	; 255
     ce8:	19 f0       	breq	.+6      	; 0xcf0 <Adafruit_SPIDevice::beginTransactionWithAssertingCS() [clone .constprop.28]+0x2a>
c:\Users\admin\Documents\Arduino\libraries\Adafruit_BusIO/Adafruit_SPIDevice.cpp:308
    digitalWrite(_cs, value);
     cea:	60 e0       	ldi	r22, 0x00	; 0
     cec:	0c 94 2d 06 	jmp	0xc5a	; 0xc5a <digitalWrite>
_ZN18Adafruit_SPIDevice31beginTransactionWithAssertingCSEv.constprop.28():
c:\Users\admin\Documents\Arduino\libraries\Adafruit_BusIO/Adafruit_SPIDevice.cpp:321
 *            SPI) with asserting the CS pin
 */
void Adafruit_SPIDevice::beginTransactionWithAssertingCS() {
  beginTransaction();
  setChipSelect(LOW);
}
     cf0:	08 95       	ret

00000cf2 <pinMode>:
pinMode():
C:\Users\admin\AppData\Local\Arduino15\packages\MegaCore\hardware\avr\3.0.0\cores\MCUdude_corefiles/wiring_digital.c:30
#define ARDUINO_MAIN
#include "wiring_private.h"
#include "pins_arduino.h"

void pinMode(uint8_t pin, uint8_t mode)
{
     cf2:	cf 93       	push	r28
     cf4:	df 93       	push	r29
C:\Users\admin\AppData\Local\Arduino15\packages\MegaCore\hardware\avr\3.0.0\cores\MCUdude_corefiles/wiring_digital.c:31
  uint8_t bit = digitalPinToBitMask(pin);
     cf6:	90 e0       	ldi	r25, 0x00	; 0
     cf8:	fc 01       	movw	r30, r24
     cfa:	ea 51       	subi	r30, 0x1A	; 26
     cfc:	fe 4f       	sbci	r31, 0xFE	; 254
     cfe:	24 91       	lpm	r18, Z
C:\Users\admin\AppData\Local\Arduino15\packages\MegaCore\hardware\avr\3.0.0\cores\MCUdude_corefiles/wiring_digital.c:32
  uint8_t port = digitalPinToPort(pin);
     d00:	8a 5a       	subi	r24, 0xAA	; 170
     d02:	9d 4f       	sbci	r25, 0xFD	; 253
     d04:	fc 01       	movw	r30, r24
     d06:	84 91       	lpm	r24, Z
C:\Users\admin\AppData\Local\Arduino15\packages\MegaCore\hardware\avr\3.0.0\cores\MCUdude_corefiles/wiring_digital.c:35
  volatile uint8_t *reg, *out;

  if (port == NOT_A_PIN) return;
     d08:	88 23       	and	r24, r24
     d0a:	d1 f0       	breq	.+52     	; 0xd40 <pinMode+0x4e>
C:\Users\admin\AppData\Local\Arduino15\packages\MegaCore\hardware\avr\3.0.0\cores\MCUdude_corefiles/wiring_digital.c:38

  // JWS: can I let the optimizer do this?
  reg = portModeRegister(port);
     d0c:	90 e0       	ldi	r25, 0x00	; 0
     d0e:	88 0f       	add	r24, r24
     d10:	99 1f       	adc	r25, r25
     d12:	fc 01       	movw	r30, r24
     d14:	e4 5a       	subi	r30, 0xA4	; 164
     d16:	fe 4f       	sbci	r31, 0xFE	; 254
     d18:	a5 91       	lpm	r26, Z+
     d1a:	b4 91       	lpm	r27, Z
C:\Users\admin\AppData\Local\Arduino15\packages\MegaCore\hardware\avr\3.0.0\cores\MCUdude_corefiles/wiring_digital.c:39
  out = portOutputRegister(port);
     d1c:	fc 01       	movw	r30, r24
     d1e:	e4 5c       	subi	r30, 0xC4	; 196
     d20:	fd 4f       	sbci	r31, 0xFD	; 253
     d22:	c5 91       	lpm	r28, Z+
     d24:	d4 91       	lpm	r29, Z
C:\Users\admin\AppData\Local\Arduino15\packages\MegaCore\hardware\avr\3.0.0\cores\MCUdude_corefiles/wiring_digital.c:41

  if (mode == INPUT) { 
     d26:	61 11       	cpse	r22, r1
     d28:	0e c0       	rjmp	.+28     	; 0xd46 <pinMode+0x54>
C:\Users\admin\AppData\Local\Arduino15\packages\MegaCore\hardware\avr\3.0.0\cores\MCUdude_corefiles/wiring_digital.c:42
    uint8_t oldSREG = SREG;
     d2a:	9f b7       	in	r25, 0x3f	; 63
C:\Users\admin\AppData\Local\Arduino15\packages\MegaCore\hardware\avr\3.0.0\cores\MCUdude_corefiles/wiring_digital.c:43
    cli();
     d2c:	f8 94       	cli
C:\Users\admin\AppData\Local\Arduino15\packages\MegaCore\hardware\avr\3.0.0\cores\MCUdude_corefiles/wiring_digital.c:44
    *reg &= ~bit;
     d2e:	8c 91       	ld	r24, X
     d30:	e2 2f       	mov	r30, r18
     d32:	e0 95       	com	r30
     d34:	8e 23       	and	r24, r30
     d36:	8c 93       	st	X, r24
C:\Users\admin\AppData\Local\Arduino15\packages\MegaCore\hardware\avr\3.0.0\cores\MCUdude_corefiles/wiring_digital.c:45
    *out &= ~bit;
     d38:	28 81       	ld	r18, Y
     d3a:	e2 23       	and	r30, r18
     d3c:	e8 83       	st	Y, r30
C:\Users\admin\AppData\Local\Arduino15\packages\MegaCore\hardware\avr\3.0.0\cores\MCUdude_corefiles/wiring_digital.c:46
    SREG = oldSREG;
     d3e:	9f bf       	out	0x3f, r25	; 63
C:\Users\admin\AppData\Local\Arduino15\packages\MegaCore\hardware\avr\3.0.0\cores\MCUdude_corefiles/wiring_digital.c:59
    uint8_t oldSREG = SREG;
    cli();
    *reg |= bit;
    SREG = oldSREG;
  }
}
     d40:	df 91       	pop	r29
     d42:	cf 91       	pop	r28
     d44:	08 95       	ret
C:\Users\admin\AppData\Local\Arduino15\packages\MegaCore\hardware\avr\3.0.0\cores\MCUdude_corefiles/wiring_digital.c:54
    cli();
    *reg &= ~bit;
    *out |= bit;
    SREG = oldSREG;
  } else {
    uint8_t oldSREG = SREG;
     d46:	8f b7       	in	r24, 0x3f	; 63
C:\Users\admin\AppData\Local\Arduino15\packages\MegaCore\hardware\avr\3.0.0\cores\MCUdude_corefiles/wiring_digital.c:55
    cli();
     d48:	f8 94       	cli
C:\Users\admin\AppData\Local\Arduino15\packages\MegaCore\hardware\avr\3.0.0\cores\MCUdude_corefiles/wiring_digital.c:56
    *reg |= bit;
     d4a:	ec 91       	ld	r30, X
     d4c:	e2 2b       	or	r30, r18
     d4e:	ec 93       	st	X, r30
C:\Users\admin\AppData\Local\Arduino15\packages\MegaCore\hardware\avr\3.0.0\cores\MCUdude_corefiles/wiring_digital.c:57
    SREG = oldSREG;
     d50:	8f bf       	out	0x3f, r24	; 63
     d52:	f6 cf       	rjmp	.-20     	; 0xd40 <pinMode+0x4e>

00000d54 <delayMicroseconds>:
delayMicroseconds():
C:\Users\admin\AppData\Local\Arduino15\packages\MegaCore\hardware\avr\3.0.0\cores\MCUdude_corefiles/wiring.c:619
  us -= 7; // = 2 cycles

#elif F_CPU >= 16000000L
  // for a one-microsecond delay, simply return.  the overhead
  // of the function call takes 14 (16) cycles, which is 1 us
  if (us <= 1) return; //  = 3 cycles, (4 when true)
     d54:	82 30       	cpi	r24, 0x02	; 2
     d56:	91 05       	cpc	r25, r1
     d58:	38 f0       	brcs	.+14     	; 0xd68 <delayMicroseconds+0x14>
C:\Users\admin\AppData\Local\Arduino15\packages\MegaCore\hardware\avr\3.0.0\cores\MCUdude_corefiles/wiring.c:624

  // the following loop takes 1/4 of a microsecond (4 cycles)
  // per iteration, so execute it four times for each microsecond of
  // delay requested.
  us <<= 2; // x4 us, = 4 cycles
     d5a:	88 0f       	add	r24, r24
     d5c:	99 1f       	adc	r25, r25
     d5e:	88 0f       	add	r24, r24
     d60:	99 1f       	adc	r25, r25
C:\Users\admin\AppData\Local\Arduino15\packages\MegaCore\hardware\avr\3.0.0\cores\MCUdude_corefiles/wiring.c:629

  // account for the time taken in the preceeding commands.
  // we just burned 19 (21) cycles above, remove 5, (5*4=20)
  // to 2nd us is at least 8 so we can substract 5
  us -= 5; // = 2 cycles,
     d62:	05 97       	sbiw	r24, 0x05	; 5
C:\Users\admin\AppData\Local\Arduino15\packages\MegaCore\hardware\avr\3.0.0\cores\MCUdude_corefiles/wiring.c:929
  us >>= 2; // us div 4, = 4 cycles

#endif

  // busy wait
  __asm__ __volatile__ (
     d64:	01 97       	sbiw	r24, 0x01	; 1
     d66:	f1 f7       	brne	.-4      	; 0xd64 <delayMicroseconds+0x10>
C:\Users\admin\AppData\Local\Arduino15\packages\MegaCore\hardware\avr\3.0.0\cores\MCUdude_corefiles/wiring.c:939
    "   brne 1b"                     // 2 cycles
    : /* no outputs */
    : "w" (us)
  );
  // return = 4 cycles
}
     d68:	08 95       	ret

00000d6a <Adafruit_SPIDevice::transfer(unsigned char) [clone .constprop.30]>:
_ZN18Adafruit_SPIDevice8transferEh.constprop.30():
c:\Users\admin\Documents\Arduino\libraries\Adafruit_BusIO/Adafruit_SPIDevice.cpp:273
 *    @brief  Transfer (send/receive) one byte over hard/soft SPI, without
 * transaction management
 *    @param  send The byte to send
 *    @return The byte received while transmitting
 */
uint8_t Adafruit_SPIDevice::transfer(uint8_t send) {
     d6a:	cf 92       	push	r12
     d6c:	df 92       	push	r13
     d6e:	ef 92       	push	r14
     d70:	ff 92       	push	r15
     d72:	0f 93       	push	r16
     d74:	1f 93       	push	r17
     d76:	cf 93       	push	r28
     d78:	df 93       	push	r29
transfer():
c:\Users\admin\Documents\Arduino\libraries\Adafruit_BusIO/Adafruit_SPIDevice.cpp:135
 */
void Adafruit_SPIDevice::transfer(uint8_t *buffer, size_t len) {
  //
  // HARDWARE SPI
  //
  if (_spi) {
     d7a:	20 91 80 05 	lds	r18, 0x0580	; 0x800580 <tempSensor>
     d7e:	30 91 81 05 	lds	r19, 0x0581	; 0x800581 <tempSensor+0x1>
     d82:	23 2b       	or	r18, r19
     d84:	79 f0       	breq	.+30     	; 0xda4 <Adafruit_SPIDevice::transfer(unsigned char) [clone .constprop.30]+0x3a>
C:\Users\admin\AppData\Local\Arduino15\packages\MegaCore\hardware\avr\3.0.0\libraries\SPI\src/SPI.h:250
    return out.val;
  }
  inline static void transfer(void *buf, size_t count) {
    if (count == 0) return;
    uint8_t *p = (uint8_t *)buf;
    SPDR = *p;
     d86:	8e bd       	out	0x2e, r24	; 46
C:\Users\admin\AppData\Local\Arduino15\packages\MegaCore\hardware\avr\3.0.0\libraries\SPI\src/SPI.h:258
      while (!(SPSR & _BV(SPIF))) ;
      uint8_t in = SPDR;
      SPDR = out;
      *p++ = in;
    }
    while (!(SPSR & _BV(SPIF))) ;
     d88:	0d b4       	in	r0, 0x2d	; 45
     d8a:	07 fe       	sbrs	r0, 7
     d8c:	fd cf       	rjmp	.-6      	; 0xd88 <Adafruit_SPIDevice::transfer(unsigned char) [clone .constprop.30]+0x1e>
C:\Users\admin\AppData\Local\Arduino15\packages\MegaCore\hardware\avr\3.0.0\libraries\SPI\src/SPI.h:259
    *p = SPDR;
     d8e:	de b4       	in	r13, 0x2e	; 46
_ZN18Adafruit_SPIDevice8transferEh.constprop.30():
c:\Users\admin\Documents\Arduino\libraries\Adafruit_BusIO/Adafruit_SPIDevice.cpp:277
 */
uint8_t Adafruit_SPIDevice::transfer(uint8_t send) {
  uint8_t data = send;
  transfer(&data, 1);
  return data;
}
     d90:	8d 2d       	mov	r24, r13
     d92:	df 91       	pop	r29
     d94:	cf 91       	pop	r28
     d96:	1f 91       	pop	r17
     d98:	0f 91       	pop	r16
     d9a:	ff 90       	pop	r15
     d9c:	ef 90       	pop	r14
     d9e:	df 90       	pop	r13
     da0:	cf 90       	pop	r12
     da2:	08 95       	ret
transfer():
c:\Users\admin\Documents\Arduino\libraries\Adafruit_BusIO/Adafruit_SPIDevice.cpp:154

  //
  // SOFTWARE SPI
  //
  uint8_t startbit;
  if (_dataOrder == SPI_BITORDER_LSBFIRST) {
     da4:	20 91 88 05 	lds	r18, 0x0588	; 0x800588 <tempSensor+0x8>
     da8:	30 91 89 05 	lds	r19, 0x0589	; 0x800589 <tempSensor+0x9>
_ZN18Adafruit_SPIDevice8transferEh.constprop.30():
c:\Users\admin\Documents\Arduino\libraries\Adafruit_BusIO/Adafruit_SPIDevice.cpp:155
    startbit = 0x1;
     dac:	c1 e0       	ldi	r28, 0x01	; 1
transfer():
c:\Users\admin\Documents\Arduino\libraries\Adafruit_BusIO/Adafruit_SPIDevice.cpp:154

  //
  // SOFTWARE SPI
  //
  uint8_t startbit;
  if (_dataOrder == SPI_BITORDER_LSBFIRST) {
     dae:	23 2b       	or	r18, r19
     db0:	09 f0       	breq	.+2      	; 0xdb4 <Adafruit_SPIDevice::transfer(unsigned char) [clone .constprop.30]+0x4a>
_ZN18Adafruit_SPIDevice8transferEh.constprop.30():
c:\Users\admin\Documents\Arduino\libraries\Adafruit_BusIO/Adafruit_SPIDevice.cpp:157
    startbit = 0x1;
  } else {
    startbit = 0x80;
     db2:	c0 e8       	ldi	r28, 0x80	; 128
transfer():
c:\Users\admin\Documents\Arduino\libraries\Adafruit_BusIO/Adafruit_SPIDevice.cpp:160
  }

  bool towrite, lastmosi = !(buffer[0] & startbit);
     db4:	cc 24       	eor	r12, r12
     db6:	c3 94       	inc	r12
     db8:	98 2f       	mov	r25, r24
     dba:	9c 23       	and	r25, r28
     dbc:	09 f0       	breq	.+2      	; 0xdc0 <Adafruit_SPIDevice::transfer(unsigned char) [clone .constprop.30]+0x56>
     dbe:	c1 2c       	mov	r12, r1
     dc0:	d8 2f       	mov	r29, r24
c:\Users\admin\Documents\Arduino\libraries\Adafruit_BusIO/Adafruit_SPIDevice.cpp:161
  uint8_t bitdelay_us = (1000000 / _freq) / 2;
     dc2:	20 91 84 05 	lds	r18, 0x0584	; 0x800584 <tempSensor+0x4>
     dc6:	30 91 85 05 	lds	r19, 0x0585	; 0x800585 <tempSensor+0x5>
     dca:	40 91 86 05 	lds	r20, 0x0586	; 0x800586 <tempSensor+0x6>
     dce:	50 91 87 05 	lds	r21, 0x0587	; 0x800587 <tempSensor+0x7>
     dd2:	60 e2       	ldi	r22, 0x20	; 32
     dd4:	71 ea       	ldi	r23, 0xA1	; 161
     dd6:	87 e0       	ldi	r24, 0x07	; 7
     dd8:	90 e0       	ldi	r25, 0x00	; 0
     dda:	0e 94 a8 27 	call	0x4f50	; 0x4f50 <__udivmodsi4>
     dde:	12 2f       	mov	r17, r18
_ZN18Adafruit_SPIDevice8transferEh.constprop.30():
c:\Users\admin\Documents\Arduino\libraries\Adafruit_BusIO/Adafruit_SPIDevice.cpp:274
 * transaction management
 *    @param  send The byte to send
 *    @return The byte received while transmitting
 */
uint8_t Adafruit_SPIDevice::transfer(uint8_t send) {
  uint8_t data = send;
     de0:	dd 2e       	mov	r13, r29
c:\Users\admin\Documents\Arduino\libraries\Adafruit_BusIO/Adafruit_SPIDevice.cpp:164

  bool towrite, lastmosi = !(buffer[0] & startbit);
  uint8_t bitdelay_us = (1000000 / _freq) / 2;

  for (size_t i = 0; i < len; i++) {
    uint8_t reply = 0;
     de2:	00 e0       	ldi	r16, 0x00	; 0
transfer():
c:\Users\admin\Documents\Arduino\libraries\Adafruit_BusIO/Adafruit_SPIDevice.cpp:178
    // Serial.print(send, HEX);
    for (uint8_t b = startbit; b != 0;
         b = (_dataOrder == SPI_BITORDER_LSBFIRST) ? b << 1 : b >> 1) {

      if (bitdelay_us) {
        delayMicroseconds(bitdelay_us);
     de4:	e2 2e       	mov	r14, r18
     de6:	f1 2c       	mov	r15, r1
c:\Users\admin\Documents\Arduino\libraries\Adafruit_BusIO/Adafruit_SPIDevice.cpp:177

    // Serial.print(send, HEX);
    for (uint8_t b = startbit; b != 0;
         b = (_dataOrder == SPI_BITORDER_LSBFIRST) ? b << 1 : b >> 1) {

      if (bitdelay_us) {
     de8:	11 23       	and	r17, r17
     dea:	19 f0       	breq	.+6      	; 0xdf2 <Adafruit_SPIDevice::transfer(unsigned char) [clone .constprop.30]+0x88>
c:\Users\admin\Documents\Arduino\libraries\Adafruit_BusIO/Adafruit_SPIDevice.cpp:178
        delayMicroseconds(bitdelay_us);
     dec:	c7 01       	movw	r24, r14
     dee:	0e 94 aa 06 	call	0xd54	; 0xd54 <delayMicroseconds>
c:\Users\admin\Documents\Arduino\libraries\Adafruit_BusIO/Adafruit_SPIDevice.cpp:181
      }

      if (_dataMode == SPI_MODE0 || _dataMode == SPI_MODE2) {
     df2:	80 91 8a 05 	lds	r24, 0x058A	; 0x80058a <tempSensor+0xa>
     df6:	87 7f       	andi	r24, 0xF7	; 247
     df8:	09 f0       	breq	.+2      	; 0xdfc <Adafruit_SPIDevice::transfer(unsigned char) [clone .constprop.30]+0x92>
     dfa:	54 c0       	rjmp	.+168    	; 0xea4 <Adafruit_SPIDevice::transfer(unsigned char) [clone .constprop.30]+0x13a>
c:\Users\admin\Documents\Arduino\libraries\Adafruit_BusIO/Adafruit_SPIDevice.cpp:183
        towrite = send & b;
        if ((_mosi != -1) && (lastmosi != towrite)) {
     dfc:	80 91 8d 05 	lds	r24, 0x058D	; 0x80058d <tempSensor+0xd>
     e00:	8f 3f       	cpi	r24, 0xFF	; 255
     e02:	a1 f0       	breq	.+40     	; 0xe2c <Adafruit_SPIDevice::transfer(unsigned char) [clone .constprop.30]+0xc2>
c:\Users\admin\Documents\Arduino\libraries\Adafruit_BusIO/Adafruit_SPIDevice.cpp:182
      if (bitdelay_us) {
        delayMicroseconds(bitdelay_us);
      }

      if (_dataMode == SPI_MODE0 || _dataMode == SPI_MODE2) {
        towrite = send & b;
     e04:	9d 2f       	mov	r25, r29
     e06:	9c 23       	and	r25, r28
     e08:	81 e0       	ldi	r24, 0x01	; 1
     e0a:	09 f4       	brne	.+2      	; 0xe0e <Adafruit_SPIDevice::transfer(unsigned char) [clone .constprop.30]+0xa4>
     e0c:	80 e0       	ldi	r24, 0x00	; 0
c:\Users\admin\Documents\Arduino\libraries\Adafruit_BusIO/Adafruit_SPIDevice.cpp:183
        if ((_mosi != -1) && (lastmosi != towrite)) {
     e0e:	8c 15       	cp	r24, r12
     e10:	69 f0       	breq	.+26     	; 0xe2c <Adafruit_SPIDevice::transfer(unsigned char) [clone .constprop.30]+0xc2>
     e12:	e0 91 8f 05 	lds	r30, 0x058F	; 0x80058f <tempSensor+0xf>
     e16:	f0 91 90 05 	lds	r31, 0x0590	; 0x800590 <tempSensor+0x10>
     e1a:	80 91 97 05 	lds	r24, 0x0597	; 0x800597 <tempSensor+0x17>
c:\Users\admin\Documents\Arduino\libraries\Adafruit_BusIO/Adafruit_SPIDevice.cpp:185
#ifdef BUSIO_USE_FAST_PINIO
          if (towrite)
     e1e:	99 23       	and	r25, r25
     e20:	d9 f1       	breq	.+118    	; 0xe98 <Adafruit_SPIDevice::transfer(unsigned char) [clone .constprop.30]+0x12e>
c:\Users\admin\Documents\Arduino\libraries\Adafruit_BusIO/Adafruit_SPIDevice.cpp:186
            *mosiPort = *mosiPort | mosiPinMask;
     e22:	90 81       	ld	r25, Z
     e24:	89 2b       	or	r24, r25
     e26:	80 83       	st	Z, r24
     e28:	cc 24       	eor	r12, r12
     e2a:	c3 94       	inc	r12
c:\Users\admin\Documents\Arduino\libraries\Adafruit_BusIO/Adafruit_SPIDevice.cpp:196
#endif
          lastmosi = towrite;
        }

#ifdef BUSIO_USE_FAST_PINIO
        *clkPort = *clkPort | clkPinMask; // Clock high
     e2c:	e0 91 91 05 	lds	r30, 0x0591	; 0x800591 <tempSensor+0x11>
     e30:	f0 91 92 05 	lds	r31, 0x0592	; 0x800592 <tempSensor+0x12>
     e34:	80 81       	ld	r24, Z
     e36:	90 91 99 05 	lds	r25, 0x0599	; 0x800599 <tempSensor+0x19>
     e3a:	89 2b       	or	r24, r25
     e3c:	80 83       	st	Z, r24
c:\Users\admin\Documents\Arduino\libraries\Adafruit_BusIO/Adafruit_SPIDevice.cpp:201
#else
        digitalWrite(_sck, HIGH);
#endif

        if (bitdelay_us) {
     e3e:	11 23       	and	r17, r17
     e40:	19 f0       	breq	.+6      	; 0xe48 <Adafruit_SPIDevice::transfer(unsigned char) [clone .constprop.30]+0xde>
c:\Users\admin\Documents\Arduino\libraries\Adafruit_BusIO/Adafruit_SPIDevice.cpp:202
          delayMicroseconds(bitdelay_us);
     e42:	c7 01       	movw	r24, r14
     e44:	0e 94 aa 06 	call	0xd54	; 0xd54 <delayMicroseconds>
c:\Users\admin\Documents\Arduino\libraries\Adafruit_BusIO/Adafruit_SPIDevice.cpp:205
        }

        if (_miso != -1) {
     e48:	80 91 8e 05 	lds	r24, 0x058E	; 0x80058e <tempSensor+0xe>
     e4c:	8f 3f       	cpi	r24, 0xFF	; 255
     e4e:	51 f0       	breq	.+20     	; 0xe64 <Adafruit_SPIDevice::transfer(unsigned char) [clone .constprop.30]+0xfa>
c:\Users\admin\Documents\Arduino\libraries\Adafruit_BusIO/Adafruit_SPIDevice.cpp:207
#ifdef BUSIO_USE_FAST_PINIO
          if (*misoPort & misoPinMask) {
     e50:	e0 91 93 05 	lds	r30, 0x0593	; 0x800593 <tempSensor+0x13>
     e54:	f0 91 94 05 	lds	r31, 0x0594	; 0x800594 <tempSensor+0x14>
     e58:	80 81       	ld	r24, Z
     e5a:	90 91 98 05 	lds	r25, 0x0598	; 0x800598 <tempSensor+0x18>
     e5e:	89 23       	and	r24, r25
     e60:	09 f0       	breq	.+2      	; 0xe64 <Adafruit_SPIDevice::transfer(unsigned char) [clone .constprop.30]+0xfa>
c:\Users\admin\Documents\Arduino\libraries\Adafruit_BusIO/Adafruit_SPIDevice.cpp:211
#else
          if (digitalRead(_miso)) {
#endif
            reply |= b;
     e62:	0c 2b       	or	r16, r28
c:\Users\admin\Documents\Arduino\libraries\Adafruit_BusIO/Adafruit_SPIDevice.cpp:216
          }
        }

#ifdef BUSIO_USE_FAST_PINIO
        *clkPort = *clkPort & ~clkPinMask; // Clock low
     e64:	e0 91 91 05 	lds	r30, 0x0591	; 0x800591 <tempSensor+0x11>
     e68:	f0 91 92 05 	lds	r31, 0x0592	; 0x800592 <tempSensor+0x12>
     e6c:	90 81       	ld	r25, Z
     e6e:	80 91 99 05 	lds	r24, 0x0599	; 0x800599 <tempSensor+0x19>
     e72:	80 95       	com	r24
     e74:	89 23       	and	r24, r25
     e76:	80 83       	st	Z, r24
c:\Users\admin\Documents\Arduino\libraries\Adafruit_BusIO/Adafruit_SPIDevice.cpp:259
#endif
            reply |= b;
          }
        }
      }
      if (_miso != -1) {
     e78:	80 91 8e 05 	lds	r24, 0x058E	; 0x80058e <tempSensor+0xe>
     e7c:	8f 3f       	cpi	r24, 0xFF	; 255
     e7e:	09 f0       	breq	.+2      	; 0xe82 <Adafruit_SPIDevice::transfer(unsigned char) [clone .constprop.30]+0x118>
c:\Users\admin\Documents\Arduino\libraries\Adafruit_BusIO/Adafruit_SPIDevice.cpp:260
        buffer[i] = reply;
     e80:	d0 2e       	mov	r13, r16
c:\Users\admin\Documents\Arduino\libraries\Adafruit_BusIO/Adafruit_SPIDevice.cpp:174
    Serial.print(send, HEX);
    Serial.print(" -> 0x");
    */

    // Serial.print(send, HEX);
    for (uint8_t b = startbit; b != 0;
     e82:	80 91 88 05 	lds	r24, 0x0588	; 0x800588 <tempSensor+0x8>
     e86:	90 91 89 05 	lds	r25, 0x0589	; 0x800589 <tempSensor+0x9>
     e8a:	89 2b       	or	r24, r25
     e8c:	09 f0       	breq	.+2      	; 0xe90 <Adafruit_SPIDevice::transfer(unsigned char) [clone .constprop.30]+0x126>
     e8e:	47 c0       	rjmp	.+142    	; 0xf1e <Adafruit_SPIDevice::transfer(unsigned char) [clone .constprop.30]+0x1b4>
     e90:	cc 0f       	add	r28, r28
     e92:	c1 11       	cpse	r28, r1
     e94:	a9 cf       	rjmp	.-174    	; 0xde8 <Adafruit_SPIDevice::transfer(unsigned char) [clone .constprop.30]+0x7e>
     e96:	7c cf       	rjmp	.-264    	; 0xd90 <Adafruit_SPIDevice::transfer(unsigned char) [clone .constprop.30]+0x26>
c:\Users\admin\Documents\Arduino\libraries\Adafruit_BusIO/Adafruit_SPIDevice.cpp:188
        if ((_mosi != -1) && (lastmosi != towrite)) {
#ifdef BUSIO_USE_FAST_PINIO
          if (towrite)
            *mosiPort = *mosiPort | mosiPinMask;
          else
            *mosiPort = *mosiPort & ~mosiPinMask;
     e98:	90 81       	ld	r25, Z
     e9a:	80 95       	com	r24
     e9c:	89 23       	and	r24, r25
     e9e:	80 83       	st	Z, r24
     ea0:	c1 2c       	mov	r12, r1
     ea2:	c4 cf       	rjmp	.-120    	; 0xe2c <Adafruit_SPIDevice::transfer(unsigned char) [clone .constprop.30]+0xc2>
c:\Users\admin\Documents\Arduino\libraries\Adafruit_BusIO/Adafruit_SPIDevice.cpp:223
        digitalWrite(_sck, LOW);
#endif
      } else { // if (_dataMode == SPI_MODE1 || _dataMode == SPI_MODE3)

#ifdef BUSIO_USE_FAST_PINIO
        *clkPort = *clkPort | clkPinMask; // Clock high
     ea4:	e0 91 91 05 	lds	r30, 0x0591	; 0x800591 <tempSensor+0x11>
     ea8:	f0 91 92 05 	lds	r31, 0x0592	; 0x800592 <tempSensor+0x12>
     eac:	80 81       	ld	r24, Z
     eae:	90 91 99 05 	lds	r25, 0x0599	; 0x800599 <tempSensor+0x19>
     eb2:	89 2b       	or	r24, r25
     eb4:	80 83       	st	Z, r24
c:\Users\admin\Documents\Arduino\libraries\Adafruit_BusIO/Adafruit_SPIDevice.cpp:228
#else
        digitalWrite(_sck, HIGH);
#endif

        if (bitdelay_us) {
     eb6:	11 23       	and	r17, r17
     eb8:	19 f0       	breq	.+6      	; 0xec0 <Adafruit_SPIDevice::transfer(unsigned char) [clone .constprop.30]+0x156>
c:\Users\admin\Documents\Arduino\libraries\Adafruit_BusIO/Adafruit_SPIDevice.cpp:229
          delayMicroseconds(bitdelay_us);
     eba:	c7 01       	movw	r24, r14
     ebc:	0e 94 aa 06 	call	0xd54	; 0xd54 <delayMicroseconds>
c:\Users\admin\Documents\Arduino\libraries\Adafruit_BusIO/Adafruit_SPIDevice.cpp:232
        }

        if (_mosi != -1) {
     ec0:	80 91 8d 05 	lds	r24, 0x058D	; 0x80058d <tempSensor+0xd>
     ec4:	8f 3f       	cpi	r24, 0xFF	; 255
     ec6:	61 f0       	breq	.+24     	; 0xee0 <Adafruit_SPIDevice::transfer(unsigned char) [clone .constprop.30]+0x176>
     ec8:	e0 91 8f 05 	lds	r30, 0x058F	; 0x80058f <tempSensor+0xf>
     ecc:	f0 91 90 05 	lds	r31, 0x0590	; 0x800590 <tempSensor+0x10>
     ed0:	80 91 97 05 	lds	r24, 0x0597	; 0x800597 <tempSensor+0x17>
c:\Users\admin\Documents\Arduino\libraries\Adafruit_BusIO/Adafruit_SPIDevice.cpp:234
#ifdef BUSIO_USE_FAST_PINIO
          if (send & b)
     ed4:	9d 2f       	mov	r25, r29
     ed6:	9c 23       	and	r25, r28
     ed8:	f1 f0       	breq	.+60     	; 0xf16 <Adafruit_SPIDevice::transfer(unsigned char) [clone .constprop.30]+0x1ac>
c:\Users\admin\Documents\Arduino\libraries\Adafruit_BusIO/Adafruit_SPIDevice.cpp:235
            *mosiPort = *mosiPort | mosiPinMask;
     eda:	90 81       	ld	r25, Z
     edc:	89 2b       	or	r24, r25
c:\Users\admin\Documents\Arduino\libraries\Adafruit_BusIO/Adafruit_SPIDevice.cpp:237
          else
            *mosiPort = *mosiPort & ~mosiPinMask;
     ede:	80 83       	st	Z, r24
c:\Users\admin\Documents\Arduino\libraries\Adafruit_BusIO/Adafruit_SPIDevice.cpp:244
          digitalWrite(_mosi, send & b);
#endif
        }

#ifdef BUSIO_USE_FAST_PINIO
        *clkPort = *clkPort & ~clkPinMask; // Clock low
     ee0:	e0 91 91 05 	lds	r30, 0x0591	; 0x800591 <tempSensor+0x11>
     ee4:	f0 91 92 05 	lds	r31, 0x0592	; 0x800592 <tempSensor+0x12>
     ee8:	90 81       	ld	r25, Z
     eea:	80 91 99 05 	lds	r24, 0x0599	; 0x800599 <tempSensor+0x19>
     eee:	80 95       	com	r24
     ef0:	89 23       	and	r24, r25
     ef2:	80 83       	st	Z, r24
c:\Users\admin\Documents\Arduino\libraries\Adafruit_BusIO/Adafruit_SPIDevice.cpp:249
#else
        digitalWrite(_sck, LOW);
#endif

        if (_miso != -1) {
     ef4:	80 91 8e 05 	lds	r24, 0x058E	; 0x80058e <tempSensor+0xe>
     ef8:	8f 3f       	cpi	r24, 0xFF	; 255
     efa:	09 f4       	brne	.+2      	; 0xefe <Adafruit_SPIDevice::transfer(unsigned char) [clone .constprop.30]+0x194>
     efc:	bd cf       	rjmp	.-134    	; 0xe78 <Adafruit_SPIDevice::transfer(unsigned char) [clone .constprop.30]+0x10e>
c:\Users\admin\Documents\Arduino\libraries\Adafruit_BusIO/Adafruit_SPIDevice.cpp:251
#ifdef BUSIO_USE_FAST_PINIO
          if (*misoPort & misoPinMask) {
     efe:	e0 91 93 05 	lds	r30, 0x0593	; 0x800593 <tempSensor+0x13>
     f02:	f0 91 94 05 	lds	r31, 0x0594	; 0x800594 <tempSensor+0x14>
     f06:	80 81       	ld	r24, Z
     f08:	90 91 98 05 	lds	r25, 0x0598	; 0x800598 <tempSensor+0x18>
     f0c:	89 23       	and	r24, r25
     f0e:	09 f4       	brne	.+2      	; 0xf12 <Adafruit_SPIDevice::transfer(unsigned char) [clone .constprop.30]+0x1a8>
     f10:	b3 cf       	rjmp	.-154    	; 0xe78 <Adafruit_SPIDevice::transfer(unsigned char) [clone .constprop.30]+0x10e>
c:\Users\admin\Documents\Arduino\libraries\Adafruit_BusIO/Adafruit_SPIDevice.cpp:255
#else
          if (digitalRead(_miso)) {
#endif
            reply |= b;
     f12:	0c 2b       	or	r16, r28
     f14:	b1 cf       	rjmp	.-158    	; 0xe78 <Adafruit_SPIDevice::transfer(unsigned char) [clone .constprop.30]+0x10e>
c:\Users\admin\Documents\Arduino\libraries\Adafruit_BusIO/Adafruit_SPIDevice.cpp:237
        if (_mosi != -1) {
#ifdef BUSIO_USE_FAST_PINIO
          if (send & b)
            *mosiPort = *mosiPort | mosiPinMask;
          else
            *mosiPort = *mosiPort & ~mosiPinMask;
     f16:	90 81       	ld	r25, Z
     f18:	80 95       	com	r24
     f1a:	89 23       	and	r24, r25
     f1c:	e0 cf       	rjmp	.-64     	; 0xede <Adafruit_SPIDevice::transfer(unsigned char) [clone .constprop.30]+0x174>
c:\Users\admin\Documents\Arduino\libraries\Adafruit_BusIO/Adafruit_SPIDevice.cpp:174
    Serial.print(send, HEX);
    Serial.print(" -> 0x");
    */

    // Serial.print(send, HEX);
    for (uint8_t b = startbit; b != 0;
     f1e:	c6 95       	lsr	r28
     f20:	b8 cf       	rjmp	.-144    	; 0xe92 <Adafruit_SPIDevice::transfer(unsigned char) [clone .constprop.30]+0x128>

00000f22 <Adafruit_MAX31865::writeRegister8(unsigned char, unsigned char) [clone .constprop.26]>:
_ZN17Adafruit_MAX3186514writeRegister8Ehh.constprop.26():
c:\Users\admin\Documents\Arduino\libraries\Adafruit_MAX31865_library/Adafruit_MAX31865.cpp:342
  addr &= 0x7F; // make sure top bit is not set

  spi_dev.write_then_read(&addr, 1, buffer, n);
}

void Adafruit_MAX31865::writeRegister8(uint8_t addr, uint8_t data) {
     f22:	cf 93       	push	r28
     f24:	df 93       	push	r29
     f26:	d8 2f       	mov	r29, r24
     f28:	c6 2f       	mov	r28, r22
write():
c:\Users\admin\Documents\Arduino\libraries\Adafruit_BusIO/Adafruit_SPIDevice.cpp:346
 * writes
 */
bool Adafruit_SPIDevice::write(const uint8_t *buffer, size_t len,
                               const uint8_t *prefix_buffer,
                               size_t prefix_len) {
  beginTransactionWithAssertingCS();
     f2a:	0e 94 63 06 	call	0xcc6	; 0xcc6 <Adafruit_SPIDevice::beginTransactionWithAssertingCS() [clone .constprop.28]>
c:\Users\admin\Documents\Arduino\libraries\Adafruit_BusIO/Adafruit_SPIDevice.cpp:364
  {
    for (size_t i = 0; i < prefix_len; i++) {
      transfer(prefix_buffer[i]);
    }
    for (size_t i = 0; i < len; i++) {
      transfer(buffer[i]);
     f2e:	8d 2f       	mov	r24, r29
     f30:	80 68       	ori	r24, 0x80	; 128
     f32:	0e 94 b5 06 	call	0xd6a	; 0xd6a <Adafruit_SPIDevice::transfer(unsigned char) [clone .constprop.30]>
     f36:	8c 2f       	mov	r24, r28
     f38:	0e 94 b5 06 	call	0xd6a	; 0xd6a <Adafruit_SPIDevice::transfer(unsigned char) [clone .constprop.30]>
_ZN17Adafruit_MAX3186514writeRegister8Ehh.constprop.26():
c:\Users\admin\Documents\Arduino\libraries\Adafruit_MAX31865_library/Adafruit_MAX31865.cpp:347
  addr |= 0x80; // make sure top bit is set

  uint8_t buffer[2] = {addr, data};
  spi_dev.write(buffer, 2);
}
     f3c:	df 91       	pop	r29
     f3e:	cf 91       	pop	r28
write():
c:\Users\admin\Documents\Arduino\libraries\Adafruit_BusIO/Adafruit_SPIDevice.cpp:367
    }
  }
  endTransactionWithDeassertingCS();
     f40:	0c 94 5b 06 	jmp	0xcb6	; 0xcb6 <Adafruit_SPIDevice::endTransactionWithDeassertingCS() [clone .constprop.35]>

00000f44 <Adafruit_SPIDevice::write_then_read(unsigned char const*, unsigned int, unsigned char*, unsigned int, unsigned char) [clone .constprop.25]>:
_ZN18Adafruit_SPIDevice15write_then_readEPKhjPhjh.constprop.25():
c:\Users\admin\Documents\Arduino\libraries\Adafruit_BusIO/Adafruit_SPIDevice.cpp:438
 *    @param  sendvalue The 8-bits of data to write when doing the data read,
 * defaults to 0xFF
 *    @return Always returns true because there's no way to test success of SPI
 * writes
 */
bool Adafruit_SPIDevice::write_then_read(const uint8_t *write_buffer,
     f44:	ef 92       	push	r14
     f46:	ff 92       	push	r15
     f48:	0f 93       	push	r16
     f4a:	1f 93       	push	r17
     f4c:	cf 93       	push	r28
     f4e:	df 93       	push	r29
     f50:	ec 01       	movw	r28, r24
     f52:	7b 01       	movw	r14, r22
     f54:	8a 01       	movw	r16, r20
c:\Users\admin\Documents\Arduino\libraries\Adafruit_BusIO/Adafruit_SPIDevice.cpp:441
                                         size_t write_len, uint8_t *read_buffer,
                                         size_t read_len, uint8_t sendvalue) {
  beginTransactionWithAssertingCS();
     f56:	0e 94 63 06 	call	0xcc6	; 0xcc6 <Adafruit_SPIDevice::beginTransactionWithAssertingCS() [clone .constprop.28]>
c:\Users\admin\Documents\Arduino\libraries\Adafruit_BusIO/Adafruit_SPIDevice.cpp:452
    }
  } else
#endif
  {
    for (size_t i = 0; i < write_len; i++) {
      transfer(write_buffer[i]);
     f5a:	88 81       	ld	r24, Y
     f5c:	0e 94 b5 06 	call	0xd6a	; 0xd6a <Adafruit_SPIDevice::transfer(unsigned char) [clone .constprop.30]>
     f60:	e7 01       	movw	r28, r14
     f62:	0e 0d       	add	r16, r14
     f64:	1f 1d       	adc	r17, r15
c:\Users\admin\Documents\Arduino\libraries\Adafruit_BusIO/Adafruit_SPIDevice.cpp:470
  }
  DEBUG_SERIAL.println();
#endif

  // do the reading
  for (size_t i = 0; i < read_len; i++) {
     f66:	c0 17       	cp	r28, r16
     f68:	d1 07       	cpc	r29, r17
     f6a:	29 f0       	breq	.+10     	; 0xf76 <Adafruit_SPIDevice::write_then_read(unsigned char const*, unsigned int, unsigned char*, unsigned int, unsigned char) [clone .constprop.25]+0x32>
c:\Users\admin\Documents\Arduino\libraries\Adafruit_BusIO/Adafruit_SPIDevice.cpp:471
    read_buffer[i] = transfer(sendvalue);
     f6c:	8f ef       	ldi	r24, 0xFF	; 255
     f6e:	0e 94 b5 06 	call	0xd6a	; 0xd6a <Adafruit_SPIDevice::transfer(unsigned char) [clone .constprop.30]>
     f72:	89 93       	st	Y+, r24
     f74:	f8 cf       	rjmp	.-16     	; 0xf66 <Adafruit_SPIDevice::write_then_read(unsigned char const*, unsigned int, unsigned char*, unsigned int, unsigned char) [clone .constprop.25]+0x22>
c:\Users\admin\Documents\Arduino\libraries\Adafruit_BusIO/Adafruit_SPIDevice.cpp:487
    }
  }
  DEBUG_SERIAL.println();
#endif

  endTransactionWithDeassertingCS();
     f76:	0e 94 5b 06 	call	0xcb6	; 0xcb6 <Adafruit_SPIDevice::endTransactionWithDeassertingCS() [clone .constprop.35]>
c:\Users\admin\Documents\Arduino\libraries\Adafruit_BusIO/Adafruit_SPIDevice.cpp:490

  return true;
}
     f7a:	81 e0       	ldi	r24, 0x01	; 1
     f7c:	df 91       	pop	r29
     f7e:	cf 91       	pop	r28
     f80:	1f 91       	pop	r17
     f82:	0f 91       	pop	r16
     f84:	ff 90       	pop	r15
     f86:	ef 90       	pop	r14
     f88:	08 95       	ret

00000f8a <Adafruit_MAX31865::readRegister8(unsigned char) [clone .constprop.23]>:
_ZN17Adafruit_MAX3186513readRegister8Eh.constprop.23():
c:\Users\admin\Documents\Arduino\libraries\Adafruit_MAX31865_library/Adafruit_MAX31865.cpp:317
  return rtd;
}

/**********************************************/

uint8_t Adafruit_MAX31865::readRegister8(uint8_t addr) {
     f8a:	cf 93       	push	r28
     f8c:	df 93       	push	r29
     f8e:	1f 92       	push	r1
     f90:	1f 92       	push	r1
     f92:	cd b7       	in	r28, 0x3d	; 61
     f94:	de b7       	in	r29, 0x3e	; 62
c:\Users\admin\Documents\Arduino\libraries\Adafruit_MAX31865_library/Adafruit_MAX31865.cpp:318
  uint8_t ret = 0;
     f96:	1a 82       	std	Y+2, r1	; 0x02
     f98:	19 82       	std	Y+1, r1	; 0x01
readRegisterN():
c:\Users\admin\Documents\Arduino\libraries\Adafruit_MAX31865_library/Adafruit_MAX31865.cpp:339

void Adafruit_MAX31865::readRegisterN(uint8_t addr, uint8_t buffer[],
                                      uint8_t n) {
  addr &= 0x7F; // make sure top bit is not set

  spi_dev.write_then_read(&addr, 1, buffer, n);
     f9a:	41 e0       	ldi	r20, 0x01	; 1
     f9c:	50 e0       	ldi	r21, 0x00	; 0
     f9e:	be 01       	movw	r22, r28
     fa0:	6e 5f       	subi	r22, 0xFE	; 254
     fa2:	7f 4f       	sbci	r23, 0xFF	; 255
     fa4:	ce 01       	movw	r24, r28
     fa6:	01 96       	adiw	r24, 0x01	; 1
     fa8:	0e 94 a2 07 	call	0xf44	; 0xf44 <Adafruit_SPIDevice::write_then_read(unsigned char const*, unsigned int, unsigned char*, unsigned int, unsigned char) [clone .constprop.25]>
_ZN17Adafruit_MAX3186513readRegister8Eh.constprop.23():
c:\Users\admin\Documents\Arduino\libraries\Adafruit_MAX31865_library/Adafruit_MAX31865.cpp:322
uint8_t Adafruit_MAX31865::readRegister8(uint8_t addr) {
  uint8_t ret = 0;
  readRegisterN(addr, &ret, 1);

  return ret;
}
     fac:	8a 81       	ldd	r24, Y+2	; 0x02
     fae:	0f 90       	pop	r0
     fb0:	0f 90       	pop	r0
     fb2:	df 91       	pop	r29
     fb4:	cf 91       	pop	r28
     fb6:	08 95       	ret

00000fb8 <Adafruit_MAX31865::clearFault() [clone .constprop.22]>:
_ZN17Adafruit_MAX3186510clearFaultEv.constprop.22():
c:\Users\admin\Documents\Arduino\libraries\Adafruit_MAX31865_library/Adafruit_MAX31865.cpp:111
/*!
    @brief Clear all faults in FAULTSTAT
*/
/**************************************************************************/
void Adafruit_MAX31865::clearFault(void) {
  uint8_t t = readRegister8(MAX31865_CONFIG_REG);
     fb8:	0e 94 c5 07 	call	0xf8a	; 0xf8a <Adafruit_MAX31865::readRegister8(unsigned char) [clone .constprop.23]>
c:\Users\admin\Documents\Arduino\libraries\Adafruit_MAX31865_library/Adafruit_MAX31865.cpp:112
  t &= ~0x2C;
     fbc:	83 7d       	andi	r24, 0xD3	; 211
c:\Users\admin\Documents\Arduino\libraries\Adafruit_MAX31865_library/Adafruit_MAX31865.cpp:113
  t |= MAX31865_CONFIG_FAULTSTAT;
     fbe:	68 2f       	mov	r22, r24
     fc0:	62 60       	ori	r22, 0x02	; 2
c:\Users\admin\Documents\Arduino\libraries\Adafruit_MAX31865_library/Adafruit_MAX31865.cpp:114
  writeRegister8(MAX31865_CONFIG_REG, t);
     fc2:	80 e0       	ldi	r24, 0x00	; 0
     fc4:	0c 94 91 07 	jmp	0xf22	; 0xf22 <Adafruit_MAX31865::writeRegister8(unsigned char, unsigned char) [clone .constprop.26]>

00000fc8 <Adafruit_MAX31865::enableBias(bool) [clone .constprop.19]>:
_ZN17Adafruit_MAX3186510enableBiasEb.constprop.19():
c:\Users\admin\Documents\Arduino\libraries\Adafruit_MAX31865_library/Adafruit_MAX31865.cpp:123
/*!
    @brief Enable the bias voltage on the RTD sensor
    @param b If true bias is enabled, else disabled
*/
/**************************************************************************/
void Adafruit_MAX31865::enableBias(bool b) {
     fc8:	cf 93       	push	r28
     fca:	c8 2f       	mov	r28, r24
c:\Users\admin\Documents\Arduino\libraries\Adafruit_MAX31865_library/Adafruit_MAX31865.cpp:124
  uint8_t t = readRegister8(MAX31865_CONFIG_REG);
     fcc:	0e 94 c5 07 	call	0xf8a	; 0xf8a <Adafruit_MAX31865::readRegister8(unsigned char) [clone .constprop.23]>
c:\Users\admin\Documents\Arduino\libraries\Adafruit_MAX31865_library/Adafruit_MAX31865.cpp:126
  if (b) {
    t |= MAX31865_CONFIG_BIAS; // enable bias
     fd0:	68 2f       	mov	r22, r24
c:\Users\admin\Documents\Arduino\libraries\Adafruit_MAX31865_library/Adafruit_MAX31865.cpp:125
    @param b If true bias is enabled, else disabled
*/
/**************************************************************************/
void Adafruit_MAX31865::enableBias(bool b) {
  uint8_t t = readRegister8(MAX31865_CONFIG_REG);
  if (b) {
     fd2:	cc 23       	and	r28, r28
     fd4:	29 f0       	breq	.+10     	; 0xfe0 <Adafruit_MAX31865::enableBias(bool) [clone .constprop.19]+0x18>
c:\Users\admin\Documents\Arduino\libraries\Adafruit_MAX31865_library/Adafruit_MAX31865.cpp:126
    t |= MAX31865_CONFIG_BIAS; // enable bias
     fd6:	60 68       	ori	r22, 0x80	; 128
c:\Users\admin\Documents\Arduino\libraries\Adafruit_MAX31865_library/Adafruit_MAX31865.cpp:130
  } else {
    t &= ~MAX31865_CONFIG_BIAS; // disable bias
  }
  writeRegister8(MAX31865_CONFIG_REG, t);
     fd8:	80 e0       	ldi	r24, 0x00	; 0
c:\Users\admin\Documents\Arduino\libraries\Adafruit_MAX31865_library/Adafruit_MAX31865.cpp:131
}
     fda:	cf 91       	pop	r28
c:\Users\admin\Documents\Arduino\libraries\Adafruit_MAX31865_library/Adafruit_MAX31865.cpp:130
  if (b) {
    t |= MAX31865_CONFIG_BIAS; // enable bias
  } else {
    t &= ~MAX31865_CONFIG_BIAS; // disable bias
  }
  writeRegister8(MAX31865_CONFIG_REG, t);
     fdc:	0c 94 91 07 	jmp	0xf22	; 0xf22 <Adafruit_MAX31865::writeRegister8(unsigned char, unsigned char) [clone .constprop.26]>
c:\Users\admin\Documents\Arduino\libraries\Adafruit_MAX31865_library/Adafruit_MAX31865.cpp:128
void Adafruit_MAX31865::enableBias(bool b) {
  uint8_t t = readRegister8(MAX31865_CONFIG_REG);
  if (b) {
    t |= MAX31865_CONFIG_BIAS; // enable bias
  } else {
    t &= ~MAX31865_CONFIG_BIAS; // disable bias
     fe0:	6f 77       	andi	r22, 0x7F	; 127
     fe2:	fa cf       	rjmp	.-12     	; 0xfd8 <Adafruit_MAX31865::enableBias(bool) [clone .constprop.19]+0x10>

00000fe4 <micros>:
micros():
C:\Users\admin\AppData\Local\Arduino15\packages\MegaCore\hardware\avr\3.0.0\cores\MCUdude_corefiles/wiring.c:237
  unsigned char f; // temporary storage for millis fraction counter
  unsigned char q = 0; // record whether an overflow is flagged
#endif
  // t will be the number where the timer0 counter stopped
  uint8_t t;
  uint8_t oldSREG = SREG;
     fe4:	3f b7       	in	r19, 0x3f	; 63
C:\Users\admin\AppData\Local\Arduino15\packages\MegaCore\hardware\avr\3.0.0\cores\MCUdude_corefiles/wiring.c:240

  // Stop all interrupts
  cli();
     fe6:	f8 94       	cli
C:\Users\admin\AppData\Local\Arduino15\packages\MegaCore\hardware\avr\3.0.0\cores\MCUdude_corefiles/wiring.c:247
#ifdef CORRECT_EXACT_MICROS
  // combine exact millisec and 8usec counters
  m = timer0_millis;
  f = timer0_fract;
#else
  m = timer0_overflow_count;
     fe8:	80 91 a5 03 	lds	r24, 0x03A5	; 0x8003a5 <timer0_overflow_count>
     fec:	90 91 a6 03 	lds	r25, 0x03A6	; 0x8003a6 <timer0_overflow_count+0x1>
     ff0:	a0 91 a7 03 	lds	r26, 0x03A7	; 0x8003a7 <timer0_overflow_count+0x2>
     ff4:	b0 91 a8 03 	lds	r27, 0x03A8	; 0x8003a8 <timer0_overflow_count+0x3>
C:\Users\admin\AppData\Local\Arduino15\packages\MegaCore\hardware\avr\3.0.0\cores\MCUdude_corefiles/wiring.c:252
#endif

  // TCNT0 : The Timer Counter Register
#if defined(TCNT0)
  t = TCNT0;
     ff8:	26 b5       	in	r18, 0x26	; 38
C:\Users\admin\AppData\Local\Arduino15\packages\MegaCore\hardware\avr\3.0.0\cores\MCUdude_corefiles/wiring.c:261
  #error TIMER 0 not defined
#endif

  // Timer0 Interrupt Flag Register
#ifdef TIFR0
  if ((TIFR0 & _BV(TOV0)) && (t < 255))
     ffa:	a8 9b       	sbis	0x15, 0	; 21
     ffc:	05 c0       	rjmp	.+10     	; 0x1008 <micros+0x24>
     ffe:	2f 3f       	cpi	r18, 0xFF	; 255
    1000:	19 f0       	breq	.+6      	; 0x1008 <micros+0x24>
C:\Users\admin\AppData\Local\Arduino15\packages\MegaCore\hardware\avr\3.0.0\cores\MCUdude_corefiles/wiring.c:263
#ifndef CORRECT_EXACT_MICROS
    m++;
    1002:	01 96       	adiw	r24, 0x01	; 1
    1004:	a1 1d       	adc	r26, r1
    1006:	b1 1d       	adc	r27, r1
C:\Users\admin\AppData\Local\Arduino15\packages\MegaCore\hardware\avr\3.0.0\cores\MCUdude_corefiles/wiring.c:276
#else
    q = 1;
#endif
#endif
  // Restore SREG
  SREG = oldSREG;
    1008:	3f bf       	out	0x3f, r19	; 63
C:\Users\admin\AppData\Local\Arduino15\packages\MegaCore\hardware\avr\3.0.0\cores\MCUdude_corefiles/wiring.c:292
      ((t * MICROSECONDS_PER_TIMER0_OVERFLOW) >> 8);
  return q ? m + MICROSECONDS_PER_TIMER0_OVERFLOW : m;
#elif 1
  /* All power-of-two Megahertz frequencies enter here, as well as 12.8 MHz.
     We only end up here if right shift before multiplication is exact. */
  return ((m << 8) + t) * (MICROSECONDS_PER_TIMER0_OVERFLOW >> 8);
    100a:	ba 2f       	mov	r27, r26
    100c:	a9 2f       	mov	r26, r25
    100e:	98 2f       	mov	r25, r24
    1010:	88 27       	eor	r24, r24
    1012:	bc 01       	movw	r22, r24
    1014:	cd 01       	movw	r24, r26
    1016:	62 0f       	add	r22, r18
    1018:	71 1d       	adc	r23, r1
    101a:	81 1d       	adc	r24, r1
    101c:	91 1d       	adc	r25, r1
    101e:	42 e0       	ldi	r20, 0x02	; 2
    1020:	66 0f       	add	r22, r22
    1022:	77 1f       	adc	r23, r23
    1024:	88 1f       	adc	r24, r24
    1026:	99 1f       	adc	r25, r25
    1028:	4a 95       	dec	r20
    102a:	d1 f7       	brne	.-12     	; 0x1020 <micros+0x3c>
C:\Users\admin\AppData\Local\Arduino15\packages\MegaCore\hardware\avr\3.0.0\cores\MCUdude_corefiles/wiring.c:393
  // m & t are multiplied by 4 (since it was already multiplied by 256)
  // t is multiplied by 4
  return ((m << 8) + t) * (64 / clockCyclesPerMicrosecond());
#endif
#endif // 0
}
    102c:	08 95       	ret

0000102e <delay>:
delay():
C:\Users\admin\AppData\Local\Arduino15\packages\MegaCore\hardware\avr\3.0.0\cores\MCUdude_corefiles/wiring.c:396

void delay(unsigned long ms)
{
    102e:	8f 92       	push	r8
    1030:	9f 92       	push	r9
    1032:	af 92       	push	r10
    1034:	bf 92       	push	r11
    1036:	cf 92       	push	r12
    1038:	df 92       	push	r13
    103a:	ef 92       	push	r14
    103c:	ff 92       	push	r15
    103e:	4b 01       	movw	r8, r22
    1040:	5c 01       	movw	r10, r24
C:\Users\admin\AppData\Local\Arduino15\packages\MegaCore\hardware\avr\3.0.0\cores\MCUdude_corefiles/wiring.c:397
  unsigned long start = micros();
    1042:	0e 94 f2 07 	call	0xfe4	; 0xfe4 <micros>
    1046:	6b 01       	movw	r12, r22
    1048:	7c 01       	movw	r14, r24
C:\Users\admin\AppData\Local\Arduino15\packages\MegaCore\hardware\avr\3.0.0\cores\MCUdude_corefiles/wiring.c:401

  while (ms > 0UL) {
    yield();
    while (ms > 0UL && (micros() - start) >= 1000UL) {
    104a:	0e 94 f2 07 	call	0xfe4	; 0xfe4 <micros>
    104e:	6c 19       	sub	r22, r12
    1050:	7d 09       	sbc	r23, r13
    1052:	8e 09       	sbc	r24, r14
    1054:	9f 09       	sbc	r25, r15
    1056:	68 3e       	cpi	r22, 0xE8	; 232
    1058:	73 40       	sbci	r23, 0x03	; 3
    105a:	81 05       	cpc	r24, r1
    105c:	91 05       	cpc	r25, r1
    105e:	a8 f3       	brcs	.-22     	; 0x104a <delay+0x1c>
C:\Users\admin\AppData\Local\Arduino15\packages\MegaCore\hardware\avr\3.0.0\cores\MCUdude_corefiles/wiring.c:402
      ms--;
    1060:	21 e0       	ldi	r18, 0x01	; 1
    1062:	82 1a       	sub	r8, r18
    1064:	91 08       	sbc	r9, r1
    1066:	a1 08       	sbc	r10, r1
    1068:	b1 08       	sbc	r11, r1
C:\Users\admin\AppData\Local\Arduino15\packages\MegaCore\hardware\avr\3.0.0\cores\MCUdude_corefiles/wiring.c:403
      start += 1000UL;
    106a:	88 ee       	ldi	r24, 0xE8	; 232
    106c:	c8 0e       	add	r12, r24
    106e:	83 e0       	ldi	r24, 0x03	; 3
    1070:	d8 1e       	adc	r13, r24
    1072:	e1 1c       	adc	r14, r1
    1074:	f1 1c       	adc	r15, r1
C:\Users\admin\AppData\Local\Arduino15\packages\MegaCore\hardware\avr\3.0.0\cores\MCUdude_corefiles/wiring.c:401
{
  unsigned long start = micros();

  while (ms > 0UL) {
    yield();
    while (ms > 0UL && (micros() - start) >= 1000UL) {
    1076:	81 14       	cp	r8, r1
    1078:	91 04       	cpc	r9, r1
    107a:	a1 04       	cpc	r10, r1
    107c:	b1 04       	cpc	r11, r1
    107e:	29 f7       	brne	.-54     	; 0x104a <delay+0x1c>
C:\Users\admin\AppData\Local\Arduino15\packages\MegaCore\hardware\avr\3.0.0\cores\MCUdude_corefiles/wiring.c:406
      ms--;
      start += 1000UL;
    }
  }
}
    1080:	ff 90       	pop	r15
    1082:	ef 90       	pop	r14
    1084:	df 90       	pop	r13
    1086:	cf 90       	pop	r12
    1088:	bf 90       	pop	r11
    108a:	af 90       	pop	r10
    108c:	9f 90       	pop	r9
    108e:	8f 90       	pop	r8
    1090:	08 95       	ret

00001092 <Adafruit_MAX31865::readRTD() [clone .constprop.5]>:
_ZN17Adafruit_MAX318657readRTDEv.constprop.5():
c:\Users\admin\Documents\Arduino\libraries\Adafruit_MAX31865_library/Adafruit_MAX31865.cpp:296
/*!
    @brief Read the raw 16-bit value from the RTD_REG in one shot mode
    @return The raw unsigned 16-bit value, NOT temperature!
*/
/**************************************************************************/
uint16_t Adafruit_MAX31865::readRTD(void) {
    1092:	0f 93       	push	r16
    1094:	1f 93       	push	r17
    1096:	cf 93       	push	r28
    1098:	df 93       	push	r29
    109a:	00 d0       	rcall	.+0      	; 0x109c <Adafruit_MAX31865::readRTD() [clone .constprop.5]+0xa>
    109c:	cd b7       	in	r28, 0x3d	; 61
    109e:	de b7       	in	r29, 0x3e	; 62
c:\Users\admin\Documents\Arduino\libraries\Adafruit_MAX31865_library/Adafruit_MAX31865.cpp:297
  clearFault();
    10a0:	0e 94 dc 07 	call	0xfb8	; 0xfb8 <Adafruit_MAX31865::clearFault() [clone .constprop.22]>
c:\Users\admin\Documents\Arduino\libraries\Adafruit_MAX31865_library/Adafruit_MAX31865.cpp:298
  enableBias(true);
    10a4:	81 e0       	ldi	r24, 0x01	; 1
    10a6:	0e 94 e4 07 	call	0xfc8	; 0xfc8 <Adafruit_MAX31865::enableBias(bool) [clone .constprop.19]>
c:\Users\admin\Documents\Arduino\libraries\Adafruit_MAX31865_library/Adafruit_MAX31865.cpp:299
  delay(10);
    10aa:	6a e0       	ldi	r22, 0x0A	; 10
    10ac:	70 e0       	ldi	r23, 0x00	; 0
    10ae:	80 e0       	ldi	r24, 0x00	; 0
    10b0:	90 e0       	ldi	r25, 0x00	; 0
    10b2:	0e 94 17 08 	call	0x102e	; 0x102e <delay>
c:\Users\admin\Documents\Arduino\libraries\Adafruit_MAX31865_library/Adafruit_MAX31865.cpp:300
  uint8_t t = readRegister8(MAX31865_CONFIG_REG);
    10b6:	0e 94 c5 07 	call	0xf8a	; 0xf8a <Adafruit_MAX31865::readRegister8(unsigned char) [clone .constprop.23]>
c:\Users\admin\Documents\Arduino\libraries\Adafruit_MAX31865_library/Adafruit_MAX31865.cpp:301
  t |= MAX31865_CONFIG_1SHOT;
    10ba:	68 2f       	mov	r22, r24
    10bc:	60 62       	ori	r22, 0x20	; 32
c:\Users\admin\Documents\Arduino\libraries\Adafruit_MAX31865_library/Adafruit_MAX31865.cpp:302
  writeRegister8(MAX31865_CONFIG_REG, t);
    10be:	80 e0       	ldi	r24, 0x00	; 0
    10c0:	0e 94 91 07 	call	0xf22	; 0xf22 <Adafruit_MAX31865::writeRegister8(unsigned char, unsigned char) [clone .constprop.26]>
c:\Users\admin\Documents\Arduino\libraries\Adafruit_MAX31865_library/Adafruit_MAX31865.cpp:303
  delay(65);
    10c4:	61 e4       	ldi	r22, 0x41	; 65
    10c6:	70 e0       	ldi	r23, 0x00	; 0
    10c8:	80 e0       	ldi	r24, 0x00	; 0
    10ca:	90 e0       	ldi	r25, 0x00	; 0
    10cc:	0e 94 17 08 	call	0x102e	; 0x102e <delay>
readRegister16():
c:\Users\admin\Documents\Arduino\libraries\Adafruit_MAX31865_library/Adafruit_MAX31865.cpp:325

  return ret;
}

uint16_t Adafruit_MAX31865::readRegister16(uint8_t addr) {
  uint8_t buffer[2] = {0, 0};
    10d0:	19 82       	std	Y+1, r1	; 0x01
    10d2:	1a 82       	std	Y+2, r1	; 0x02
    10d4:	81 e0       	ldi	r24, 0x01	; 1
    10d6:	8b 83       	std	Y+3, r24	; 0x03
readRegisterN():
c:\Users\admin\Documents\Arduino\libraries\Adafruit_MAX31865_library/Adafruit_MAX31865.cpp:339

void Adafruit_MAX31865::readRegisterN(uint8_t addr, uint8_t buffer[],
                                      uint8_t n) {
  addr &= 0x7F; // make sure top bit is not set

  spi_dev.write_then_read(&addr, 1, buffer, n);
    10d8:	42 e0       	ldi	r20, 0x02	; 2
    10da:	50 e0       	ldi	r21, 0x00	; 0
    10dc:	be 01       	movw	r22, r28
    10de:	6f 5f       	subi	r22, 0xFF	; 255
    10e0:	7f 4f       	sbci	r23, 0xFF	; 255
    10e2:	ce 01       	movw	r24, r28
    10e4:	03 96       	adiw	r24, 0x03	; 3
    10e6:	0e 94 a2 07 	call	0xf44	; 0xf44 <Adafruit_SPIDevice::write_then_read(unsigned char const*, unsigned int, unsigned char*, unsigned int, unsigned char) [clone .constprop.25]>
    10ea:	09 81       	ldd	r16, Y+1	; 0x01
    10ec:	1a 81       	ldd	r17, Y+2	; 0x02
    10ee:	10 27       	eor	r17, r16
    10f0:	01 27       	eor	r16, r17
    10f2:	10 27       	eor	r17, r16
_ZN17Adafruit_MAX318657readRTDEv.constprop.5():
c:\Users\admin\Documents\Arduino\libraries\Adafruit_MAX31865_library/Adafruit_MAX31865.cpp:307
  writeRegister8(MAX31865_CONFIG_REG, t);
  delay(65);

  uint16_t rtd = readRegister16(MAX31865_RTDMSB_REG);

  enableBias(false); // Disable bias current again to reduce selfheating.
    10f4:	80 e0       	ldi	r24, 0x00	; 0
    10f6:	0e 94 e4 07 	call	0xfc8	; 0xfc8 <Adafruit_MAX31865::enableBias(bool) [clone .constprop.19]>
c:\Users\admin\Documents\Arduino\libraries\Adafruit_MAX31865_library/Adafruit_MAX31865.cpp:313

  // remove fault
  rtd >>= 1;

  return rtd;
}
    10fa:	c8 01       	movw	r24, r16
    10fc:	96 95       	lsr	r25
    10fe:	87 95       	ror	r24
    1100:	0f 90       	pop	r0
    1102:	0f 90       	pop	r0
    1104:	0f 90       	pop	r0
    1106:	df 91       	pop	r29
    1108:	cf 91       	pop	r28
    110a:	1f 91       	pop	r17
    110c:	0f 91       	pop	r16
    110e:	08 95       	ret

00001110 <millis>:
millis():
C:\Users\admin\AppData\Local\Arduino15\packages\MegaCore\hardware\avr\3.0.0\cores\MCUdude_corefiles/wiring.c:218
}

unsigned long millis()
{
  unsigned long m;
  uint8_t oldSREG = SREG;
    1110:	2f b7       	in	r18, 0x3f	; 63
C:\Users\admin\AppData\Local\Arduino15\packages\MegaCore\hardware\avr\3.0.0\cores\MCUdude_corefiles/wiring.c:222

  // disable interrupts while we read timer0_millis or we might get an
  // inconsistent value (e.g. in the middle of a write to timer0_millis)
  cli();
    1112:	f8 94       	cli
C:\Users\admin\AppData\Local\Arduino15\packages\MegaCore\hardware\avr\3.0.0\cores\MCUdude_corefiles/wiring.c:223
  m = timer0_millis;
    1114:	60 91 a1 03 	lds	r22, 0x03A1	; 0x8003a1 <timer0_millis>
    1118:	70 91 a2 03 	lds	r23, 0x03A2	; 0x8003a2 <timer0_millis+0x1>
    111c:	80 91 a3 03 	lds	r24, 0x03A3	; 0x8003a3 <timer0_millis+0x2>
    1120:	90 91 a4 03 	lds	r25, 0x03A4	; 0x8003a4 <timer0_millis+0x3>
C:\Users\admin\AppData\Local\Arduino15\packages\MegaCore\hardware\avr\3.0.0\cores\MCUdude_corefiles/wiring.c:224
  SREG = oldSREG;
    1124:	2f bf       	out	0x3f, r18	; 63
C:\Users\admin\AppData\Local\Arduino15\packages\MegaCore\hardware\avr\3.0.0\cores\MCUdude_corefiles/wiring.c:227

  return m;
}
    1126:	08 95       	ret

00001128 <Print::write(unsigned char const*, unsigned int)>:
_ZN5Print5writeEPKhj():
C:\Users\admin\AppData\Local\Arduino15\packages\MegaCore\hardware\avr\3.0.0\cores\MCUdude_corefiles/Print.cpp:35

// Public Methods //////////////////////////////////////////////////////////////

/* default implementation: may be overridden */
size_t Print::write(const uint8_t *buffer, size_t size)
{
    1128:	af 92       	push	r10
    112a:	bf 92       	push	r11
    112c:	cf 92       	push	r12
    112e:	df 92       	push	r13
    1130:	ef 92       	push	r14
    1132:	ff 92       	push	r15
    1134:	0f 93       	push	r16
    1136:	1f 93       	push	r17
    1138:	cf 93       	push	r28
    113a:	df 93       	push	r29
    113c:	6c 01       	movw	r12, r24
    113e:	7b 01       	movw	r14, r22
    1140:	8b 01       	movw	r16, r22
    1142:	04 0f       	add	r16, r20
    1144:	15 1f       	adc	r17, r21
    1146:	eb 01       	movw	r28, r22
    1148:	5e 01       	movw	r10, r28
    114a:	ae 18       	sub	r10, r14
    114c:	bf 08       	sbc	r11, r15
C:\Users\admin\AppData\Local\Arduino15\packages\MegaCore\hardware\avr\3.0.0\cores\MCUdude_corefiles/Print.cpp:37
  size_t n = 0;
  while (size--) {
    114e:	c0 17       	cp	r28, r16
    1150:	d1 07       	cpc	r29, r17
    1152:	59 f0       	breq	.+22     	; 0x116a <Print::write(unsigned char const*, unsigned int)+0x42>
C:\Users\admin\AppData\Local\Arduino15\packages\MegaCore\hardware\avr\3.0.0\cores\MCUdude_corefiles/Print.cpp:38
    if (write(*buffer++)) n++;
    1154:	69 91       	ld	r22, Y+
    1156:	d6 01       	movw	r26, r12
    1158:	ed 91       	ld	r30, X+
    115a:	fc 91       	ld	r31, X
    115c:	01 90       	ld	r0, Z+
    115e:	f0 81       	ld	r31, Z
    1160:	e0 2d       	mov	r30, r0
    1162:	c6 01       	movw	r24, r12
    1164:	19 95       	eicall
    1166:	89 2b       	or	r24, r25
    1168:	79 f7       	brne	.-34     	; 0x1148 <Print::write(unsigned char const*, unsigned int)+0x20>
C:\Users\admin\AppData\Local\Arduino15\packages\MegaCore\hardware\avr\3.0.0\cores\MCUdude_corefiles/Print.cpp:42
    else break;
  }
  return n;
}
    116a:	c5 01       	movw	r24, r10
    116c:	df 91       	pop	r29
    116e:	cf 91       	pop	r28
    1170:	1f 91       	pop	r17
    1172:	0f 91       	pop	r16
    1174:	ff 90       	pop	r15
    1176:	ef 90       	pop	r14
    1178:	df 90       	pop	r13
    117a:	cf 90       	pop	r12
    117c:	bf 90       	pop	r11
    117e:	af 90       	pop	r10
    1180:	08 95       	ret

00001182 <HardwareSerial::availableForWrite()>:
_ZN14HardwareSerial17availableForWriteEv():
C:\Users\admin\AppData\Local\Arduino15\packages\MegaCore\hardware\avr\3.0.0\cores\MCUdude_corefiles/HardwareSerial.cpp:195
{
  tx_buffer_index_t head;
  tx_buffer_index_t tail;

  TX_BUFFER_ATOMIC {
    head = _tx_buffer_head;
    1182:	fc 01       	movw	r30, r24
    1184:	53 8d       	ldd	r21, Z+27	; 0x1b
C:\Users\admin\AppData\Local\Arduino15\packages\MegaCore\hardware\avr\3.0.0\cores\MCUdude_corefiles/HardwareSerial.cpp:196
    tail = _tx_buffer_tail;
    1186:	44 8d       	ldd	r20, Z+28	; 0x1c
    1188:	25 2f       	mov	r18, r21
    118a:	30 e0       	ldi	r19, 0x00	; 0
    118c:	84 2f       	mov	r24, r20
    118e:	90 e0       	ldi	r25, 0x00	; 0
C:\Users\admin\AppData\Local\Arduino15\packages\MegaCore\hardware\avr\3.0.0\cores\MCUdude_corefiles/HardwareSerial.cpp:198
  }
  if (head >= tail) return SERIAL_TX_BUFFER_SIZE - 1 - head + tail;
    1190:	82 1b       	sub	r24, r18
    1192:	93 0b       	sbc	r25, r19
    1194:	54 17       	cp	r21, r20
    1196:	10 f0       	brcs	.+4      	; 0x119c <HardwareSerial::availableForWrite()+0x1a>
    1198:	cf 96       	adiw	r24, 0x3f	; 63
    119a:	08 95       	ret
C:\Users\admin\AppData\Local\Arduino15\packages\MegaCore\hardware\avr\3.0.0\cores\MCUdude_corefiles/HardwareSerial.cpp:199
  return tail - head - 1;
    119c:	01 97       	sbiw	r24, 0x01	; 1
C:\Users\admin\AppData\Local\Arduino15\packages\MegaCore\hardware\avr\3.0.0\cores\MCUdude_corefiles/HardwareSerial.cpp:200
}
    119e:	08 95       	ret

000011a0 <HardwareSerial::read()>:
_ZN14HardwareSerial4readEv():
C:\Users\admin\AppData\Local\Arduino15\packages\MegaCore\hardware\avr\3.0.0\cores\MCUdude_corefiles/HardwareSerial.cpp:178
    return _rx_buffer[_rx_buffer_tail];
  }
}

int HardwareSerial::read(void)
{
    11a0:	fc 01       	movw	r30, r24
C:\Users\admin\AppData\Local\Arduino15\packages\MegaCore\hardware\avr\3.0.0\cores\MCUdude_corefiles/HardwareSerial.cpp:180
  // if the head isn't ahead of the tail, we don't have any characters
  if (_rx_buffer_head == _rx_buffer_tail) {
    11a2:	91 8d       	ldd	r25, Z+25	; 0x19
    11a4:	82 8d       	ldd	r24, Z+26	; 0x1a
    11a6:	98 17       	cp	r25, r24
    11a8:	61 f0       	breq	.+24     	; 0x11c2 <HardwareSerial::read()+0x22>
C:\Users\admin\AppData\Local\Arduino15\packages\MegaCore\hardware\avr\3.0.0\cores\MCUdude_corefiles/HardwareSerial.cpp:183
    return -1;
  } else {
    unsigned char c = _rx_buffer[_rx_buffer_tail];
    11aa:	a2 8d       	ldd	r26, Z+26	; 0x1a
    11ac:	ae 0f       	add	r26, r30
    11ae:	bf 2f       	mov	r27, r31
    11b0:	b1 1d       	adc	r27, r1
    11b2:	5d 96       	adiw	r26, 0x1d	; 29
    11b4:	8c 91       	ld	r24, X
C:\Users\admin\AppData\Local\Arduino15\packages\MegaCore\hardware\avr\3.0.0\cores\MCUdude_corefiles/HardwareSerial.cpp:184
    _rx_buffer_tail = (rx_buffer_index_t)(_rx_buffer_tail + 1) % SERIAL_RX_BUFFER_SIZE;
    11b6:	92 8d       	ldd	r25, Z+26	; 0x1a
    11b8:	9f 5f       	subi	r25, 0xFF	; 255
    11ba:	9f 73       	andi	r25, 0x3F	; 63
    11bc:	92 8f       	std	Z+26, r25	; 0x1a
C:\Users\admin\AppData\Local\Arduino15\packages\MegaCore\hardware\avr\3.0.0\cores\MCUdude_corefiles/HardwareSerial.cpp:185
    return c;
    11be:	90 e0       	ldi	r25, 0x00	; 0
    11c0:	08 95       	ret
C:\Users\admin\AppData\Local\Arduino15\packages\MegaCore\hardware\avr\3.0.0\cores\MCUdude_corefiles/HardwareSerial.cpp:181

int HardwareSerial::read(void)
{
  // if the head isn't ahead of the tail, we don't have any characters
  if (_rx_buffer_head == _rx_buffer_tail) {
    return -1;
    11c2:	8f ef       	ldi	r24, 0xFF	; 255
    11c4:	9f ef       	ldi	r25, 0xFF	; 255
C:\Users\admin\AppData\Local\Arduino15\packages\MegaCore\hardware\avr\3.0.0\cores\MCUdude_corefiles/HardwareSerial.cpp:187
  } else {
    unsigned char c = _rx_buffer[_rx_buffer_tail];
    _rx_buffer_tail = (rx_buffer_index_t)(_rx_buffer_tail + 1) % SERIAL_RX_BUFFER_SIZE;
    return c;
  }
}
    11c6:	08 95       	ret

000011c8 <HardwareSerial::peek()>:
_ZN14HardwareSerial4peekEv():
C:\Users\admin\AppData\Local\Arduino15\packages\MegaCore\hardware\avr\3.0.0\cores\MCUdude_corefiles/HardwareSerial.cpp:169
{
  return ((unsigned int)(SERIAL_RX_BUFFER_SIZE + _rx_buffer_head - _rx_buffer_tail)) % SERIAL_RX_BUFFER_SIZE;
}

int HardwareSerial::peek(void)
{
    11c8:	fc 01       	movw	r30, r24
C:\Users\admin\AppData\Local\Arduino15\packages\MegaCore\hardware\avr\3.0.0\cores\MCUdude_corefiles/HardwareSerial.cpp:170
  if (_rx_buffer_head == _rx_buffer_tail) {
    11ca:	91 8d       	ldd	r25, Z+25	; 0x19
    11cc:	82 8d       	ldd	r24, Z+26	; 0x1a
    11ce:	98 17       	cp	r25, r24
    11d0:	31 f0       	breq	.+12     	; 0x11de <HardwareSerial::peek()+0x16>
C:\Users\admin\AppData\Local\Arduino15\packages\MegaCore\hardware\avr\3.0.0\cores\MCUdude_corefiles/HardwareSerial.cpp:173
    return -1;
  } else {
    return _rx_buffer[_rx_buffer_tail];
    11d2:	82 8d       	ldd	r24, Z+26	; 0x1a
    11d4:	e8 0f       	add	r30, r24
    11d6:	f1 1d       	adc	r31, r1
    11d8:	85 8d       	ldd	r24, Z+29	; 0x1d
    11da:	90 e0       	ldi	r25, 0x00	; 0
    11dc:	08 95       	ret
C:\Users\admin\AppData\Local\Arduino15\packages\MegaCore\hardware\avr\3.0.0\cores\MCUdude_corefiles/HardwareSerial.cpp:171
}

int HardwareSerial::peek(void)
{
  if (_rx_buffer_head == _rx_buffer_tail) {
    return -1;
    11de:	8f ef       	ldi	r24, 0xFF	; 255
    11e0:	9f ef       	ldi	r25, 0xFF	; 255
C:\Users\admin\AppData\Local\Arduino15\packages\MegaCore\hardware\avr\3.0.0\cores\MCUdude_corefiles/HardwareSerial.cpp:175
  } else {
    return _rx_buffer[_rx_buffer_tail];
  }
}
    11e2:	08 95       	ret

000011e4 <HardwareSerial::available()>:
_ZN14HardwareSerial9availableEv():
C:\Users\admin\AppData\Local\Arduino15\packages\MegaCore\hardware\avr\3.0.0\cores\MCUdude_corefiles/HardwareSerial.cpp:164
  // clear any received data
  _rx_buffer_head = _rx_buffer_tail;
}

int HardwareSerial::available(void)
{
    11e4:	fc 01       	movw	r30, r24
C:\Users\admin\AppData\Local\Arduino15\packages\MegaCore\hardware\avr\3.0.0\cores\MCUdude_corefiles/HardwareSerial.cpp:165
  return ((unsigned int)(SERIAL_RX_BUFFER_SIZE + _rx_buffer_head - _rx_buffer_tail)) % SERIAL_RX_BUFFER_SIZE;
    11e6:	91 8d       	ldd	r25, Z+25	; 0x19
    11e8:	22 8d       	ldd	r18, Z+26	; 0x1a
    11ea:	89 2f       	mov	r24, r25
    11ec:	90 e0       	ldi	r25, 0x00	; 0
    11ee:	80 5c       	subi	r24, 0xC0	; 192
    11f0:	9f 4f       	sbci	r25, 0xFF	; 255
    11f2:	82 1b       	sub	r24, r18
    11f4:	91 09       	sbc	r25, r1
C:\Users\admin\AppData\Local\Arduino15\packages\MegaCore\hardware\avr\3.0.0\cores\MCUdude_corefiles/HardwareSerial.cpp:166
}
    11f6:	8f 73       	andi	r24, 0x3F	; 63
    11f8:	99 27       	eor	r25, r25
    11fa:	08 95       	ret

000011fc <Serial3_available()>:
_Z17Serial3_availablev():
C:\Users\admin\AppData\Local\Arduino15\packages\MegaCore\hardware\avr\3.0.0\cores\MCUdude_corefiles/HardwareSerial3.cpp:54
HardwareSerial Serial3(&UBRR3H, &UBRR3L, &UCSR3A, &UCSR3B, &UCSR3C, &UDR3);

// Function that can be weakly referenced by serialEventRun to prevent
// pulling in this file if it's not otherwise used.
bool Serial3_available() {
  return Serial3.available();
    11fc:	8b ea       	ldi	r24, 0xAB	; 171
    11fe:	93 e0       	ldi	r25, 0x03	; 3
    1200:	0e 94 f2 08 	call	0x11e4	; 0x11e4 <HardwareSerial::available()>
    1204:	21 e0       	ldi	r18, 0x01	; 1
    1206:	89 2b       	or	r24, r25
    1208:	09 f4       	brne	.+2      	; 0x120c <Serial3_available()+0x10>
    120a:	20 e0       	ldi	r18, 0x00	; 0
C:\Users\admin\AppData\Local\Arduino15\packages\MegaCore\hardware\avr\3.0.0\cores\MCUdude_corefiles/HardwareSerial3.cpp:55
}
    120c:	82 2f       	mov	r24, r18
    120e:	08 95       	ret

00001210 <Serial0_available()>:
_Z17Serial0_availablev():
C:\Users\admin\AppData\Local\Arduino15\packages\MegaCore\hardware\avr\3.0.0\cores\MCUdude_corefiles/HardwareSerial0.cpp:76
#endif

// Function that can be weakly referenced by serialEventRun to prevent
// pulling in this file if it's not otherwise used.
bool Serial0_available() {
  return Serial.available();
    1210:	88 e4       	ldi	r24, 0x48	; 72
    1212:	94 e0       	ldi	r25, 0x04	; 4
    1214:	0e 94 f2 08 	call	0x11e4	; 0x11e4 <HardwareSerial::available()>
    1218:	21 e0       	ldi	r18, 0x01	; 1
    121a:	89 2b       	or	r24, r25
    121c:	09 f4       	brne	.+2      	; 0x1220 <Serial0_available()+0x10>
    121e:	20 e0       	ldi	r18, 0x00	; 0
C:\Users\admin\AppData\Local\Arduino15\packages\MegaCore\hardware\avr\3.0.0\cores\MCUdude_corefiles/HardwareSerial0.cpp:77
}
    1220:	82 2f       	mov	r24, r18
    1222:	08 95       	ret

00001224 <HardwareSerial::_tx_udr_empty_irq()>:
_ZN14HardwareSerial17_tx_udr_empty_irqEv():
C:\Users\admin\AppData\Local\Arduino15\packages\MegaCore\hardware\avr\3.0.0\cores\MCUdude_corefiles/HardwareSerial.cpp:90
#endif

// Actual interrupt handlers //////////////////////////////////////////////////////////////

void HardwareSerial::_tx_udr_empty_irq(void)
{
    1224:	fc 01       	movw	r30, r24
C:\Users\admin\AppData\Local\Arduino15\packages\MegaCore\hardware\avr\3.0.0\cores\MCUdude_corefiles/HardwareSerial.cpp:93
  // If interrupts are enabled, there must be more data in the output
  // buffer. Send the next byte
  unsigned char c = _tx_buffer[_tx_buffer_tail];
    1226:	a4 8d       	ldd	r26, Z+28	; 0x1c
    1228:	a8 0f       	add	r26, r24
    122a:	b9 2f       	mov	r27, r25
    122c:	b1 1d       	adc	r27, r1
    122e:	a3 5a       	subi	r26, 0xA3	; 163
    1230:	bf 4f       	sbci	r27, 0xFF	; 255
    1232:	2c 91       	ld	r18, X
C:\Users\admin\AppData\Local\Arduino15\packages\MegaCore\hardware\avr\3.0.0\cores\MCUdude_corefiles/HardwareSerial.cpp:94
  _tx_buffer_tail = (_tx_buffer_tail + 1) % SERIAL_TX_BUFFER_SIZE;
    1234:	84 8d       	ldd	r24, Z+28	; 0x1c
    1236:	90 e0       	ldi	r25, 0x00	; 0
    1238:	01 96       	adiw	r24, 0x01	; 1
    123a:	8f 73       	andi	r24, 0x3F	; 63
    123c:	99 27       	eor	r25, r25
    123e:	84 8f       	std	Z+28, r24	; 0x1c
C:\Users\admin\AppData\Local\Arduino15\packages\MegaCore\hardware\avr\3.0.0\cores\MCUdude_corefiles/HardwareSerial.cpp:96

  *_udr = c;
    1240:	a6 89       	ldd	r26, Z+22	; 0x16
    1242:	b7 89       	ldd	r27, Z+23	; 0x17
    1244:	2c 93       	st	X, r18
C:\Users\admin\AppData\Local\Arduino15\packages\MegaCore\hardware\avr\3.0.0\cores\MCUdude_corefiles/HardwareSerial.cpp:104
  // location". This makes sure flush() won't return until the bytes
  // actually got written. Other r/w bits are preserved, and zeroes
  // written to the rest.

  #ifdef MPCM0
    *_ucsra = ((*_ucsra) & ((1 << U2X0) | (1 << MPCM0))) | (1 << TXC0);
    1246:	a0 89       	ldd	r26, Z+16	; 0x10
    1248:	b1 89       	ldd	r27, Z+17	; 0x11
    124a:	8c 91       	ld	r24, X
    124c:	83 70       	andi	r24, 0x03	; 3
    124e:	80 64       	ori	r24, 0x40	; 64
    1250:	8c 93       	st	X, r24
C:\Users\admin\AppData\Local\Arduino15\packages\MegaCore\hardware\avr\3.0.0\cores\MCUdude_corefiles/HardwareSerial.cpp:109
  #else
    *_ucsra = ((*_ucsra) & ((1 << U2X0) | (1 << TXC0)));
  #endif

  if (_tx_buffer_head == _tx_buffer_tail) {
    1252:	93 8d       	ldd	r25, Z+27	; 0x1b
    1254:	84 8d       	ldd	r24, Z+28	; 0x1c
    1256:	98 13       	cpse	r25, r24
    1258:	06 c0       	rjmp	.+12     	; 0x1266 <HardwareSerial::_tx_udr_empty_irq()+0x42>
C:\Users\admin\AppData\Local\Arduino15\packages\MegaCore\hardware\avr\3.0.0\cores\MCUdude_corefiles/HardwareSerial.cpp:111
    // Buffer empty, so disable interrupts
    *_ucsrb &= ~_BV(UDRIE0);
    125a:	02 88       	ldd	r0, Z+18	; 0x12
    125c:	f3 89       	ldd	r31, Z+19	; 0x13
    125e:	e0 2d       	mov	r30, r0
    1260:	80 81       	ld	r24, Z
    1262:	8f 7d       	andi	r24, 0xDF	; 223
    1264:	80 83       	st	Z, r24
C:\Users\admin\AppData\Local\Arduino15\packages\MegaCore\hardware\avr\3.0.0\cores\MCUdude_corefiles/HardwareSerial.cpp:113
  }
}
    1266:	08 95       	ret

00001268 <HardwareSerial::write(unsigned char)>:
_ZN14HardwareSerial5writeEh():
C:\Users\admin\AppData\Local\Arduino15\packages\MegaCore\hardware\avr\3.0.0\cores\MCUdude_corefiles/HardwareSerial.cpp:223
  // If we get here, nothing is queued anymore (DRIE is disabled) and
  // the hardware finished tranmission (TXC is set).
}

size_t HardwareSerial::write(uint8_t c)
{
    1268:	ef 92       	push	r14
    126a:	ff 92       	push	r15
    126c:	0f 93       	push	r16
    126e:	1f 93       	push	r17
    1270:	cf 93       	push	r28
    1272:	df 93       	push	r29
    1274:	ec 01       	movw	r28, r24
C:\Users\admin\AppData\Local\Arduino15\packages\MegaCore\hardware\avr\3.0.0\cores\MCUdude_corefiles/HardwareSerial.cpp:224
  _written = true;
    1276:	81 e0       	ldi	r24, 0x01	; 1
    1278:	88 8f       	std	Y+24, r24	; 0x18
C:\Users\admin\AppData\Local\Arduino15\packages\MegaCore\hardware\avr\3.0.0\cores\MCUdude_corefiles/HardwareSerial.cpp:229
  // If the buffer and the data register is empty, just write the byte
  // to the data register and be done. This shortcut helps
  // significantly improve the effective datarate at high (>
  // 500kbit/s) bitrates, where interrupt overhead becomes a slowdown.
  if (_tx_buffer_head == _tx_buffer_tail && bit_is_set(*_ucsra, UDRE0)) {
    127a:	9b 8d       	ldd	r25, Y+27	; 0x1b
    127c:	8c 8d       	ldd	r24, Y+28	; 0x1c
    127e:	98 13       	cpse	r25, r24
    1280:	1a c0       	rjmp	.+52     	; 0x12b6 <HardwareSerial::write(unsigned char)+0x4e>
    1282:	e8 89       	ldd	r30, Y+16	; 0x10
    1284:	f9 89       	ldd	r31, Y+17	; 0x11
    1286:	80 81       	ld	r24, Z
    1288:	85 ff       	sbrs	r24, 5
    128a:	15 c0       	rjmp	.+42     	; 0x12b6 <HardwareSerial::write(unsigned char)+0x4e>
C:\Users\admin\AppData\Local\Arduino15\packages\MegaCore\hardware\avr\3.0.0\cores\MCUdude_corefiles/HardwareSerial.cpp:238
    // So writing UDR must happen first.
    // Writing UDR and clearing TC must be done atomically, otherwise
    // interrupts might delay the TXC clear so the byte written to UDR
    // is transmitted (setting TXC) before clearing TXC. Then TXC will
    // be cleared when no bytes are left, causing flush() to hang
    ATOMIC_BLOCK(ATOMIC_RESTORESTATE) {
    128c:	9f b7       	in	r25, 0x3f	; 63
__iCliRetVal():
c:\users\admin\appdata\local\arduino15\packages\arduino\tools\avr-gcc\7.3.0-atmel3.6.1-arduino7\avr\include\util/atomic.h:50
    return 1;
}

static __inline__ uint8_t __iCliRetVal(void)
{
    cli();
    128e:	f8 94       	cli
_ZN14HardwareSerial5writeEh():
C:\Users\admin\AppData\Local\Arduino15\packages\MegaCore\hardware\avr\3.0.0\cores\MCUdude_corefiles/HardwareSerial.cpp:239
      *_udr = c;
    1290:	ee 89       	ldd	r30, Y+22	; 0x16
    1292:	ff 89       	ldd	r31, Y+23	; 0x17
    1294:	60 83       	st	Z, r22
C:\Users\admin\AppData\Local\Arduino15\packages\MegaCore\hardware\avr\3.0.0\cores\MCUdude_corefiles/HardwareSerial.cpp:241
      #ifdef MPCM0
        *_ucsra = ((*_ucsra) & ((1 << U2X0) | (1 << MPCM0))) | (1 << TXC0);
    1296:	e8 89       	ldd	r30, Y+16	; 0x10
    1298:	f9 89       	ldd	r31, Y+17	; 0x11
    129a:	80 81       	ld	r24, Z
    129c:	83 70       	andi	r24, 0x03	; 3
    129e:	80 64       	ori	r24, 0x40	; 64
C:\Users\admin\AppData\Local\Arduino15\packages\MegaCore\hardware\avr\3.0.0\cores\MCUdude_corefiles/HardwareSerial.cpp:271
  // make atomic to prevent execution of ISR between setting the
  // head pointer and setting the interrupt flag resulting in buffer
  // retransmission
  ATOMIC_BLOCK(ATOMIC_RESTORESTATE) {
    _tx_buffer_head = i;
    *_ucsrb |= _BV(UDRIE0);
    12a0:	80 83       	st	Z, r24
__iRestore():
c:\users\admin\appdata\local\arduino15\packages\arduino\tools\avr-gcc\7.3.0-atmel3.6.1-arduino7\avr\include\util/atomic.h:70
    (void)__s;
}

static __inline__ void __iRestore(const  uint8_t *__s)
{
    SREG = *__s;
    12a2:	9f bf       	out	0x3f, r25	; 63
_ZN14HardwareSerial5writeEh():
C:\Users\admin\AppData\Local\Arduino15\packages\MegaCore\hardware\avr\3.0.0\cores\MCUdude_corefiles/HardwareSerial.cpp:275
  }
  
  return 1;
}
    12a4:	81 e0       	ldi	r24, 0x01	; 1
    12a6:	90 e0       	ldi	r25, 0x00	; 0
    12a8:	df 91       	pop	r29
    12aa:	cf 91       	pop	r28
    12ac:	1f 91       	pop	r17
    12ae:	0f 91       	pop	r16
    12b0:	ff 90       	pop	r15
    12b2:	ef 90       	pop	r14
    12b4:	08 95       	ret
    12b6:	f6 2e       	mov	r15, r22
C:\Users\admin\AppData\Local\Arduino15\packages\MegaCore\hardware\avr\3.0.0\cores\MCUdude_corefiles/HardwareSerial.cpp:248
        *_ucsra = ((*_ucsra) & ((1 << U2X0) | (1 << TXC0)));
      #endif
    }
    return 1;
  }
  tx_buffer_index_t i = (_tx_buffer_head + 1) % SERIAL_TX_BUFFER_SIZE;
    12b8:	0b 8d       	ldd	r16, Y+27	; 0x1b
    12ba:	10 e0       	ldi	r17, 0x00	; 0
    12bc:	0f 5f       	subi	r16, 0xFF	; 255
    12be:	1f 4f       	sbci	r17, 0xFF	; 255
    12c0:	0f 73       	andi	r16, 0x3F	; 63
    12c2:	11 27       	eor	r17, r17
    12c4:	e0 2e       	mov	r14, r16
C:\Users\admin\AppData\Local\Arduino15\packages\MegaCore\hardware\avr\3.0.0\cores\MCUdude_corefiles/HardwareSerial.cpp:252

  // If the output buffer is full, there's nothing for it other than to 
  // wait for the interrupt handler to empty it a bit
  while (i == _tx_buffer_tail) {
    12c6:	8c 8d       	ldd	r24, Y+28	; 0x1c
    12c8:	8e 11       	cpse	r24, r14
    12ca:	0c c0       	rjmp	.+24     	; 0x12e4 <HardwareSerial::write(unsigned char)+0x7c>
C:\Users\admin\AppData\Local\Arduino15\packages\MegaCore\hardware\avr\3.0.0\cores\MCUdude_corefiles/HardwareSerial.cpp:253
    if (bit_is_clear(SREG, SREG_I)) {
    12cc:	0f b6       	in	r0, 0x3f	; 63
    12ce:	07 fc       	sbrc	r0, 7
    12d0:	fa cf       	rjmp	.-12     	; 0x12c6 <HardwareSerial::write(unsigned char)+0x5e>
C:\Users\admin\AppData\Local\Arduino15\packages\MegaCore\hardware\avr\3.0.0\cores\MCUdude_corefiles/HardwareSerial.cpp:258
      // Interrupts are disabled, so we'll have to poll the data
      // register empty flag ourselves. If it is set, pretend an
      // interrupt has happened and call the handler to free up
      // space for us.
      if(bit_is_set(*_ucsra, UDRE0))
    12d2:	e8 89       	ldd	r30, Y+16	; 0x10
    12d4:	f9 89       	ldd	r31, Y+17	; 0x11
    12d6:	80 81       	ld	r24, Z
    12d8:	85 ff       	sbrs	r24, 5
    12da:	f5 cf       	rjmp	.-22     	; 0x12c6 <HardwareSerial::write(unsigned char)+0x5e>
C:\Users\admin\AppData\Local\Arduino15\packages\MegaCore\hardware\avr\3.0.0\cores\MCUdude_corefiles/HardwareSerial.cpp:259
        _tx_udr_empty_irq();
    12dc:	ce 01       	movw	r24, r28
    12de:	0e 94 12 09 	call	0x1224	; 0x1224 <HardwareSerial::_tx_udr_empty_irq()>
    12e2:	f1 cf       	rjmp	.-30     	; 0x12c6 <HardwareSerial::write(unsigned char)+0x5e>
C:\Users\admin\AppData\Local\Arduino15\packages\MegaCore\hardware\avr\3.0.0\cores\MCUdude_corefiles/HardwareSerial.cpp:265
    } else {
      // nop, the interrupt handler will free up space for us
    }
  }

  _tx_buffer[_tx_buffer_head] = c;
    12e4:	eb 8d       	ldd	r30, Y+27	; 0x1b
    12e6:	ec 0f       	add	r30, r28
    12e8:	fd 2f       	mov	r31, r29
    12ea:	f1 1d       	adc	r31, r1
    12ec:	e3 5a       	subi	r30, 0xA3	; 163
    12ee:	ff 4f       	sbci	r31, 0xFF	; 255
    12f0:	f0 82       	st	Z, r15
C:\Users\admin\AppData\Local\Arduino15\packages\MegaCore\hardware\avr\3.0.0\cores\MCUdude_corefiles/HardwareSerial.cpp:269
  // make atomic to prevent execution of ISR between setting the
  // head pointer and setting the interrupt flag resulting in buffer
  // retransmission
  ATOMIC_BLOCK(ATOMIC_RESTORESTATE) {
    12f2:	9f b7       	in	r25, 0x3f	; 63
__iCliRetVal():
c:\users\admin\appdata\local\arduino15\packages\arduino\tools\avr-gcc\7.3.0-atmel3.6.1-arduino7\avr\include\util/atomic.h:50
    return 1;
}

static __inline__ uint8_t __iCliRetVal(void)
{
    cli();
    12f4:	f8 94       	cli
_ZN14HardwareSerial5writeEh():
C:\Users\admin\AppData\Local\Arduino15\packages\MegaCore\hardware\avr\3.0.0\cores\MCUdude_corefiles/HardwareSerial.cpp:270
    _tx_buffer_head = i;
    12f6:	0b 8f       	std	Y+27, r16	; 0x1b
C:\Users\admin\AppData\Local\Arduino15\packages\MegaCore\hardware\avr\3.0.0\cores\MCUdude_corefiles/HardwareSerial.cpp:271
    *_ucsrb |= _BV(UDRIE0);
    12f8:	ea 89       	ldd	r30, Y+18	; 0x12
    12fa:	fb 89       	ldd	r31, Y+19	; 0x13
    12fc:	80 81       	ld	r24, Z
    12fe:	80 62       	ori	r24, 0x20	; 32
    1300:	cf cf       	rjmp	.-98     	; 0x12a0 <HardwareSerial::write(unsigned char)+0x38>

00001302 <HardwareSerial::flush()>:
_ZN14HardwareSerial5flushEv():
C:\Users\admin\AppData\Local\Arduino15\packages\MegaCore\hardware\avr\3.0.0\cores\MCUdude_corefiles/HardwareSerial.cpp:203
  if (head >= tail) return SERIAL_TX_BUFFER_SIZE - 1 - head + tail;
  return tail - head - 1;
}

void HardwareSerial::flush()
{
    1302:	cf 93       	push	r28
    1304:	df 93       	push	r29
    1306:	ec 01       	movw	r28, r24
C:\Users\admin\AppData\Local\Arduino15\packages\MegaCore\hardware\avr\3.0.0\cores\MCUdude_corefiles/HardwareSerial.cpp:207
  // If we have never written a byte, no need to flush. This special
  // case is needed since there is no way to force the TXC (transmit
  // complete) bit to 1 during initialization
  if (!_written)
    1308:	88 8d       	ldd	r24, Y+24	; 0x18
    130a:	88 23       	and	r24, r24
    130c:	b9 f0       	breq	.+46     	; 0x133c <HardwareSerial::flush()+0x3a>
C:\Users\admin\AppData\Local\Arduino15\packages\MegaCore\hardware\avr\3.0.0\cores\MCUdude_corefiles/HardwareSerial.cpp:210
    return;

  while (bit_is_set(*_ucsrb, UDRIE0) || bit_is_clear(*_ucsra, TXC0)) {
    130e:	aa 89       	ldd	r26, Y+18	; 0x12
    1310:	bb 89       	ldd	r27, Y+19	; 0x13
    1312:	e8 89       	ldd	r30, Y+16	; 0x10
    1314:	f9 89       	ldd	r31, Y+17	; 0x11
    1316:	8c 91       	ld	r24, X
    1318:	85 fd       	sbrc	r24, 5
    131a:	03 c0       	rjmp	.+6      	; 0x1322 <HardwareSerial::flush()+0x20>
    131c:	80 81       	ld	r24, Z
    131e:	86 fd       	sbrc	r24, 6
    1320:	0d c0       	rjmp	.+26     	; 0x133c <HardwareSerial::flush()+0x3a>
C:\Users\admin\AppData\Local\Arduino15\packages\MegaCore\hardware\avr\3.0.0\cores\MCUdude_corefiles/HardwareSerial.cpp:211
    if (bit_is_clear(SREG, SREG_I) && bit_is_set(*_ucsrb, UDRIE0))
    1322:	0f b6       	in	r0, 0x3f	; 63
    1324:	07 fc       	sbrc	r0, 7
    1326:	f7 cf       	rjmp	.-18     	; 0x1316 <HardwareSerial::flush()+0x14>
    1328:	8c 91       	ld	r24, X
    132a:	85 ff       	sbrs	r24, 5
    132c:	f2 cf       	rjmp	.-28     	; 0x1312 <HardwareSerial::flush()+0x10>
C:\Users\admin\AppData\Local\Arduino15\packages\MegaCore\hardware\avr\3.0.0\cores\MCUdude_corefiles/HardwareSerial.cpp:215
      // Interrupts are globally disabled, but the DR empty
      // interrupt should be enabled, so poll the DR empty flag to
      // prevent deadlock
      if (bit_is_set(*_ucsra, UDRE0))
    132e:	80 81       	ld	r24, Z
    1330:	85 ff       	sbrs	r24, 5
    1332:	ed cf       	rjmp	.-38     	; 0x130e <HardwareSerial::flush()+0xc>
C:\Users\admin\AppData\Local\Arduino15\packages\MegaCore\hardware\avr\3.0.0\cores\MCUdude_corefiles/HardwareSerial.cpp:216
        _tx_udr_empty_irq();
    1334:	ce 01       	movw	r24, r28
    1336:	0e 94 12 09 	call	0x1224	; 0x1224 <HardwareSerial::_tx_udr_empty_irq()>
    133a:	e9 cf       	rjmp	.-46     	; 0x130e <HardwareSerial::flush()+0xc>
C:\Users\admin\AppData\Local\Arduino15\packages\MegaCore\hardware\avr\3.0.0\cores\MCUdude_corefiles/HardwareSerial.cpp:220
  }
  // If we get here, nothing is queued anymore (DRIE is disabled) and
  // the hardware finished tranmission (TXC is set).
}
    133c:	df 91       	pop	r29
    133e:	cf 91       	pop	r28
    1340:	08 95       	ret

00001342 <serialEventRun()>:
_Z14serialEventRunv():
C:\Users\admin\AppData\Local\Arduino15\packages\MegaCore\hardware\avr\3.0.0\cores\MCUdude_corefiles/HardwareSerial.cpp:67
#endif

void serialEventRun(void)
{
#if defined(HAVE_HWSERIAL0)
  if (Serial0_available && serialEvent && Serial0_available()) serialEvent();
    1342:	80 e0       	ldi	r24, 0x00	; 0
    1344:	90 e0       	ldi	r25, 0x00	; 0
    1346:	89 2b       	or	r24, r25
    1348:	29 f0       	breq	.+10     	; 0x1354 <serialEventRun()+0x12>
    134a:	0e 94 08 09 	call	0x1210	; 0x1210 <Serial0_available()>
    134e:	81 11       	cpse	r24, r1
    1350:	0e 94 00 00 	call	0	; 0x0 <__vectors>
C:\Users\admin\AppData\Local\Arduino15\packages\MegaCore\hardware\avr\3.0.0\cores\MCUdude_corefiles/HardwareSerial.cpp:70
#endif
#if defined(HAVE_HWSERIAL1)
  if (Serial1_available && serialEvent1 && Serial1_available()) serialEvent1();
    1354:	80 e0       	ldi	r24, 0x00	; 0
    1356:	90 e0       	ldi	r25, 0x00	; 0
    1358:	89 2b       	or	r24, r25
    135a:	49 f0       	breq	.+18     	; 0x136e <serialEventRun()+0x2c>
    135c:	80 e0       	ldi	r24, 0x00	; 0
    135e:	90 e0       	ldi	r25, 0x00	; 0
    1360:	89 2b       	or	r24, r25
    1362:	29 f0       	breq	.+10     	; 0x136e <serialEventRun()+0x2c>
    1364:	0e 94 00 00 	call	0	; 0x0 <__vectors>
    1368:	81 11       	cpse	r24, r1
    136a:	0e 94 00 00 	call	0	; 0x0 <__vectors>
C:\Users\admin\AppData\Local\Arduino15\packages\MegaCore\hardware\avr\3.0.0\cores\MCUdude_corefiles/HardwareSerial.cpp:73
#endif
#if defined(HAVE_HWSERIAL2)
  if (Serial2_available && serialEvent2 && Serial2_available()) serialEvent2();
    136e:	80 e0       	ldi	r24, 0x00	; 0
    1370:	90 e0       	ldi	r25, 0x00	; 0
    1372:	89 2b       	or	r24, r25
    1374:	49 f0       	breq	.+18     	; 0x1388 <serialEventRun()+0x46>
    1376:	80 e0       	ldi	r24, 0x00	; 0
    1378:	90 e0       	ldi	r25, 0x00	; 0
    137a:	89 2b       	or	r24, r25
    137c:	29 f0       	breq	.+10     	; 0x1388 <serialEventRun()+0x46>
    137e:	0e 94 00 00 	call	0	; 0x0 <__vectors>
    1382:	81 11       	cpse	r24, r1
    1384:	0e 94 00 00 	call	0	; 0x0 <__vectors>
C:\Users\admin\AppData\Local\Arduino15\packages\MegaCore\hardware\avr\3.0.0\cores\MCUdude_corefiles/HardwareSerial.cpp:76
#endif
#if defined(HAVE_HWSERIAL3)
  if (Serial3_available && serialEvent3 && Serial3_available()) serialEvent3();
    1388:	80 e0       	ldi	r24, 0x00	; 0
    138a:	90 e0       	ldi	r25, 0x00	; 0
    138c:	89 2b       	or	r24, r25
    138e:	29 f0       	breq	.+10     	; 0x139a <serialEventRun()+0x58>
    1390:	0e 94 fe 08 	call	0x11fc	; 0x11fc <Serial3_available()>
    1394:	81 11       	cpse	r24, r1
    1396:	0c 94 00 00 	jmp	0	; 0x0 <__vectors>
C:\Users\admin\AppData\Local\Arduino15\packages\MegaCore\hardware\avr\3.0.0\cores\MCUdude_corefiles/HardwareSerial.cpp:78
#endif
}
    139a:	08 95       	ret

0000139c <twi_stop>:
twi_stop():
C:\Users\admin\AppData\Local\Arduino15\packages\MegaCore\hardware\avr\3.0.0\libraries\Wire\src\TwoWire\utility/twi.c:430
 * Output   none
 */
void twi_stop(void)
{
  // send stop condition
  TWCR = _BV(TWEN) | _BV(TWIE) | _BV(TWEA) | _BV(TWINT) | _BV(TWSTO);
    139c:	85 ed       	ldi	r24, 0xD5	; 213
    139e:	80 93 bc 00 	sts	0x00BC, r24	; 0x8000bc <__TEXT_REGION_LENGTH__+0x7000bc>
C:\Users\admin\AppData\Local\Arduino15\packages\MegaCore\hardware\avr\3.0.0\libraries\Wire\src\TwoWire\utility/twi.c:450
          return;
        }
      }
    }
  #else
    while(TWCR & _BV(TWSTO)){
    13a2:	80 91 bc 00 	lds	r24, 0x00BC	; 0x8000bc <__TEXT_REGION_LENGTH__+0x7000bc>
    13a6:	84 fd       	sbrc	r24, 4
    13a8:	fc cf       	rjmp	.-8      	; 0x13a2 <twi_stop+0x6>
C:\Users\admin\AppData\Local\Arduino15\packages\MegaCore\hardware\avr\3.0.0\libraries\Wire\src\TwoWire\utility/twi.c:456
      continue;
    }
  #endif

  // update twi state
  twi_state = TWI_READY;
    13aa:	10 92 6a 03 	sts	0x036A, r1	; 0x80036a <twi_state>
C:\Users\admin\AppData\Local\Arduino15\packages\MegaCore\hardware\avr\3.0.0\libraries\Wire\src\TwoWire\utility/twi.c:457
}
    13ae:	08 95       	ret

000013b0 <twi_transmit>:
twi_transmit():
C:\Users\admin\AppData\Local\Arduino15\packages\MegaCore\hardware\avr\3.0.0\libraries\Wire\src\TwoWire\utility/twi.c:365
uint8_t twi_transmit(const uint8_t* data, uint8_t length)
{
  uint8_t i;

  // ensure data will fit into buffer
  if(TWI_BUFFER_SIZE < (twi_txBufferLength+length)){
    13b0:	20 91 46 03 	lds	r18, 0x0346	; 0x800346 <twi_txBufferLength>
    13b4:	26 0f       	add	r18, r22
    13b6:	33 27       	eor	r19, r19
    13b8:	33 1f       	adc	r19, r19
    13ba:	21 32       	cpi	r18, 0x21	; 33
    13bc:	31 05       	cpc	r19, r1
    13be:	ec f4       	brge	.+58     	; 0x13fa <twi_transmit+0x4a>
C:\Users\admin\AppData\Local\Arduino15\packages\MegaCore\hardware\avr\3.0.0\libraries\Wire\src\TwoWire\utility/twi.c:370
    return 1;
  }

  // ensure we are currently a slave transmitter
  if(TWI_STX != twi_state){
    13c0:	20 91 6a 03 	lds	r18, 0x036A	; 0x80036a <twi_state>
    13c4:	fc 01       	movw	r30, r24
    13c6:	90 e0       	ldi	r25, 0x00	; 0
    13c8:	80 e0       	ldi	r24, 0x00	; 0
    13ca:	24 30       	cpi	r18, 0x04	; 4
    13cc:	69 f0       	breq	.+26     	; 0x13e8 <twi_transmit+0x38>
C:\Users\admin\AppData\Local\Arduino15\packages\MegaCore\hardware\avr\3.0.0\libraries\Wire\src\TwoWire\utility/twi.c:371
    return 2;
    13ce:	82 e0       	ldi	r24, 0x02	; 2
C:\Users\admin\AppData\Local\Arduino15\packages\MegaCore\hardware\avr\3.0.0\libraries\Wire\src\TwoWire\utility/twi.c:381
    twi_txBuffer[twi_txBufferLength+i] = data[i];
  }
  twi_txBufferLength += length;

  return 0;
}
    13d0:	08 95       	ret
C:\Users\admin\AppData\Local\Arduino15\packages\MegaCore\hardware\avr\3.0.0\libraries\Wire\src\TwoWire\utility/twi.c:376
    return 2;
  }

  // set length and copy data into tx buffer
  for(i = 0; i < length; ++i){
    twi_txBuffer[twi_txBufferLength+i] = data[i];
    13d2:	a0 91 46 03 	lds	r26, 0x0346	; 0x800346 <twi_txBufferLength>
    13d6:	21 91       	ld	r18, Z+
    13d8:	ac 01       	movw	r20, r24
    13da:	4a 5d       	subi	r20, 0xDA	; 218
    13dc:	5c 4f       	sbci	r21, 0xFC	; 252
    13de:	a4 0f       	add	r26, r20
    13e0:	b5 2f       	mov	r27, r21
    13e2:	b1 1d       	adc	r27, r1
    13e4:	2c 93       	st	X, r18
    13e6:	01 96       	adiw	r24, 0x01	; 1
C:\Users\admin\AppData\Local\Arduino15\packages\MegaCore\hardware\avr\3.0.0\libraries\Wire\src\TwoWire\utility/twi.c:375
  if(TWI_STX != twi_state){
    return 2;
  }

  // set length and copy data into tx buffer
  for(i = 0; i < length; ++i){
    13e8:	86 17       	cp	r24, r22
    13ea:	98 f3       	brcs	.-26     	; 0x13d2 <twi_transmit+0x22>
C:\Users\admin\AppData\Local\Arduino15\packages\MegaCore\hardware\avr\3.0.0\libraries\Wire\src\TwoWire\utility/twi.c:378
    twi_txBuffer[twi_txBufferLength+i] = data[i];
  }
  twi_txBufferLength += length;
    13ec:	80 91 46 03 	lds	r24, 0x0346	; 0x800346 <twi_txBufferLength>
    13f0:	68 0f       	add	r22, r24
    13f2:	60 93 46 03 	sts	0x0346, r22	; 0x800346 <twi_txBufferLength>
    13f6:	80 e0       	ldi	r24, 0x00	; 0
    13f8:	08 95       	ret
C:\Users\admin\AppData\Local\Arduino15\packages\MegaCore\hardware\avr\3.0.0\libraries\Wire\src\TwoWire\utility/twi.c:366
{
  uint8_t i;

  // ensure data will fit into buffer
  if(TWI_BUFFER_SIZE < (twi_txBufferLength+length)){
    return 1;
    13fa:	81 e0       	ldi	r24, 0x01	; 1
    13fc:	08 95       	ret

000013fe <TwoWire::flush()>:
_ZN7TwoWire5flushEv():
C:\Users\admin\AppData\Local\Arduino15\packages\MegaCore\hardware\avr\3.0.0\libraries\Wire\src\TwoWire/TwoWire.cpp:328
}

void TwoWire::flush(void)
{
  // XXX: to be implemented.
}
    13fe:	08 95       	ret

00001400 <TwoWire::peek()>:
_ZN7TwoWire4peekEv():
C:\Users\admin\AppData\Local\Arduino15\packages\MegaCore\hardware\avr\3.0.0\libraries\Wire\src\TwoWire/TwoWire.cpp:323
  if(rxBufferIndex < rxBufferLength){
    value = rxBuffer[rxBufferIndex];
  }

  return value;
}
    1400:	8f ef       	ldi	r24, 0xFF	; 255
    1402:	9f ef       	ldi	r25, 0xFF	; 255
    1404:	08 95       	ret

00001406 <TwoWire::read()>:
_ZN7TwoWire4readEv():
C:\Users\admin\AppData\Local\Arduino15\packages\MegaCore\hardware\avr\3.0.0\libraries\Wire\src\TwoWire/TwoWire.cpp:309
    value = rxBuffer[rxBufferIndex];
    ++rxBufferIndex;
  }

  return value;
}
    1406:	8f ef       	ldi	r24, 0xFF	; 255
    1408:	9f ef       	ldi	r25, 0xFF	; 255
    140a:	08 95       	ret

0000140c <TwoWire::available()>:
_ZN7TwoWire9availableEv():
C:\Users\admin\AppData\Local\Arduino15\packages\MegaCore\hardware\avr\3.0.0\libraries\Wire\src\TwoWire/TwoWire.cpp:292
// must be called in:
// slave rx event callback
// or after requestFrom(address, numBytes)
int TwoWire::available(void)
{
  return rxBufferLength - rxBufferIndex;
    140c:	80 91 25 03 	lds	r24, 0x0325	; 0x800325 <TwoWire::rxBufferIndex>
    1410:	90 e0       	ldi	r25, 0x00	; 0
C:\Users\admin\AppData\Local\Arduino15\packages\MegaCore\hardware\avr\3.0.0\libraries\Wire\src\TwoWire/TwoWire.cpp:293
}
    1412:	91 95       	neg	r25
    1414:	81 95       	neg	r24
    1416:	91 09       	sbc	r25, r1
    1418:	08 95       	ret

0000141a <TwoWire::write(unsigned char const*, unsigned int)>:
_ZN7TwoWire5writeEPKhj():
C:\Users\admin\AppData\Local\Arduino15\packages\MegaCore\hardware\avr\3.0.0\libraries\Wire\src\TwoWire/TwoWire.cpp:273

// must be called in:
// slave tx event callback
// or after beginTransmission(address)
size_t TwoWire::write(const uint8_t *data, size_t quantity)
{
    141a:	cf 93       	push	r28
    141c:	df 93       	push	r29
    141e:	cb 01       	movw	r24, r22
    1420:	ea 01       	movw	r28, r20
C:\Users\admin\AppData\Local\Arduino15\packages\MegaCore\hardware\avr\3.0.0\libraries\Wire\src\TwoWire/TwoWire.cpp:282
      write(data[i]);
    }
  }else{
  // in slave send mode
    // reply to master
    twi_transmit(data, quantity);
    1422:	64 2f       	mov	r22, r20
    1424:	0e 94 d8 09 	call	0x13b0	; 0x13b0 <twi_transmit>
C:\Users\admin\AppData\Local\Arduino15\packages\MegaCore\hardware\avr\3.0.0\libraries\Wire\src\TwoWire/TwoWire.cpp:285
  }
  return quantity;
}
    1428:	ce 01       	movw	r24, r28
    142a:	df 91       	pop	r29
    142c:	cf 91       	pop	r28
    142e:	08 95       	ret

00001430 <TwoWire::write(unsigned char)>:
_ZN7TwoWire5writeEh():
C:\Users\admin\AppData\Local\Arduino15\packages\MegaCore\hardware\avr\3.0.0\libraries\Wire\src\TwoWire/TwoWire.cpp:248

// must be called in:
// slave tx event callback
// or after beginTransmission(address)
size_t TwoWire::write(uint8_t data)
{
    1430:	cf 93       	push	r28
    1432:	df 93       	push	r29
    1434:	1f 92       	push	r1
    1436:	cd b7       	in	r28, 0x3d	; 61
    1438:	de b7       	in	r29, 0x3e	; 62
    143a:	69 83       	std	Y+1, r22	; 0x01
C:\Users\admin\AppData\Local\Arduino15\packages\MegaCore\hardware\avr\3.0.0\libraries\Wire\src\TwoWire/TwoWire.cpp:264
    // update amount in buffer
    txBufferLength = txBufferIndex;
  }else{
  // in slave send mode
    // reply to master
    twi_transmit(&data, 1);
    143c:	61 e0       	ldi	r22, 0x01	; 1
    143e:	ce 01       	movw	r24, r28
    1440:	01 96       	adiw	r24, 0x01	; 1
    1442:	0e 94 d8 09 	call	0x13b0	; 0x13b0 <twi_transmit>
C:\Users\admin\AppData\Local\Arduino15\packages\MegaCore\hardware\avr\3.0.0\libraries\Wire\src\TwoWire/TwoWire.cpp:267
  }
  return 1;
}
    1446:	81 e0       	ldi	r24, 0x01	; 1
    1448:	90 e0       	ldi	r25, 0x00	; 0
    144a:	0f 90       	pop	r0
    144c:	df 91       	pop	r29
    144e:	cf 91       	pop	r28
    1450:	08 95       	ret

00001452 <Print::availableForWrite()>:
_ZN5Print17availableForWriteEv():
C:\Users\admin\AppData\Local\Arduino15\packages\MegaCore\hardware\avr\3.0.0\cores\MCUdude_corefiles/Print.h:63
      return write((const uint8_t *)buffer, size);
    }

    // default to zero, meaning "a single write may block"
    // should be overriden by subclasses with buffering
    virtual int availableForWrite() { return 0; }
    1452:	90 e0       	ldi	r25, 0x00	; 0
    1454:	80 e0       	ldi	r24, 0x00	; 0
    1456:	08 95       	ret

00001458 <out_buffer(char, void*, unsigned int, unsigned int)>:
_ZL10out_buffercPvjj():
c:\users\admin\documents\arduino\libraries\libprintf\extras\printf/printf.c:228


// internal buffer output
static inline void out_buffer(char character, void* buffer, size_t idx, size_t maxlen)
{
  if (idx < maxlen) {
    1458:	42 17       	cp	r20, r18
    145a:	53 07       	cpc	r21, r19
    145c:	20 f4       	brcc	.+8      	; 0x1466 <out_buffer(char, void*, unsigned int, unsigned int)+0xe>
c:\users\admin\documents\arduino\libraries\libprintf\extras\printf/printf.c:229
    ((char*)buffer)[idx] = character;
    145e:	64 0f       	add	r22, r20
    1460:	75 1f       	adc	r23, r21
    1462:	fb 01       	movw	r30, r22
    1464:	80 83       	st	Z, r24
c:\users\admin\documents\arduino\libraries\libprintf\extras\printf/printf.c:231
  }
}
    1466:	08 95       	ret

00001468 <out_discard(char, void*, unsigned int, unsigned int)>:
_ZL11out_discardcPvjj():
c:\users\admin\documents\arduino\libraries\libprintf\extras\printf/printf.c:238

// internal null output
static inline void out_discard(char character, void* buffer, size_t idx, size_t maxlen)
{
  (void)character; (void)buffer; (void)idx; (void)maxlen;
}
    1468:	08 95       	ret

0000146a <get_components(double, unsigned int)>:
_ZL14get_componentsdj():
c:\users\admin\documents\arduino\libraries\libprintf\extras\printf/printf.c:442

// Break up a double number - which is known to be a finite non-negative number -
// into its base-10 parts: integral - before the decimal point, and fractional - after it.
// Taken the precision into account, but does not change it even internally.
static struct double_components get_components(double number, unsigned int precision)
{
    146a:	2f 92       	push	r2
    146c:	3f 92       	push	r3
    146e:	4f 92       	push	r4
    1470:	5f 92       	push	r5
    1472:	6f 92       	push	r6
    1474:	7f 92       	push	r7
    1476:	8f 92       	push	r8
    1478:	9f 92       	push	r9
    147a:	af 92       	push	r10
    147c:	bf 92       	push	r11
    147e:	cf 92       	push	r12
    1480:	df 92       	push	r13
    1482:	ef 92       	push	r14
    1484:	ff 92       	push	r15
    1486:	0f 93       	push	r16
    1488:	1f 93       	push	r17
    148a:	cf 93       	push	r28
    148c:	df 93       	push	r29
    148e:	cd b7       	in	r28, 0x3d	; 61
    1490:	de b7       	in	r29, 0x3e	; 62
    1492:	60 97       	sbiw	r28, 0x10	; 16
    1494:	0f b6       	in	r0, 0x3f	; 63
    1496:	f8 94       	cli
    1498:	de bf       	out	0x3e, r29	; 62
    149a:	0f be       	out	0x3f, r0	; 63
    149c:	cd bf       	out	0x3d, r28	; 61
    149e:	98 8b       	std	Y+16, r25	; 0x10
    14a0:	8f 87       	std	Y+15, r24	; 0x0f
    14a2:	6a 01       	movw	r12, r20
    14a4:	7b 01       	movw	r14, r22
    14a6:	3e 87       	std	Y+14, r19	; 0x0e
    14a8:	2d 87       	std	Y+13, r18	; 0x0d
get_sign():
c:\users\admin\documents\arduino\libraries\libprintf\extras\printf/printf.c:194
}

static inline int get_sign(double x)
{
  // The sign is stored in the highest bit
  return get_bit_access(x).U >> (DOUBLE_SIZE_IN_BITS - 1);
    14aa:	db 01       	movw	r26, r22
    14ac:	ca 01       	movw	r24, r20
    14ae:	88 27       	eor	r24, r24
    14b0:	b7 fd       	sbrc	r27, 7
    14b2:	83 95       	inc	r24
    14b4:	99 27       	eor	r25, r25
    14b6:	aa 27       	eor	r26, r26
    14b8:	bb 27       	eor	r27, r27
_ZL14get_componentsdj():
c:\users\admin\documents\arduino\libraries\libprintf\extras\printf/printf.c:444
// into its base-10 parts: integral - before the decimal point, and fractional - after it.
// Taken the precision into account, but does not change it even internally.
static struct double_components get_components(double number, unsigned int precision)
{
  struct double_components number_;
  number_.is_negative = get_sign(number);
    14ba:	28 2f       	mov	r18, r24
    14bc:	21 70       	andi	r18, 0x01	; 1
    14be:	ef 85       	ldd	r30, Y+15	; 0x0f
    14c0:	f8 89       	ldd	r31, Y+16	; 0x10
    14c2:	20 8b       	std	Z+16, r18	; 0x10
c:\users\admin\documents\arduino\libraries\libprintf\extras\printf/printf.c:445
  double abs_number = (number_.is_negative) ? -number : number;
    14c4:	89 2b       	or	r24, r25
    14c6:	21 f0       	breq	.+8      	; 0x14d0 <get_components(double, unsigned int)+0x66>
    14c8:	f7 fa       	bst	r15, 7
    14ca:	f0 94       	com	r15
    14cc:	f7 f8       	bld	r15, 7
    14ce:	f0 94       	com	r15
c:\users\admin\documents\arduino\libraries\libprintf\extras\printf/printf.c:446
  number_.integral = (int_fast64_t)abs_number;
    14d0:	c7 01       	movw	r24, r14
    14d2:	b6 01       	movw	r22, r12
    14d4:	0e 94 4f 25 	call	0x4a9e	; 0x4a9e <__fixsfdi>
    14d8:	29 83       	std	Y+1, r18	; 0x01
    14da:	3a 83       	std	Y+2, r19	; 0x02
    14dc:	4b 83       	std	Y+3, r20	; 0x03
    14de:	5c 83       	std	Y+4, r21	; 0x04
    14e0:	6d 83       	std	Y+5, r22	; 0x05
    14e2:	7e 83       	std	Y+6, r23	; 0x06
    14e4:	8f 83       	std	Y+7, r24	; 0x07
    14e6:	98 87       	std	Y+8, r25	; 0x08
    14e8:	af 85       	ldd	r26, Y+15	; 0x0f
    14ea:	b8 89       	ldd	r27, Y+16	; 0x10
    14ec:	2c 93       	st	X, r18
    14ee:	11 96       	adiw	r26, 0x01	; 1
    14f0:	3c 93       	st	X, r19
    14f2:	11 97       	sbiw	r26, 0x01	; 1
    14f4:	12 96       	adiw	r26, 0x02	; 2
    14f6:	4c 93       	st	X, r20
    14f8:	12 97       	sbiw	r26, 0x02	; 2
    14fa:	13 96       	adiw	r26, 0x03	; 3
    14fc:	5c 93       	st	X, r21
    14fe:	13 97       	sbiw	r26, 0x03	; 3
    1500:	14 96       	adiw	r26, 0x04	; 4
    1502:	6c 93       	st	X, r22
    1504:	14 97       	sbiw	r26, 0x04	; 4
    1506:	15 96       	adiw	r26, 0x05	; 5
    1508:	7c 93       	st	X, r23
    150a:	15 97       	sbiw	r26, 0x05	; 5
    150c:	8f 81       	ldd	r24, Y+7	; 0x07
    150e:	16 96       	adiw	r26, 0x06	; 6
    1510:	8c 93       	st	X, r24
    1512:	16 97       	sbiw	r26, 0x06	; 6
    1514:	98 85       	ldd	r25, Y+8	; 0x08
    1516:	17 96       	adiw	r26, 0x07	; 7
    1518:	9c 93       	st	X, r25
c:\users\admin\documents\arduino\libraries\libprintf\extras\printf/printf.c:447
  double remainder = (abs_number - number_.integral) * powers_of_10[precision];
    151a:	ed 85       	ldd	r30, Y+13	; 0x0d
    151c:	fe 85       	ldd	r31, Y+14	; 0x0e
    151e:	ee 0f       	add	r30, r30
    1520:	ff 1f       	adc	r31, r31
    1522:	ee 0f       	add	r30, r30
    1524:	ff 1f       	adc	r31, r31
    1526:	ea 5f       	subi	r30, 0xFA	; 250
    1528:	fd 4f       	sbci	r31, 0xFD	; 253
    152a:	80 81       	ld	r24, Z
    152c:	91 81       	ldd	r25, Z+1	; 0x01
    152e:	a2 81       	ldd	r26, Z+2	; 0x02
    1530:	b3 81       	ldd	r27, Z+3	; 0x03
    1532:	89 87       	std	Y+9, r24	; 0x09
    1534:	9a 87       	std	Y+10, r25	; 0x0a
    1536:	ab 87       	std	Y+11, r26	; 0x0b
    1538:	bc 87       	std	Y+12, r27	; 0x0c
    153a:	8f 81       	ldd	r24, Y+7	; 0x07
    153c:	98 85       	ldd	r25, Y+8	; 0x08
    153e:	0e 94 c1 25 	call	0x4b82	; 0x4b82 <__floatdisf>
    1542:	9b 01       	movw	r18, r22
    1544:	ac 01       	movw	r20, r24
    1546:	c7 01       	movw	r24, r14
    1548:	b6 01       	movw	r22, r12
    154a:	0e 94 6b 24 	call	0x48d6	; 0x48d6 <__subsf3>
    154e:	29 85       	ldd	r18, Y+9	; 0x09
    1550:	3a 85       	ldd	r19, Y+10	; 0x0a
    1552:	4b 85       	ldd	r20, Y+11	; 0x0b
    1554:	5c 85       	ldd	r21, Y+12	; 0x0c
    1556:	0e 94 cc 26 	call	0x4d98	; 0x4d98 <__mulsf3>
    155a:	2b 01       	movw	r4, r22
    155c:	3c 01       	movw	r6, r24
c:\users\admin\documents\arduino\libraries\libprintf\extras\printf/printf.c:448
  number_.fractional = (int_fast64_t)remainder;
    155e:	0e 94 4f 25 	call	0x4a9e	; 0x4a9e <__fixsfdi>
    1562:	82 2e       	mov	r8, r18
    1564:	23 2e       	mov	r2, r19
    1566:	34 2e       	mov	r3, r20
    1568:	95 2e       	mov	r9, r21
    156a:	5b 01       	movw	r10, r22
    156c:	8c 01       	movw	r16, r24
    156e:	af 85       	ldd	r26, Y+15	; 0x0f
    1570:	b8 89       	ldd	r27, Y+16	; 0x10
    1572:	18 96       	adiw	r26, 0x08	; 8
    1574:	2c 93       	st	X, r18
    1576:	18 97       	sbiw	r26, 0x08	; 8
    1578:	19 96       	adiw	r26, 0x09	; 9
    157a:	3c 93       	st	X, r19
    157c:	19 97       	sbiw	r26, 0x09	; 9
    157e:	1a 96       	adiw	r26, 0x0a	; 10
    1580:	4c 93       	st	X, r20
    1582:	1a 97       	sbiw	r26, 0x0a	; 10
    1584:	1b 96       	adiw	r26, 0x0b	; 11
    1586:	5c 93       	st	X, r21
    1588:	1b 97       	sbiw	r26, 0x0b	; 11
    158a:	1c 96       	adiw	r26, 0x0c	; 12
    158c:	6c 93       	st	X, r22
    158e:	1c 97       	sbiw	r26, 0x0c	; 12
    1590:	1d 96       	adiw	r26, 0x0d	; 13
    1592:	bc 92       	st	X, r11
    1594:	1d 97       	sbiw	r26, 0x0d	; 13
    1596:	1e 96       	adiw	r26, 0x0e	; 14
    1598:	8c 93       	st	X, r24
    159a:	1e 97       	sbiw	r26, 0x0e	; 14
    159c:	1f 96       	adiw	r26, 0x0f	; 15
    159e:	1c 93       	st	X, r17
c:\users\admin\documents\arduino\libraries\libprintf\extras\printf/printf.c:450

  remainder -= (double) number_.fractional;
    15a0:	0e 94 c1 25 	call	0x4b82	; 0x4b82 <__floatdisf>
    15a4:	9b 01       	movw	r18, r22
    15a6:	ac 01       	movw	r20, r24
    15a8:	c3 01       	movw	r24, r6
    15aa:	b2 01       	movw	r22, r4
    15ac:	0e 94 6b 24 	call	0x48d6	; 0x48d6 <__subsf3>
    15b0:	2b 01       	movw	r4, r22
    15b2:	3c 01       	movw	r6, r24
c:\users\admin\documents\arduino\libraries\libprintf\extras\printf/printf.c:452

  if (remainder > 0.5) {
    15b4:	20 e0       	ldi	r18, 0x00	; 0
    15b6:	30 e0       	ldi	r19, 0x00	; 0
    15b8:	40 e0       	ldi	r20, 0x00	; 0
    15ba:	5f e3       	ldi	r21, 0x3F	; 63
    15bc:	0e 94 c7 26 	call	0x4d8e	; 0x4d8e <__gesf2>
    15c0:	18 16       	cp	r1, r24
    15c2:	0c f0       	brlt	.+2      	; 0x15c6 <get_components(double, unsigned int)+0x15c>
    15c4:	d0 c0       	rjmp	.+416    	; 0x1766 <get_components(double, unsigned int)+0x2fc>
c:\users\admin\documents\arduino\libraries\libprintf\extras\printf/printf.c:453
    ++number_.fractional;
    15c6:	28 2d       	mov	r18, r8
    15c8:	32 2d       	mov	r19, r2
    15ca:	43 2d       	mov	r20, r3
    15cc:	59 2d       	mov	r21, r9
    15ce:	b5 01       	movw	r22, r10
    15d0:	c8 01       	movw	r24, r16
    15d2:	a1 e0       	ldi	r26, 0x01	; 1
    15d4:	0e 94 cf 28 	call	0x519e	; 0x519e <__adddi3_s8>
    15d8:	39 01       	movw	r6, r18
    15da:	4a 01       	movw	r8, r20
    15dc:	5b 01       	movw	r10, r22
    15de:	8c 01       	movw	r16, r24
c:\users\admin\documents\arduino\libraries\libprintf\extras\printf/printf.c:455
    // handle rollover, e.g. case 0.99 with precision 1 is 1.0
    if ((double) number_.fractional >= powers_of_10[precision]) {
    15e0:	0e 94 c1 25 	call	0x4b82	; 0x4b82 <__floatdisf>
    15e4:	9b 01       	movw	r18, r22
    15e6:	ac 01       	movw	r20, r24
    15e8:	69 85       	ldd	r22, Y+9	; 0x09
    15ea:	7a 85       	ldd	r23, Y+10	; 0x0a
    15ec:	8b 85       	ldd	r24, Y+11	; 0x0b
    15ee:	9c 85       	ldd	r25, Y+12	; 0x0c
    15f0:	0e 94 d8 24 	call	0x49b0	; 0x49b0 <__cmpsf2>
    15f4:	18 16       	cp	r1, r24
    15f6:	0c f0       	brlt	.+2      	; 0x15fa <get_components(double, unsigned int)+0x190>
    15f8:	87 c0       	rjmp	.+270    	; 0x1708 <get_components(double, unsigned int)+0x29e>
c:\users\admin\documents\arduino\libraries\libprintf\extras\printf/printf.c:453
  number_.fractional = (int_fast64_t)remainder;

  remainder -= (double) number_.fractional;

  if (remainder > 0.5) {
    ++number_.fractional;
    15fa:	ef 85       	ldd	r30, Y+15	; 0x0f
    15fc:	f8 89       	ldd	r31, Y+16	; 0x10
    15fe:	60 86       	std	Z+8, r6	; 0x08
    1600:	71 86       	std	Z+9, r7	; 0x09
    1602:	82 86       	std	Z+10, r8	; 0x0a
    1604:	93 86       	std	Z+11, r9	; 0x0b
    1606:	a4 86       	std	Z+12, r10	; 0x0c
    1608:	b5 86       	std	Z+13, r11	; 0x0d
    160a:	06 87       	std	Z+14, r16	; 0x0e
    160c:	17 87       	std	Z+15, r17	; 0x0f
c:\users\admin\documents\arduino\libraries\libprintf\extras\printf/printf.c:467
      // if halfway, round up if odd OR if last digit is 0
      ++number_.fractional;
    }
  }

  if (precision == 0U) {
    160e:	ed 85       	ldd	r30, Y+13	; 0x0d
    1610:	fe 85       	ldd	r31, Y+14	; 0x0e
    1612:	ef 2b       	or	r30, r31
    1614:	09 f0       	breq	.+2      	; 0x1618 <get_components(double, unsigned int)+0x1ae>
    1616:	5d c0       	rjmp	.+186    	; 0x16d2 <get_components(double, unsigned int)+0x268>
c:\users\admin\documents\arduino\libraries\libprintf\extras\printf/printf.c:468
    remainder = abs_number - (double) number_.integral;
    1618:	af 85       	ldd	r26, Y+15	; 0x0f
    161a:	b8 89       	ldd	r27, Y+16	; 0x10
    161c:	1c 91       	ld	r17, X
    161e:	11 96       	adiw	r26, 0x01	; 1
    1620:	6c 90       	ld	r6, X
    1622:	11 97       	sbiw	r26, 0x01	; 1
    1624:	12 96       	adiw	r26, 0x02	; 2
    1626:	7c 90       	ld	r7, X
    1628:	12 97       	sbiw	r26, 0x02	; 2
    162a:	13 96       	adiw	r26, 0x03	; 3
    162c:	8c 90       	ld	r8, X
    162e:	13 97       	sbiw	r26, 0x03	; 3
    1630:	14 96       	adiw	r26, 0x04	; 4
    1632:	9c 90       	ld	r9, X
    1634:	14 97       	sbiw	r26, 0x04	; 4
    1636:	15 96       	adiw	r26, 0x05	; 5
    1638:	ac 90       	ld	r10, X
    163a:	15 97       	sbiw	r26, 0x05	; 5
    163c:	16 96       	adiw	r26, 0x06	; 6
    163e:	bc 90       	ld	r11, X
    1640:	16 97       	sbiw	r26, 0x06	; 6
    1642:	17 96       	adiw	r26, 0x07	; 7
    1644:	0c 91       	ld	r16, X
    1646:	21 2f       	mov	r18, r17
    1648:	36 2d       	mov	r19, r6
    164a:	47 2d       	mov	r20, r7
    164c:	58 2d       	mov	r21, r8
    164e:	69 2d       	mov	r22, r9
    1650:	7a 2d       	mov	r23, r10
    1652:	8b 2d       	mov	r24, r11
    1654:	90 2f       	mov	r25, r16
    1656:	0e 94 c1 25 	call	0x4b82	; 0x4b82 <__floatdisf>
    165a:	9b 01       	movw	r18, r22
    165c:	ac 01       	movw	r20, r24
    165e:	c7 01       	movw	r24, r14
    1660:	b6 01       	movw	r22, r12
    1662:	0e 94 6b 24 	call	0x48d6	; 0x48d6 <__subsf3>
    1666:	6b 01       	movw	r12, r22
    1668:	7c 01       	movw	r14, r24
c:\users\admin\documents\arduino\libraries\libprintf\extras\printf/printf.c:469
    if ((!(remainder < 0.5) || (remainder > 0.5)) && (number_.integral & 1)) {
    166a:	20 e0       	ldi	r18, 0x00	; 0
    166c:	30 e0       	ldi	r19, 0x00	; 0
    166e:	40 e0       	ldi	r20, 0x00	; 0
    1670:	5f e3       	ldi	r21, 0x3F	; 63
    1672:	0e 94 d8 24 	call	0x49b0	; 0x49b0 <__cmpsf2>
    1676:	87 ff       	sbrs	r24, 7
    1678:	0a c0       	rjmp	.+20     	; 0x168e <get_components(double, unsigned int)+0x224>
    167a:	20 e0       	ldi	r18, 0x00	; 0
    167c:	30 e0       	ldi	r19, 0x00	; 0
    167e:	40 e0       	ldi	r20, 0x00	; 0
    1680:	5f e3       	ldi	r21, 0x3F	; 63
    1682:	c7 01       	movw	r24, r14
    1684:	b6 01       	movw	r22, r12
    1686:	0e 94 c7 26 	call	0x4d8e	; 0x4d8e <__gesf2>
    168a:	18 16       	cp	r1, r24
    168c:	14 f5       	brge	.+68     	; 0x16d2 <get_components(double, unsigned int)+0x268>
    168e:	21 2f       	mov	r18, r17
    1690:	21 70       	andi	r18, 0x01	; 1
    1692:	30 e0       	ldi	r19, 0x00	; 0
    1694:	40 e0       	ldi	r20, 0x00	; 0
    1696:	50 e0       	ldi	r21, 0x00	; 0
    1698:	60 e0       	ldi	r22, 0x00	; 0
    169a:	70 e0       	ldi	r23, 0x00	; 0
    169c:	80 e0       	ldi	r24, 0x00	; 0
    169e:	90 e0       	ldi	r25, 0x00	; 0
    16a0:	a0 e0       	ldi	r26, 0x00	; 0
    16a2:	0e 94 db 28 	call	0x51b6	; 0x51b6 <__cmpdi2_s8>
    16a6:	a9 f0       	breq	.+42     	; 0x16d2 <get_components(double, unsigned int)+0x268>
c:\users\admin\documents\arduino\libraries\libprintf\extras\printf/printf.c:472
      // exactly 0.5 and ODD, then round up
      // 1.5 -> 2, but 2.5 -> 2
      ++number_.integral;
    16a8:	21 2f       	mov	r18, r17
    16aa:	36 2d       	mov	r19, r6
    16ac:	47 2d       	mov	r20, r7
    16ae:	58 2d       	mov	r21, r8
    16b0:	69 2d       	mov	r22, r9
    16b2:	7a 2d       	mov	r23, r10
    16b4:	8b 2d       	mov	r24, r11
    16b6:	90 2f       	mov	r25, r16
    16b8:	a1 e0       	ldi	r26, 0x01	; 1
    16ba:	0e 94 cf 28 	call	0x519e	; 0x519e <__adddi3_s8>
    16be:	ef 85       	ldd	r30, Y+15	; 0x0f
    16c0:	f8 89       	ldd	r31, Y+16	; 0x10
    16c2:	20 83       	st	Z, r18
    16c4:	31 83       	std	Z+1, r19	; 0x01
    16c6:	42 83       	std	Z+2, r20	; 0x02
    16c8:	53 83       	std	Z+3, r21	; 0x03
    16ca:	64 83       	std	Z+4, r22	; 0x04
    16cc:	75 83       	std	Z+5, r23	; 0x05
    16ce:	86 83       	std	Z+6, r24	; 0x06
    16d0:	97 83       	std	Z+7, r25	; 0x07
c:\users\admin\documents\arduino\libraries\libprintf\extras\printf/printf.c:476
    }
  }
  return number_;
}
    16d2:	8f 85       	ldd	r24, Y+15	; 0x0f
    16d4:	98 89       	ldd	r25, Y+16	; 0x10
    16d6:	60 96       	adiw	r28, 0x10	; 16
    16d8:	0f b6       	in	r0, 0x3f	; 63
    16da:	f8 94       	cli
    16dc:	de bf       	out	0x3e, r29	; 62
    16de:	0f be       	out	0x3f, r0	; 63
    16e0:	cd bf       	out	0x3d, r28	; 61
    16e2:	df 91       	pop	r29
    16e4:	cf 91       	pop	r28
    16e6:	1f 91       	pop	r17
    16e8:	0f 91       	pop	r16
    16ea:	ff 90       	pop	r15
    16ec:	ef 90       	pop	r14
    16ee:	df 90       	pop	r13
    16f0:	cf 90       	pop	r12
    16f2:	bf 90       	pop	r11
    16f4:	af 90       	pop	r10
    16f6:	9f 90       	pop	r9
    16f8:	8f 90       	pop	r8
    16fa:	7f 90       	pop	r7
    16fc:	6f 90       	pop	r6
    16fe:	5f 90       	pop	r5
    1700:	4f 90       	pop	r4
    1702:	3f 90       	pop	r3
    1704:	2f 90       	pop	r2
    1706:	08 95       	ret
c:\users\admin\documents\arduino\libraries\libprintf\extras\printf/printf.c:456

  if (remainder > 0.5) {
    ++number_.fractional;
    // handle rollover, e.g. case 0.99 with precision 1 is 1.0
    if ((double) number_.fractional >= powers_of_10[precision]) {
      number_.fractional = 0;
    1708:	af 85       	ldd	r26, Y+15	; 0x0f
    170a:	b8 89       	ldd	r27, Y+16	; 0x10
    170c:	18 96       	adiw	r26, 0x08	; 8
    170e:	1c 92       	st	X, r1
    1710:	18 97       	sbiw	r26, 0x08	; 8
    1712:	19 96       	adiw	r26, 0x09	; 9
    1714:	1c 92       	st	X, r1
    1716:	19 97       	sbiw	r26, 0x09	; 9
    1718:	1a 96       	adiw	r26, 0x0a	; 10
    171a:	1c 92       	st	X, r1
    171c:	1a 97       	sbiw	r26, 0x0a	; 10
    171e:	1b 96       	adiw	r26, 0x0b	; 11
    1720:	1c 92       	st	X, r1
    1722:	1b 97       	sbiw	r26, 0x0b	; 11
    1724:	1c 96       	adiw	r26, 0x0c	; 12
    1726:	1c 92       	st	X, r1
    1728:	1c 97       	sbiw	r26, 0x0c	; 12
    172a:	1d 96       	adiw	r26, 0x0d	; 13
    172c:	1c 92       	st	X, r1
    172e:	1d 97       	sbiw	r26, 0x0d	; 13
    1730:	1e 96       	adiw	r26, 0x0e	; 14
    1732:	1c 92       	st	X, r1
    1734:	1e 97       	sbiw	r26, 0x0e	; 14
    1736:	1f 96       	adiw	r26, 0x0f	; 15
    1738:	1c 92       	st	X, r1
c:\users\admin\documents\arduino\libraries\libprintf\extras\printf/printf.c:457
      ++number_.integral;
    173a:	29 81       	ldd	r18, Y+1	; 0x01
    173c:	3a 81       	ldd	r19, Y+2	; 0x02
    173e:	4b 81       	ldd	r20, Y+3	; 0x03
    1740:	5c 81       	ldd	r21, Y+4	; 0x04
    1742:	6d 81       	ldd	r22, Y+5	; 0x05
    1744:	7e 81       	ldd	r23, Y+6	; 0x06
    1746:	8f 81       	ldd	r24, Y+7	; 0x07
    1748:	98 85       	ldd	r25, Y+8	; 0x08
    174a:	a1 e0       	ldi	r26, 0x01	; 1
    174c:	0e 94 cf 28 	call	0x519e	; 0x519e <__adddi3_s8>
    1750:	ef 85       	ldd	r30, Y+15	; 0x0f
    1752:	f8 89       	ldd	r31, Y+16	; 0x10
    1754:	20 83       	st	Z, r18
    1756:	31 83       	std	Z+1, r19	; 0x01
    1758:	42 83       	std	Z+2, r20	; 0x02
    175a:	53 83       	std	Z+3, r21	; 0x03
    175c:	64 83       	std	Z+4, r22	; 0x04
    175e:	75 83       	std	Z+5, r23	; 0x05
    1760:	86 83       	std	Z+6, r24	; 0x06
    1762:	97 83       	std	Z+7, r25	; 0x07
    1764:	54 cf       	rjmp	.-344    	; 0x160e <get_components(double, unsigned int)+0x1a4>
c:\users\admin\documents\arduino\libraries\libprintf\extras\printf/printf.c:460
    }
  }
  else if (remainder == 0.5) {
    1766:	20 e0       	ldi	r18, 0x00	; 0
    1768:	30 e0       	ldi	r19, 0x00	; 0
    176a:	40 e0       	ldi	r20, 0x00	; 0
    176c:	5f e3       	ldi	r21, 0x3F	; 63
    176e:	c3 01       	movw	r24, r6
    1770:	b2 01       	movw	r22, r4
    1772:	0e 94 d8 24 	call	0x49b0	; 0x49b0 <__cmpsf2>
    1776:	81 11       	cpse	r24, r1
    1778:	4a cf       	rjmp	.-364    	; 0x160e <get_components(double, unsigned int)+0x1a4>
c:\users\admin\documents\arduino\libraries\libprintf\extras\printf/printf.c:461
    if ((number_.fractional == 0U) || (number_.fractional & 1U)) {
    177a:	28 2d       	mov	r18, r8
    177c:	32 2d       	mov	r19, r2
    177e:	43 2d       	mov	r20, r3
    1780:	59 2d       	mov	r21, r9
    1782:	b5 01       	movw	r22, r10
    1784:	c8 01       	movw	r24, r16
    1786:	a0 e0       	ldi	r26, 0x00	; 0
    1788:	0e 94 db 28 	call	0x51b6	; 0x51b6 <__cmpdi2_s8>
    178c:	61 f0       	breq	.+24     	; 0x17a6 <get_components(double, unsigned int)+0x33c>
    178e:	21 70       	andi	r18, 0x01	; 1
    1790:	30 e0       	ldi	r19, 0x00	; 0
    1792:	40 e0       	ldi	r20, 0x00	; 0
    1794:	50 e0       	ldi	r21, 0x00	; 0
    1796:	60 e0       	ldi	r22, 0x00	; 0
    1798:	70 e0       	ldi	r23, 0x00	; 0
    179a:	80 e0       	ldi	r24, 0x00	; 0
    179c:	90 e0       	ldi	r25, 0x00	; 0
    179e:	0e 94 db 28 	call	0x51b6	; 0x51b6 <__cmpdi2_s8>
    17a2:	09 f4       	brne	.+2      	; 0x17a6 <get_components(double, unsigned int)+0x33c>
    17a4:	34 cf       	rjmp	.-408    	; 0x160e <get_components(double, unsigned int)+0x1a4>
c:\users\admin\documents\arduino\libraries\libprintf\extras\printf/printf.c:463
      // if halfway, round up if odd OR if last digit is 0
      ++number_.fractional;
    17a6:	28 2d       	mov	r18, r8
    17a8:	32 2d       	mov	r19, r2
    17aa:	43 2d       	mov	r20, r3
    17ac:	59 2d       	mov	r21, r9
    17ae:	b5 01       	movw	r22, r10
    17b0:	c8 01       	movw	r24, r16
    17b2:	a1 e0       	ldi	r26, 0x01	; 1
    17b4:	0e 94 cf 28 	call	0x519e	; 0x519e <__adddi3_s8>
    17b8:	af 85       	ldd	r26, Y+15	; 0x0f
    17ba:	b8 89       	ldd	r27, Y+16	; 0x10
    17bc:	18 96       	adiw	r26, 0x08	; 8
    17be:	2c 93       	st	X, r18
    17c0:	18 97       	sbiw	r26, 0x08	; 8
    17c2:	19 96       	adiw	r26, 0x09	; 9
    17c4:	3c 93       	st	X, r19
    17c6:	19 97       	sbiw	r26, 0x09	; 9
    17c8:	1a 96       	adiw	r26, 0x0a	; 10
    17ca:	4c 93       	st	X, r20
    17cc:	1a 97       	sbiw	r26, 0x0a	; 10
    17ce:	1b 96       	adiw	r26, 0x0b	; 11
    17d0:	5c 93       	st	X, r21
    17d2:	1b 97       	sbiw	r26, 0x0b	; 11
    17d4:	1c 96       	adiw	r26, 0x0c	; 12
    17d6:	6c 93       	st	X, r22
    17d8:	1c 97       	sbiw	r26, 0x0c	; 12
    17da:	1d 96       	adiw	r26, 0x0d	; 13
    17dc:	7c 93       	st	X, r23
    17de:	1d 97       	sbiw	r26, 0x0d	; 13
    17e0:	1e 96       	adiw	r26, 0x0e	; 14
    17e2:	8c 93       	st	X, r24
    17e4:	1e 97       	sbiw	r26, 0x0e	; 14
    17e6:	1f 96       	adiw	r26, 0x0f	; 15
    17e8:	9c 93       	st	X, r25
    17ea:	11 cf       	rjmp	.-478    	; 0x160e <get_components(double, unsigned int)+0x1a4>

000017ec <print_exponential_number(void (*)(char, void*, unsigned int, unsigned int), char*, unsigned int, unsigned int, double, unsigned int, unsigned int, unsigned int, char*, unsigned int) [clone .constprop.42]>:
_ZL24print_exponential_numberPFvcPvjjEPcjjdjjjS2_j.constprop.42():
c:\users\admin\documents\arduino\libraries\libprintf\extras\printf/printf.c:651
  return print_broken_up_decimal(value_, out, buffer, idx, maxlen, precision, width, flags, buf, len);
}

#if PRINTF_SUPPORT_EXPONENTIAL_SPECIFIERS
// internal ftoa variant for exponential floating-point type, contributed by Martijn Jasperse <m.jasperse@gmail.com>
static size_t print_exponential_number(out_fct_type out, char* buffer, size_t idx, size_t maxlen, double number, unsigned int precision, unsigned int width, unsigned int flags, char* buf, size_t len)
    17ec:	2f 92       	push	r2
    17ee:	3f 92       	push	r3
    17f0:	4f 92       	push	r4
    17f2:	5f 92       	push	r5
    17f4:	6f 92       	push	r6
    17f6:	7f 92       	push	r7
    17f8:	8f 92       	push	r8
    17fa:	9f 92       	push	r9
    17fc:	af 92       	push	r10
    17fe:	bf 92       	push	r11
    1800:	cf 92       	push	r12
    1802:	df 92       	push	r13
    1804:	ef 92       	push	r14
    1806:	ff 92       	push	r15
    1808:	0f 93       	push	r16
    180a:	1f 93       	push	r17
    180c:	cf 93       	push	r28
    180e:	df 93       	push	r29
    1810:	cd b7       	in	r28, 0x3d	; 61
    1812:	de b7       	in	r29, 0x3e	; 62
    1814:	e6 97       	sbiw	r28, 0x36	; 54
    1816:	0f b6       	in	r0, 0x3f	; 63
    1818:	f8 94       	cli
    181a:	de bf       	out	0x3e, r29	; 62
    181c:	0f be       	out	0x3f, r0	; 63
    181e:	cd bf       	out	0x3d, r28	; 61
    1820:	9c a7       	std	Y+44, r25	; 0x2c
    1822:	8b a7       	std	Y+43, r24	; 0x2b
    1824:	6d a7       	std	Y+45, r22	; 0x2d
    1826:	7e a7       	std	Y+46, r23	; 0x2e
    1828:	58 ab       	std	Y+48, r21	; 0x30
    182a:	4f a7       	std	Y+47, r20	; 0x2f
    182c:	0a 8b       	std	Y+18, r16	; 0x12
    182e:	1b 8b       	std	Y+19, r17	; 0x13
    1830:	2c 8b       	std	Y+20, r18	; 0x14
    1832:	3d 8b       	std	Y+21, r19	; 0x15
    1834:	ff 8e       	std	Y+31, r15	; 0x1f
    1836:	ee 8e       	std	Y+30, r14	; 0x1e
    1838:	da aa       	std	Y+50, r13	; 0x32
    183a:	c9 aa       	std	Y+49, r12	; 0x31
    183c:	b9 a6       	std	Y+41, r11	; 0x29
    183e:	a8 a6       	std	Y+40, r10	; 0x28
    1840:	8b aa       	std	Y+51, r8	; 0x33
    1842:	9c aa       	std	Y+52, r9	; 0x34
    1844:	2d 96       	adiw	r28, 0x0d	; 13
    1846:	2f ad       	ldd	r18, Y+63	; 0x3f
    1848:	2d 97       	sbiw	r28, 0x0d	; 13
    184a:	2d ab       	std	Y+53, r18	; 0x35
    184c:	2e 96       	adiw	r28, 0x0e	; 14
    184e:	3f ad       	ldd	r19, Y+63	; 0x3f
    1850:	2e 97       	sbiw	r28, 0x0e	; 14
    1852:	3e ab       	std	Y+54, r19	; 0x36
get_sign():
c:\users\admin\documents\arduino\libraries\libprintf\extras\printf/printf.c:194
}

static inline int get_sign(double x)
{
  // The sign is stored in the highest bit
  return get_bit_access(x).U >> (DOUBLE_SIZE_IN_BITS - 1);
    1854:	8a 89       	ldd	r24, Y+18	; 0x12
    1856:	9b 89       	ldd	r25, Y+19	; 0x13
    1858:	ac 89       	ldd	r26, Y+20	; 0x14
    185a:	bd 89       	ldd	r27, Y+21	; 0x15
    185c:	88 27       	eor	r24, r24
    185e:	b7 fd       	sbrc	r27, 7
    1860:	83 95       	inc	r24
    1862:	99 27       	eor	r25, r25
    1864:	aa 27       	eor	r26, r26
    1866:	bb 27       	eor	r27, r27
    1868:	8e 8b       	std	Y+22, r24	; 0x16
    186a:	9f 8b       	std	Y+23, r25	; 0x17
    186c:	a8 8f       	std	Y+24, r26	; 0x18
    186e:	b9 8f       	std	Y+25, r27	; 0x19
    1870:	0e 89       	ldd	r16, Y+22	; 0x16
    1872:	1f 89       	ldd	r17, Y+23	; 0x17
_ZL24print_exponential_numberPFvcPvjjEPcjjdjjjS2_j.constprop.42():
c:\users\admin\documents\arduino\libraries\libprintf\extras\printf/printf.c:655
// internal ftoa variant for exponential floating-point type, contributed by Martijn Jasperse <m.jasperse@gmail.com>
static size_t print_exponential_number(out_fct_type out, char* buffer, size_t idx, size_t maxlen, double number, unsigned int precision, unsigned int width, unsigned int flags, char* buf, size_t len)
{
  const bool negative = get_sign(number);
  // This number will decrease gradually (by factors of 10) as we "extract" the exponent out of it
  double abs_number =  negative ? -number : number;
    1874:	01 15       	cp	r16, r1
    1876:	11 05       	cpc	r17, r1
    1878:	49 f0       	breq	.+18     	; 0x188c <print_exponential_number(void (*)(char, void*, unsigned int, unsigned int), char*, unsigned int, unsigned int, double, unsigned int, unsigned int, unsigned int, char*, unsigned int) [clone .constprop.42]+0xa0>
    187a:	2a 89       	ldd	r18, Y+18	; 0x12
    187c:	3b 89       	ldd	r19, Y+19	; 0x13
    187e:	4c 89       	ldd	r20, Y+20	; 0x14
    1880:	5d 89       	ldd	r21, Y+21	; 0x15
    1882:	50 58       	subi	r21, 0x80	; 128
    1884:	2a 8b       	std	Y+18, r18	; 0x12
    1886:	3b 8b       	std	Y+19, r19	; 0x13
    1888:	4c 8b       	std	Y+20, r20	; 0x14
    188a:	5d 8b       	std	Y+21, r21	; 0x15
c:\users\admin\documents\arduino\libraries\libprintf\extras\printf/printf.c:663
  bool abs_exp10_covered_by_powers_table;
  struct scaling_factor normalization;


  // Determine the decimal exponent
  if (abs_number == 0.0) {
    188c:	20 e0       	ldi	r18, 0x00	; 0
    188e:	30 e0       	ldi	r19, 0x00	; 0
    1890:	a9 01       	movw	r20, r18
    1892:	6a 89       	ldd	r22, Y+18	; 0x12
    1894:	7b 89       	ldd	r23, Y+19	; 0x13
    1896:	8c 89       	ldd	r24, Y+20	; 0x14
    1898:	9d 89       	ldd	r25, Y+21	; 0x15
    189a:	0e 94 d8 24 	call	0x49b0	; 0x49b0 <__cmpsf2>
c:\users\admin\documents\arduino\libraries\libprintf\extras\printf/printf.c:665
    // TODO: This is a special-case for 0.0 (and -0.0); but proper handling is required for denormals more generally.
    exp10 = 0; // ... and no need to set a normalization factor or check the powers table
    189e:	31 2c       	mov	r3, r1
    18a0:	21 2c       	mov	r2, r1
c:\users\admin\documents\arduino\libraries\libprintf\extras\printf/printf.c:663
  bool abs_exp10_covered_by_powers_table;
  struct scaling_factor normalization;


  // Determine the decimal exponent
  if (abs_number == 0.0) {
    18a2:	88 23       	and	r24, r24
    18a4:	09 f4       	brne	.+2      	; 0x18a8 <print_exponential_number(void (*)(char, void*, unsigned int, unsigned int), char*, unsigned int, unsigned int, double, unsigned int, unsigned int, unsigned int, char*, unsigned int) [clone .constprop.42]+0xbc>
    18a6:	0f c1       	rjmp	.+542    	; 0x1ac6 <print_exponential_number(void (*)(char, void*, unsigned int, unsigned int), char*, unsigned int, unsigned int, double, unsigned int, unsigned int, unsigned int, char*, unsigned int) [clone .constprop.42]+0x2da>
get_exp2():
c:\users\admin\documents\arduino\libraries\libprintf\extras\printf/printf.c:203
{
  // The exponent in an IEEE-754 floating-point number occupies a contiguous
  // sequence of bits (e.g. 52..62 for 64-bit doubles), but with a non-trivial representation: An
  // unsigned offset from some negative value (with the extremal offset values reserved for
  // special use).
  return (int)((x.U >> DOUBLE_STORED_MANTISSA_BITS ) & DOUBLE_EXPONENT_MASK) - DOUBLE_BASE_EXPONENT;
    18a8:	8a 89       	ldd	r24, Y+18	; 0x12
    18aa:	9b 89       	ldd	r25, Y+19	; 0x13
    18ac:	ac 89       	ldd	r26, Y+20	; 0x14
    18ae:	bd 89       	ldd	r27, Y+21	; 0x15
    18b0:	e7 e1       	ldi	r30, 0x17	; 23
    18b2:	b6 95       	lsr	r27
    18b4:	a7 95       	ror	r26
    18b6:	97 95       	ror	r25
    18b8:	87 95       	ror	r24
    18ba:	ea 95       	dec	r30
    18bc:	d1 f7       	brne	.-12     	; 0x18b2 <print_exponential_number(void (*)(char, void*, unsigned int, unsigned int), char*, unsigned int, unsigned int, double, unsigned int, unsigned int, unsigned int, char*, unsigned int) [clone .constprop.42]+0xc6>
    18be:	99 27       	eor	r25, r25
    18c0:	8f 57       	subi	r24, 0x7F	; 127
    18c2:	91 09       	sbc	r25, r1
_ZL24print_exponential_numberPFvcPvjjEPcjjdjjjS2_j.constprop.42():
c:\users\admin\documents\arduino\libraries\libprintf\extras\printf/printf.c:675
      // based on the algorithm by David Gay (https://www.ampl.com/netlib/fp/dtoa.c)
      int exp2 = get_exp2(conv);
	  // drop the exponent, so conv.F comes into the range [1,2)
      conv.U = (conv.U & (( (double_uint_t)(1) << DOUBLE_STORED_MANTISSA_BITS) - 1U)) | ((double_uint_t) DOUBLE_BASE_EXPONENT << DOUBLE_STORED_MANTISSA_BITS);
      // now approximate log10 from the log2 integer part and an expansion of ln around 1.5
      exp10 = (int)(0.1760912590558 + exp2 * 0.301029995663981 + (conv.F - 1.5) * 0.289529654602168);
    18c4:	bc 01       	movw	r22, r24
    18c6:	99 0f       	add	r25, r25
    18c8:	88 0b       	sbc	r24, r24
    18ca:	99 0b       	sbc	r25, r25
    18cc:	0e 94 c9 25 	call	0x4b92	; 0x4b92 <__floatsisf>
    18d0:	2b e9       	ldi	r18, 0x9B	; 155
    18d2:	30 e2       	ldi	r19, 0x20	; 32
    18d4:	4a e9       	ldi	r20, 0x9A	; 154
    18d6:	5e e3       	ldi	r21, 0x3E	; 62
    18d8:	0e 94 cc 26 	call	0x4d98	; 0x4d98 <__mulsf3>
    18dc:	24 e4       	ldi	r18, 0x44	; 68
    18de:	31 e5       	ldi	r19, 0x51	; 81
    18e0:	44 e3       	ldi	r20, 0x34	; 52
    18e2:	5e e3       	ldi	r21, 0x3E	; 62
    18e4:	0e 94 6c 24 	call	0x48d8	; 0x48d8 <__addsf3>
    18e8:	6b 01       	movw	r12, r22
    18ea:	7c 01       	movw	r14, r24
c:\users\admin\documents\arduino\libraries\libprintf\extras\printf/printf.c:673
    double_with_bit_access conv = get_bit_access(abs_number);
    {
      // based on the algorithm by David Gay (https://www.ampl.com/netlib/fp/dtoa.c)
      int exp2 = get_exp2(conv);
	  // drop the exponent, so conv.F comes into the range [1,2)
      conv.U = (conv.U & (( (double_uint_t)(1) << DOUBLE_STORED_MANTISSA_BITS) - 1U)) | ((double_uint_t) DOUBLE_BASE_EXPONENT << DOUBLE_STORED_MANTISSA_BITS);
    18ec:	6a 89       	ldd	r22, Y+18	; 0x12
    18ee:	7b 89       	ldd	r23, Y+19	; 0x13
    18f0:	8c 89       	ldd	r24, Y+20	; 0x14
    18f2:	9d 89       	ldd	r25, Y+21	; 0x15
    18f4:	8f 77       	andi	r24, 0x7F	; 127
    18f6:	99 27       	eor	r25, r25
    18f8:	80 68       	ori	r24, 0x80	; 128
    18fa:	9f 63       	ori	r25, 0x3F	; 63
c:\users\admin\documents\arduino\libraries\libprintf\extras\printf/printf.c:675
      // now approximate log10 from the log2 integer part and an expansion of ln around 1.5
      exp10 = (int)(0.1760912590558 + exp2 * 0.301029995663981 + (conv.F - 1.5) * 0.289529654602168);
    18fc:	20 e0       	ldi	r18, 0x00	; 0
    18fe:	30 e0       	ldi	r19, 0x00	; 0
    1900:	40 ec       	ldi	r20, 0xC0	; 192
    1902:	5f e3       	ldi	r21, 0x3F	; 63
    1904:	0e 94 6b 24 	call	0x48d6	; 0x48d6 <__subsf3>
    1908:	2b e3       	ldi	r18, 0x3B	; 59
    190a:	3d e3       	ldi	r19, 0x3D	; 61
    190c:	44 e9       	ldi	r20, 0x94	; 148
    190e:	5e e3       	ldi	r21, 0x3E	; 62
    1910:	0e 94 cc 26 	call	0x4d98	; 0x4d98 <__mulsf3>
    1914:	9b 01       	movw	r18, r22
    1916:	ac 01       	movw	r20, r24
    1918:	c7 01       	movw	r24, r14
    191a:	b6 01       	movw	r22, r12
    191c:	0e 94 6c 24 	call	0x48d8	; 0x48d8 <__addsf3>
    1920:	0e 94 8b 25 	call	0x4b16	; 0x4b16 <__fixsfsi>
    1924:	6a 8f       	std	Y+26, r22	; 0x1a
    1926:	7b 8f       	std	Y+27, r23	; 0x1b
    1928:	8c 8f       	std	Y+28, r24	; 0x1c
    192a:	9d 8f       	std	Y+29, r25	; 0x1d
    192c:	2a 8c       	ldd	r2, Y+26	; 0x1a
    192e:	3b 8c       	ldd	r3, Y+27	; 0x1b
c:\users\admin\documents\arduino\libraries\libprintf\extras\printf/printf.c:677
      // now we want to compute 10^exp10 but we want to be sure it won't overflow
      exp2 = (int)(exp10 * 3.321928094887362 + 0.5);
    1930:	b1 01       	movw	r22, r2
    1932:	03 2c       	mov	r0, r3
    1934:	00 0c       	add	r0, r0
    1936:	88 0b       	sbc	r24, r24
    1938:	99 0b       	sbc	r25, r25
    193a:	0e 94 c9 25 	call	0x4b92	; 0x4b92 <__floatsisf>
    193e:	6b 01       	movw	r12, r22
    1940:	7c 01       	movw	r14, r24
    1942:	28 e7       	ldi	r18, 0x78	; 120
    1944:	3a e9       	ldi	r19, 0x9A	; 154
    1946:	44 e5       	ldi	r20, 0x54	; 84
    1948:	50 e4       	ldi	r21, 0x40	; 64
    194a:	0e 94 cc 26 	call	0x4d98	; 0x4d98 <__mulsf3>
    194e:	20 e0       	ldi	r18, 0x00	; 0
    1950:	30 e0       	ldi	r19, 0x00	; 0
    1952:	40 e0       	ldi	r20, 0x00	; 0
    1954:	5f e3       	ldi	r21, 0x3F	; 63
    1956:	0e 94 6c 24 	call	0x48d8	; 0x48d8 <__addsf3>
    195a:	0e 94 8b 25 	call	0x4b16	; 0x4b16 <__fixsfsi>
    195e:	4b 01       	movw	r8, r22
c:\users\admin\documents\arduino\libraries\libprintf\extras\printf/printf.c:678
      const double z  = exp10 * 2.302585092994046 - exp2 * 0.6931471805599453;
    1960:	2e e8       	ldi	r18, 0x8E	; 142
    1962:	3d e5       	ldi	r19, 0x5D	; 93
    1964:	43 e1       	ldi	r20, 0x13	; 19
    1966:	50 e4       	ldi	r21, 0x40	; 64
    1968:	c7 01       	movw	r24, r14
    196a:	b6 01       	movw	r22, r12
    196c:	0e 94 cc 26 	call	0x4d98	; 0x4d98 <__mulsf3>
    1970:	6b 01       	movw	r12, r22
    1972:	7c 01       	movw	r14, r24
    1974:	09 2c       	mov	r0, r9
    1976:	00 0c       	add	r0, r0
    1978:	aa 08       	sbc	r10, r10
    197a:	bb 08       	sbc	r11, r11
    197c:	c5 01       	movw	r24, r10
    197e:	b4 01       	movw	r22, r8
    1980:	0e 94 c9 25 	call	0x4b92	; 0x4b92 <__floatsisf>
    1984:	28 e1       	ldi	r18, 0x18	; 24
    1986:	32 e7       	ldi	r19, 0x72	; 114
    1988:	41 e3       	ldi	r20, 0x31	; 49
    198a:	5f e3       	ldi	r21, 0x3F	; 63
    198c:	0e 94 cc 26 	call	0x4d98	; 0x4d98 <__mulsf3>
    1990:	9b 01       	movw	r18, r22
    1992:	ac 01       	movw	r20, r24
    1994:	c7 01       	movw	r24, r14
    1996:	b6 01       	movw	r22, r12
    1998:	0e 94 6b 24 	call	0x48d6	; 0x48d6 <__subsf3>
    199c:	2b 01       	movw	r4, r22
    199e:	3c 01       	movw	r6, r24
c:\users\admin\documents\arduino\libraries\libprintf\extras\printf/printf.c:679
      const double z2 = z * z;
    19a0:	ac 01       	movw	r20, r24
    19a2:	9b 01       	movw	r18, r22
    19a4:	0e 94 cc 26 	call	0x4d98	; 0x4d98 <__mulsf3>
    19a8:	6b 01       	movw	r12, r22
    19aa:	7c 01       	movw	r14, r24
c:\users\admin\documents\arduino\libraries\libprintf\extras\printf/printf.c:682
      conv.U = ((double_uint_t)(exp2) + DOUBLE_BASE_EXPONENT) << DOUBLE_STORED_MANTISSA_BITS;
      // compute exp(z) using continued fractions, see https://en.wikipedia.org/wiki/Exponential_function#Continued_fractions_for_ex
      conv.F *= 1 + 2 * z / (2 - z + (z2 / (6 + (z2 / (10 + z2 / 14)))));
    19ac:	a3 01       	movw	r20, r6
    19ae:	92 01       	movw	r18, r4
    19b0:	c3 01       	movw	r24, r6
    19b2:	b2 01       	movw	r22, r4
    19b4:	0e 94 6c 24 	call	0x48d8	; 0x48d8 <__addsf3>
    19b8:	68 a3       	std	Y+32, r22	; 0x20
    19ba:	79 a3       	std	Y+33, r23	; 0x21
    19bc:	8a a3       	std	Y+34, r24	; 0x22
    19be:	9b a3       	std	Y+35, r25	; 0x23
    19c0:	20 e0       	ldi	r18, 0x00	; 0
    19c2:	30 e0       	ldi	r19, 0x00	; 0
    19c4:	40 e6       	ldi	r20, 0x60	; 96
    19c6:	51 e4       	ldi	r21, 0x41	; 65
    19c8:	c7 01       	movw	r24, r14
    19ca:	b6 01       	movw	r22, r12
    19cc:	0e 94 dd 24 	call	0x49ba	; 0x49ba <__divsf3>
    19d0:	20 e0       	ldi	r18, 0x00	; 0
    19d2:	30 e0       	ldi	r19, 0x00	; 0
    19d4:	40 e2       	ldi	r20, 0x20	; 32
    19d6:	51 e4       	ldi	r21, 0x41	; 65
    19d8:	0e 94 6c 24 	call	0x48d8	; 0x48d8 <__addsf3>
    19dc:	9b 01       	movw	r18, r22
    19de:	ac 01       	movw	r20, r24
    19e0:	c7 01       	movw	r24, r14
    19e2:	b6 01       	movw	r22, r12
    19e4:	0e 94 dd 24 	call	0x49ba	; 0x49ba <__divsf3>
    19e8:	20 e0       	ldi	r18, 0x00	; 0
    19ea:	30 e0       	ldi	r19, 0x00	; 0
    19ec:	40 ec       	ldi	r20, 0xC0	; 192
    19ee:	50 e4       	ldi	r21, 0x40	; 64
    19f0:	0e 94 6c 24 	call	0x48d8	; 0x48d8 <__addsf3>
    19f4:	9b 01       	movw	r18, r22
    19f6:	ac 01       	movw	r20, r24
    19f8:	c7 01       	movw	r24, r14
    19fa:	b6 01       	movw	r22, r12
    19fc:	0e 94 dd 24 	call	0x49ba	; 0x49ba <__divsf3>
    1a00:	6b 01       	movw	r12, r22
    1a02:	7c 01       	movw	r14, r24
    1a04:	a3 01       	movw	r20, r6
    1a06:	92 01       	movw	r18, r4
    1a08:	60 e0       	ldi	r22, 0x00	; 0
    1a0a:	70 e0       	ldi	r23, 0x00	; 0
    1a0c:	80 e0       	ldi	r24, 0x00	; 0
    1a0e:	90 e4       	ldi	r25, 0x40	; 64
    1a10:	0e 94 6b 24 	call	0x48d6	; 0x48d6 <__subsf3>
    1a14:	9b 01       	movw	r18, r22
    1a16:	ac 01       	movw	r20, r24
    1a18:	c7 01       	movw	r24, r14
    1a1a:	b6 01       	movw	r22, r12
    1a1c:	0e 94 6c 24 	call	0x48d8	; 0x48d8 <__addsf3>
    1a20:	9b 01       	movw	r18, r22
    1a22:	ac 01       	movw	r20, r24
    1a24:	68 a1       	ldd	r22, Y+32	; 0x20
    1a26:	79 a1       	ldd	r23, Y+33	; 0x21
    1a28:	8a a1       	ldd	r24, Y+34	; 0x22
    1a2a:	9b a1       	ldd	r25, Y+35	; 0x23
    1a2c:	0e 94 dd 24 	call	0x49ba	; 0x49ba <__divsf3>
    1a30:	20 e0       	ldi	r18, 0x00	; 0
    1a32:	30 e0       	ldi	r19, 0x00	; 0
    1a34:	40 e8       	ldi	r20, 0x80	; 128
    1a36:	5f e3       	ldi	r21, 0x3F	; 63
    1a38:	0e 94 6c 24 	call	0x48d8	; 0x48d8 <__addsf3>
c:\users\admin\documents\arduino\libraries\libprintf\extras\printf/printf.c:680
      exp10 = (int)(0.1760912590558 + exp2 * 0.301029995663981 + (conv.F - 1.5) * 0.289529654602168);
      // now we want to compute 10^exp10 but we want to be sure it won't overflow
      exp2 = (int)(exp10 * 3.321928094887362 + 0.5);
      const double z  = exp10 * 2.302585092994046 - exp2 * 0.6931471805599453;
      const double z2 = z * z;
      conv.U = ((double_uint_t)(exp2) + DOUBLE_BASE_EXPONENT) << DOUBLE_STORED_MANTISSA_BITS;
    1a3c:	3f e7       	ldi	r19, 0x7F	; 127
    1a3e:	83 0e       	add	r8, r19
    1a40:	91 1c       	adc	r9, r1
    1a42:	a1 1c       	adc	r10, r1
    1a44:	b1 1c       	adc	r11, r1
    1a46:	a5 01       	movw	r20, r10
    1a48:	94 01       	movw	r18, r8
    1a4a:	f7 e1       	ldi	r31, 0x17	; 23
    1a4c:	22 0f       	add	r18, r18
    1a4e:	33 1f       	adc	r19, r19
    1a50:	44 1f       	adc	r20, r20
    1a52:	55 1f       	adc	r21, r21
    1a54:	fa 95       	dec	r31
    1a56:	d1 f7       	brne	.-12     	; 0x1a4c <print_exponential_number(void (*)(char, void*, unsigned int, unsigned int), char*, unsigned int, unsigned int, double, unsigned int, unsigned int, unsigned int, char*, unsigned int) [clone .constprop.42]+0x260>
c:\users\admin\documents\arduino\libraries\libprintf\extras\printf/printf.c:682
      // compute exp(z) using continued fractions, see https://en.wikipedia.org/wiki/Exponential_function#Continued_fractions_for_ex
      conv.F *= 1 + 2 * z / (2 - z + (z2 / (6 + (z2 / (10 + z2 / 14)))));
    1a58:	0e 94 cc 26 	call	0x4d98	; 0x4d98 <__mulsf3>
    1a5c:	2b 01       	movw	r4, r22
    1a5e:	3c 01       	movw	r6, r24
c:\users\admin\documents\arduino\libraries\libprintf\extras\printf/printf.c:684
      // correct for rounding errors
      if (abs_number < conv.F) {
    1a60:	ac 01       	movw	r20, r24
    1a62:	9b 01       	movw	r18, r22
    1a64:	6a 89       	ldd	r22, Y+18	; 0x12
    1a66:	7b 89       	ldd	r23, Y+19	; 0x13
    1a68:	8c 89       	ldd	r24, Y+20	; 0x14
    1a6a:	9d 89       	ldd	r25, Y+21	; 0x15
    1a6c:	0e 94 d8 24 	call	0x49b0	; 0x49b0 <__cmpsf2>
    1a70:	87 ff       	sbrs	r24, 7
    1a72:	0d c0       	rjmp	.+26     	; 0x1a8e <print_exponential_number(void (*)(char, void*, unsigned int, unsigned int), char*, unsigned int, unsigned int, double, unsigned int, unsigned int, unsigned int, char*, unsigned int) [clone .constprop.42]+0x2a2>
c:\users\admin\documents\arduino\libraries\libprintf\extras\printf/printf.c:685
        exp10--;
    1a74:	41 e0       	ldi	r20, 0x01	; 1
    1a76:	24 1a       	sub	r2, r20
    1a78:	31 08       	sbc	r3, r1
c:\users\admin\documents\arduino\libraries\libprintf\extras\printf/printf.c:686
        conv.F /= 10;
    1a7a:	20 e0       	ldi	r18, 0x00	; 0
    1a7c:	30 e0       	ldi	r19, 0x00	; 0
    1a7e:	40 e2       	ldi	r20, 0x20	; 32
    1a80:	51 e4       	ldi	r21, 0x41	; 65
    1a82:	c3 01       	movw	r24, r6
    1a84:	b2 01       	movw	r22, r4
    1a86:	0e 94 dd 24 	call	0x49ba	; 0x49ba <__divsf3>
    1a8a:	2b 01       	movw	r4, r22
    1a8c:	3c 01       	movw	r6, r24
c:\users\admin\documents\arduino\libraries\libprintf\extras\printf/printf.c:689
      }
    }
    abs_exp10_covered_by_powers_table = PRINTF_ABS(exp10) < PRINTF_MAX_PRECOMPUTED_POWER_OF_10;
    1a8e:	c1 01       	movw	r24, r2
    1a90:	41 96       	adiw	r24, 0x11	; 17
    1a92:	51 e0       	ldi	r21, 0x01	; 1
    1a94:	5a a7       	std	Y+42, r21	; 0x2a
    1a96:	83 32       	cpi	r24, 0x23	; 35
    1a98:	91 05       	cpc	r25, r1
    1a9a:	08 f0       	brcs	.+2      	; 0x1a9e <print_exponential_number(void (*)(char, void*, unsigned int, unsigned int), char*, unsigned int, unsigned int, double, unsigned int, unsigned int, unsigned int, char*, unsigned int) [clone .constprop.42]+0x2b2>
    1a9c:	1a a6       	std	Y+42, r1	; 0x2a
c:\users\admin\documents\arduino\libraries\libprintf\extras\printf/printf.c:690
    normalization.raw_factor = abs_exp10_covered_by_powers_table ? powers_of_10[PRINTF_ABS(exp10)] : conv.F;
    1a9e:	83 97       	sbiw	r24, 0x23	; 35
    1aa0:	90 f4       	brcc	.+36     	; 0x1ac6 <print_exponential_number(void (*)(char, void*, unsigned int, unsigned int), char*, unsigned int, unsigned int, double, unsigned int, unsigned int, unsigned int, char*, unsigned int) [clone .constprop.42]+0x2da>
    1aa2:	c1 01       	movw	r24, r2
    1aa4:	37 fe       	sbrs	r3, 7
    1aa6:	04 c0       	rjmp	.+8      	; 0x1ab0 <print_exponential_number(void (*)(char, void*, unsigned int, unsigned int), char*, unsigned int, unsigned int, double, unsigned int, unsigned int, unsigned int, char*, unsigned int) [clone .constprop.42]+0x2c4>
    1aa8:	88 27       	eor	r24, r24
    1aaa:	99 27       	eor	r25, r25
    1aac:	82 19       	sub	r24, r2
    1aae:	93 09       	sbc	r25, r3
    1ab0:	88 0f       	add	r24, r24
    1ab2:	99 1f       	adc	r25, r25
    1ab4:	88 0f       	add	r24, r24
    1ab6:	99 1f       	adc	r25, r25
    1ab8:	fc 01       	movw	r30, r24
    1aba:	ea 5f       	subi	r30, 0xFA	; 250
    1abc:	fd 4f       	sbci	r31, 0xFD	; 253
    1abe:	40 80       	ld	r4, Z
    1ac0:	51 80       	ldd	r5, Z+1	; 0x01
    1ac2:	62 80       	ldd	r6, Z+2	; 0x02
    1ac4:	73 80       	ldd	r7, Z+3	; 0x03
c:\users\admin\documents\arduino\libraries\libprintf\extras\printf/printf.c:700
  // For both of these, the value of 0 has a special meaning, but not the same one:
  // a 0 exponent-part width means "don't print the exponent"; a 0 decimal-part width
  // means "use as many characters as necessary".

  bool fall_back_to_decimal_only_mode = false;
  if (flags & FLAGS_ADAPT_EXP) {
    1ac6:	88 a5       	ldd	r24, Y+40	; 0x28
    1ac8:	99 a5       	ldd	r25, Y+41	; 0x29
    1aca:	93 ff       	sbrs	r25, 3
    1acc:	8d c1       	rjmp	.+794    	; 0x1de8 <print_exponential_number(void (*)(char, void*, unsigned int, unsigned int), char*, unsigned int, unsigned int, double, unsigned int, unsigned int, unsigned int, char*, unsigned int) [clone .constprop.42]+0x5fc>
c:\users\admin\documents\arduino\libraries\libprintf\extras\printf/printf.c:701
    int required_significant_digits = (precision == 0) ? 1 : (int) precision;
    1ace:	ae 8d       	ldd	r26, Y+30	; 0x1e
    1ad0:	bf 8d       	ldd	r27, Y+31	; 0x1f
    1ad2:	9d 01       	movw	r18, r26
    1ad4:	ab 2b       	or	r26, r27
    1ad6:	11 f4       	brne	.+4      	; 0x1adc <print_exponential_number(void (*)(char, void*, unsigned int, unsigned int), char*, unsigned int, unsigned int, double, unsigned int, unsigned int, unsigned int, char*, unsigned int) [clone .constprop.42]+0x2f0>
    1ad8:	21 e0       	ldi	r18, 0x01	; 1
    1ada:	30 e0       	ldi	r19, 0x00	; 0
    1adc:	8e 8d       	ldd	r24, Y+30	; 0x1e
    1ade:	9f 8d       	ldd	r25, Y+31	; 0x1f
    1ae0:	01 97       	sbiw	r24, 0x01	; 1
c:\users\admin\documents\arduino\libraries\libprintf\extras\printf/printf.c:703
    // Should we want to fall-back to "%f" mode, and only print the decimal part?
    fall_back_to_decimal_only_mode = (exp10 >= -4 && exp10 < required_significant_digits);
    1ae2:	bc ef       	ldi	r27, 0xFC	; 252
    1ae4:	2b 16       	cp	r2, r27
    1ae6:	bf ef       	ldi	r27, 0xFF	; 255
    1ae8:	3b 06       	cpc	r3, r27
    1aea:	0c f4       	brge	.+2      	; 0x1aee <print_exponential_number(void (*)(char, void*, unsigned int, unsigned int), char*, unsigned int, unsigned int, double, unsigned int, unsigned int, unsigned int, char*, unsigned int) [clone .constprop.42]+0x302>
    1aec:	67 c0       	rjmp	.+206    	; 0x1bbc <print_exponential_number(void (*)(char, void*, unsigned int, unsigned int), char*, unsigned int, unsigned int, double, unsigned int, unsigned int, unsigned int, char*, unsigned int) [clone .constprop.42]+0x3d0>
    1aee:	22 16       	cp	r2, r18
    1af0:	33 06       	cpc	r3, r19
    1af2:	0c f0       	brlt	.+2      	; 0x1af6 <print_exponential_number(void (*)(char, void*, unsigned int, unsigned int), char*, unsigned int, unsigned int, double, unsigned int, unsigned int, unsigned int, char*, unsigned int) [clone .constprop.42]+0x30a>
    1af4:	63 c0       	rjmp	.+198    	; 0x1bbc <print_exponential_number(void (*)(char, void*, unsigned int, unsigned int), char*, unsigned int, unsigned int, double, unsigned int, unsigned int, unsigned int, char*, unsigned int) [clone .constprop.42]+0x3d0>
c:\users\admin\documents\arduino\libraries\libprintf\extras\printf/printf.c:708
    // Now, let's adjust the precision
    // This also decided how we adjust the precision value - as in "%g" mode,
    // "precision" is the number of _significant digits_, and this is when we "translate"
    // the precision value to an actual number of decimal digits.
    int precision_ = (fall_back_to_decimal_only_mode) ?
    1af6:	82 19       	sub	r24, r2
    1af8:	93 09       	sbc	r25, r3
c:\users\admin\documents\arduino\libraries\libprintf\extras\printf/printf.c:703

  bool fall_back_to_decimal_only_mode = false;
  if (flags & FLAGS_ADAPT_EXP) {
    int required_significant_digits = (precision == 0) ? 1 : (int) precision;
    // Should we want to fall-back to "%f" mode, and only print the decimal part?
    fall_back_to_decimal_only_mode = (exp10 >= -4 && exp10 < required_significant_digits);
    1afa:	aa 24       	eor	r10, r10
    1afc:	a3 94       	inc	r10
c:\users\admin\documents\arduino\libraries\libprintf\extras\printf/printf.c:711
    // "precision" is the number of _significant digits_, and this is when we "translate"
    // the precision value to an actual number of decimal digits.
    int precision_ = (fall_back_to_decimal_only_mode) ?
        (int) precision - 1 - exp10 :
        (int) precision - 1; // the presence of the exponent ensures only one significant digit comes before the decimal point
    precision = (precision_ > 0 ? (unsigned) precision_ : 0U);
    1afe:	9f 8f       	std	Y+31, r25	; 0x1f
    1b00:	8e 8f       	std	Y+30, r24	; 0x1e
    1b02:	97 ff       	sbrs	r25, 7
    1b04:	02 c0       	rjmp	.+4      	; 0x1b0a <print_exponential_number(void (*)(char, void*, unsigned int, unsigned int), char*, unsigned int, unsigned int, double, unsigned int, unsigned int, unsigned int, char*, unsigned int) [clone .constprop.42]+0x31e>
    1b06:	1f 8e       	std	Y+31, r1	; 0x1f
    1b08:	1e 8e       	std	Y+30, r1	; 0x1e
c:\users\admin\documents\arduino\libraries\libprintf\extras\printf/printf.c:712
    flags |= FLAGS_PRECISION;   // make sure print_broken_up_decimal respects our choice above
    1b0a:	e8 a5       	ldd	r30, Y+40	; 0x28
    1b0c:	f9 a5       	ldd	r31, Y+41	; 0x29
    1b0e:	f4 60       	ori	r31, 0x04	; 4
    1b10:	f9 a7       	std	Y+41, r31	; 0x29
    1b12:	e8 a7       	std	Y+40, r30	; 0x28
c:\users\admin\documents\arduino\libraries\libprintf\extras\printf/printf.c:715
  }

  normalization.multiply = (exp10 < 0 && abs_exp10_covered_by_powers_table);
    1b14:	37 fe       	sbrs	r3, 7
    1b16:	1a a6       	std	Y+42, r1	; 0x2a
c:\users\admin\documents\arduino\libraries\libprintf\extras\printf/printf.c:716
  bool should_skip_normalization = (fall_back_to_decimal_only_mode || exp10 == 0);
    1b18:	a1 10       	cpse	r10, r1
    1b1a:	c1 c1       	rjmp	.+898    	; 0x1e9e <print_exponential_number(void (*)(char, void*, unsigned int, unsigned int), char*, unsigned int, unsigned int, double, unsigned int, unsigned int, unsigned int, char*, unsigned int) [clone .constprop.42]+0x6b2>
    1b1c:	21 14       	cp	r2, r1
    1b1e:	31 04       	cpc	r3, r1
    1b20:	09 f4       	brne	.+2      	; 0x1b24 <print_exponential_number(void (*)(char, void*, unsigned int, unsigned int), char*, unsigned int, unsigned int, double, unsigned int, unsigned int, unsigned int, char*, unsigned int) [clone .constprop.42]+0x338>
    1b22:	75 c1       	rjmp	.+746    	; 0x1e0e <print_exponential_number(void (*)(char, void*, unsigned int, unsigned int), char*, unsigned int, unsigned int, double, unsigned int, unsigned int, unsigned int, char*, unsigned int) [clone .constprop.42]+0x622>
c:\users\admin\documents\arduino\libraries\libprintf\extras\printf/printf.c:653

#if PRINTF_SUPPORT_EXPONENTIAL_SPECIFIERS
// internal ftoa variant for exponential floating-point type, contributed by Martijn Jasperse <m.jasperse@gmail.com>
static size_t print_exponential_number(out_fct_type out, char* buffer, size_t idx, size_t maxlen, double number, unsigned int precision, unsigned int width, unsigned int flags, char* buf, size_t len)
{
  const bool negative = get_sign(number);
    1b24:	8e 89       	ldd	r24, Y+22	; 0x16
    1b26:	81 70       	andi	r24, 0x01	; 1
    1b28:	89 8b       	std	Y+17, r24	; 0x11
apply_scaling():
c:\users\admin\documents\arduino\libraries\libprintf\extras\printf/printf.c:485
  bool multiply; // if true, need to multiply by raw_factor; otherwise need to divide by it
};

double apply_scaling(double num, struct scaling_factor normalization)
{
  return normalization.multiply ? num * normalization.raw_factor : num / normalization.raw_factor;
    1b2a:	fa a5       	ldd	r31, Y+42	; 0x2a
    1b2c:	ff 23       	and	r31, r31
    1b2e:	09 f4       	brne	.+2      	; 0x1b32 <print_exponential_number(void (*)(char, void*, unsigned int, unsigned int), char*, unsigned int, unsigned int, double, unsigned int, unsigned int, unsigned int, char*, unsigned int) [clone .constprop.42]+0x346>
    1b30:	63 c1       	rjmp	.+710    	; 0x1df8 <print_exponential_number(void (*)(char, void*, unsigned int, unsigned int), char*, unsigned int, unsigned int, double, unsigned int, unsigned int, unsigned int, char*, unsigned int) [clone .constprop.42]+0x60c>
    1b32:	a3 01       	movw	r20, r6
    1b34:	92 01       	movw	r18, r4
    1b36:	6a 89       	ldd	r22, Y+18	; 0x12
    1b38:	7b 89       	ldd	r23, Y+19	; 0x13
    1b3a:	8c 89       	ldd	r24, Y+20	; 0x14
    1b3c:	9d 89       	ldd	r25, Y+21	; 0x15
    1b3e:	0e 94 cc 26 	call	0x4d98	; 0x4d98 <__mulsf3>
    1b42:	1a a5       	ldd	r17, Y+42	; 0x2a
get_normalized_components():
c:\users\admin\documents\arduino\libraries\libprintf\extras\printf/printf.c:522
#if PRINTF_SUPPORT_EXPONENTIAL_SPECIFIERS
static struct double_components get_normalized_components(bool negative, unsigned int precision, double non_normalized, struct scaling_factor normalization)
{
  struct double_components components;
  components.is_negative = negative;
  components.integral = (int_fast64_t) apply_scaling(non_normalized, normalization);
    1b44:	0e 94 4f 25 	call	0x4a9e	; 0x4a9e <__fixsfdi>
    1b48:	2e 8b       	std	Y+22, r18	; 0x16
    1b4a:	3a 8f       	std	Y+26, r19	; 0x1a
    1b4c:	48 a3       	std	Y+32, r20	; 0x20
    1b4e:	5c a3       	std	Y+36, r21	; 0x24
    1b50:	6d a3       	std	Y+37, r22	; 0x25
    1b52:	7e a3       	std	Y+38, r23	; 0x26
    1b54:	88 2e       	mov	r8, r24
    1b56:	9f a3       	std	Y+39, r25	; 0x27
c:\users\admin\documents\arduino\libraries\libprintf\extras\printf/printf.c:523
  double remainder = non_normalized - unapply_scaling((double) components.integral, normalization);
    1b58:	0e 94 c1 25 	call	0x4b82	; 0x4b82 <__floatdisf>
unapply_scaling():
c:\users\admin\documents\arduino\libraries\libprintf\extras\printf/printf.c:490
  return normalization.multiply ? num * normalization.raw_factor : num / normalization.raw_factor;
}

double unapply_scaling(double normalized, struct scaling_factor normalization)
{
  return normalization.multiply ? normalized / normalization.raw_factor : normalized * normalization.raw_factor;
    1b5c:	2a a5       	ldd	r18, Y+42	; 0x2a
    1b5e:	a3 01       	movw	r20, r6
    1b60:	22 23       	and	r18, r18
    1b62:	71 f1       	breq	.+92     	; 0x1bc0 <print_exponential_number(void (*)(char, void*, unsigned int, unsigned int), char*, unsigned int, unsigned int, double, unsigned int, unsigned int, unsigned int, char*, unsigned int) [clone .constprop.42]+0x3d4>
    1b64:	92 01       	movw	r18, r4
    1b66:	0e 94 dd 24 	call	0x49ba	; 0x49ba <__divsf3>
get_normalized_components():
c:\users\admin\documents\arduino\libraries\libprintf\extras\printf/printf.c:523
static struct double_components get_normalized_components(bool negative, unsigned int precision, double non_normalized, struct scaling_factor normalization)
{
  struct double_components components;
  components.is_negative = negative;
  components.integral = (int_fast64_t) apply_scaling(non_normalized, normalization);
  double remainder = non_normalized - unapply_scaling((double) components.integral, normalization);
    1b6a:	9b 01       	movw	r18, r22
    1b6c:	ac 01       	movw	r20, r24
    1b6e:	6a 89       	ldd	r22, Y+18	; 0x12
    1b70:	7b 89       	ldd	r23, Y+19	; 0x13
    1b72:	8c 89       	ldd	r24, Y+20	; 0x14
    1b74:	9d 89       	ldd	r25, Y+21	; 0x15
    1b76:	0e 94 6b 24 	call	0x48d6	; 0x48d6 <__subsf3>
    1b7a:	6b 01       	movw	r12, r22
    1b7c:	7c 01       	movw	r14, r24
c:\users\admin\documents\arduino\libraries\libprintf\extras\printf/printf.c:524
  double prec_power_of_10 = powers_of_10[precision];
    1b7e:	ee 8d       	ldd	r30, Y+30	; 0x1e
    1b80:	ff 8d       	ldd	r31, Y+31	; 0x1f
    1b82:	ee 0f       	add	r30, r30
    1b84:	ff 1f       	adc	r31, r31
    1b86:	ee 0f       	add	r30, r30
    1b88:	ff 1f       	adc	r31, r31
    1b8a:	ea 5f       	subi	r30, 0xFA	; 250
    1b8c:	fd 4f       	sbci	r31, 0xFD	; 253
    1b8e:	80 81       	ld	r24, Z
    1b90:	91 81       	ldd	r25, Z+1	; 0x01
    1b92:	a2 81       	ldd	r26, Z+2	; 0x02
    1b94:	b3 81       	ldd	r27, Z+3	; 0x03
    1b96:	8a 8b       	std	Y+18, r24	; 0x12
    1b98:	9b 8b       	std	Y+19, r25	; 0x13
    1b9a:	ac 8b       	std	Y+20, r26	; 0x14
    1b9c:	bd 8b       	std	Y+21, r27	; 0x15
update_normalization():
c:\users\admin\documents\arduino\libraries\libprintf\extras\printf/printf.c:496
}

struct scaling_factor update_normalization(struct scaling_factor sf, double extra_multiplicative_factor)
{
  struct scaling_factor result;
  if (sf.multiply) {
    1b9e:	11 23       	and	r17, r17
    1ba0:	99 f0       	breq	.+38     	; 0x1bc8 <print_exponential_number(void (*)(char, void*, unsigned int, unsigned int), char*, unsigned int, unsigned int, double, unsigned int, unsigned int, unsigned int, char*, unsigned int) [clone .constprop.42]+0x3dc>
c:\users\admin\documents\arduino\libraries\libprintf\extras\printf/printf.c:498
    result.multiply = true;
    result.raw_factor = sf.raw_factor * extra_multiplicative_factor;
    1ba2:	a3 01       	movw	r20, r6
    1ba4:	92 01       	movw	r18, r4
    1ba6:	bc 01       	movw	r22, r24
    1ba8:	cd 01       	movw	r24, r26
    1baa:	0e 94 cc 26 	call	0x4d98	; 0x4d98 <__mulsf3>
apply_scaling():
c:\users\admin\documents\arduino\libraries\libprintf\extras\printf/printf.c:485
  bool multiply; // if true, need to multiply by raw_factor; otherwise need to divide by it
};

double apply_scaling(double num, struct scaling_factor normalization)
{
  return normalization.multiply ? num * normalization.raw_factor : num / normalization.raw_factor;
    1bae:	9b 01       	movw	r18, r22
    1bb0:	ac 01       	movw	r20, r24
    1bb2:	c7 01       	movw	r24, r14
    1bb4:	b6 01       	movw	r22, r12
    1bb6:	0e 94 cc 26 	call	0x4d98	; 0x4d98 <__mulsf3>
    1bba:	3d c0       	rjmp	.+122    	; 0x1c36 <print_exponential_number(void (*)(char, void*, unsigned int, unsigned int), char*, unsigned int, unsigned int, double, unsigned int, unsigned int, unsigned int, char*, unsigned int) [clone .constprop.42]+0x44a>
_ZL24print_exponential_numberPFvcPvjjEPcjjdjjjS2_j.constprop.42():
c:\users\admin\documents\arduino\libraries\libprintf\extras\printf/printf.c:703

  bool fall_back_to_decimal_only_mode = false;
  if (flags & FLAGS_ADAPT_EXP) {
    int required_significant_digits = (precision == 0) ? 1 : (int) precision;
    // Should we want to fall-back to "%f" mode, and only print the decimal part?
    fall_back_to_decimal_only_mode = (exp10 >= -4 && exp10 < required_significant_digits);
    1bbc:	a1 2c       	mov	r10, r1
    1bbe:	9f cf       	rjmp	.-194    	; 0x1afe <print_exponential_number(void (*)(char, void*, unsigned int, unsigned int), char*, unsigned int, unsigned int, double, unsigned int, unsigned int, unsigned int, char*, unsigned int) [clone .constprop.42]+0x312>
unapply_scaling():
c:\users\admin\documents\arduino\libraries\libprintf\extras\printf/printf.c:490
  return normalization.multiply ? num * normalization.raw_factor : num / normalization.raw_factor;
}

double unapply_scaling(double normalized, struct scaling_factor normalization)
{
  return normalization.multiply ? normalized / normalization.raw_factor : normalized * normalization.raw_factor;
    1bc0:	92 01       	movw	r18, r4
    1bc2:	0e 94 cc 26 	call	0x4d98	; 0x4d98 <__mulsf3>
    1bc6:	d1 cf       	rjmp	.-94     	; 0x1b6a <print_exponential_number(void (*)(char, void*, unsigned int, unsigned int), char*, unsigned int, unsigned int, double, unsigned int, unsigned int, unsigned int, char*, unsigned int) [clone .constprop.42]+0x37e>
get_exp2():
c:\users\admin\documents\arduino\libraries\libprintf\extras\printf/printf.c:203
{
  // The exponent in an IEEE-754 floating-point number occupies a contiguous
  // sequence of bits (e.g. 52..62 for 64-bit doubles), but with a non-trivial representation: An
  // unsigned offset from some negative value (with the extremal offset values reserved for
  // special use).
  return (int)((x.U >> DOUBLE_STORED_MANTISSA_BITS ) & DOUBLE_EXPONENT_MASK) - DOUBLE_BASE_EXPONENT;
    1bc8:	d3 01       	movw	r26, r6
    1bca:	c2 01       	movw	r24, r4
    1bcc:	57 e1       	ldi	r21, 0x17	; 23
    1bce:	b6 95       	lsr	r27
    1bd0:	a7 95       	ror	r26
    1bd2:	97 95       	ror	r25
    1bd4:	87 95       	ror	r24
    1bd6:	5a 95       	dec	r21
    1bd8:	d1 f7       	brne	.-12     	; 0x1bce <print_exponential_number(void (*)(char, void*, unsigned int, unsigned int), char*, unsigned int, unsigned int, double, unsigned int, unsigned int, unsigned int, char*, unsigned int) [clone .constprop.42]+0x3e2>
    1bda:	99 27       	eor	r25, r25
update_normalization():
c:\users\admin\documents\arduino\libraries\libprintf\extras\printf/printf.c:505
  else {
    int factor_exp2 = get_exp2(get_bit_access(sf.raw_factor));
    int extra_factor_exp2 = get_exp2(get_bit_access(extra_multiplicative_factor));

    // Divide the larger-exponent raw raw_factor by the smaller
    if (PRINTF_ABS(factor_exp2) > PRINTF_ABS(extra_factor_exp2)) {
    1bdc:	9c 01       	movw	r18, r24
    1bde:	2f 57       	subi	r18, 0x7F	; 127
    1be0:	31 09       	sbc	r19, r1
    1be2:	37 ff       	sbrs	r19, 7
    1be4:	03 c0       	rjmp	.+6      	; 0x1bec <print_exponential_number(void (*)(char, void*, unsigned int, unsigned int), char*, unsigned int, unsigned int, double, unsigned int, unsigned int, unsigned int, char*, unsigned int) [clone .constprop.42]+0x400>
    1be6:	31 95       	neg	r19
    1be8:	21 95       	neg	r18
    1bea:	31 09       	sbc	r19, r1
get_exp2():
c:\users\admin\documents\arduino\libraries\libprintf\extras\printf/printf.c:203
{
  // The exponent in an IEEE-754 floating-point number occupies a contiguous
  // sequence of bits (e.g. 52..62 for 64-bit doubles), but with a non-trivial representation: An
  // unsigned offset from some negative value (with the extremal offset values reserved for
  // special use).
  return (int)((x.U >> DOUBLE_STORED_MANTISSA_BITS ) & DOUBLE_EXPONENT_MASK) - DOUBLE_BASE_EXPONENT;
    1bec:	8a 89       	ldd	r24, Y+18	; 0x12
    1bee:	9b 89       	ldd	r25, Y+19	; 0x13
    1bf0:	ac 89       	ldd	r26, Y+20	; 0x14
    1bf2:	bd 89       	ldd	r27, Y+21	; 0x15
    1bf4:	47 e1       	ldi	r20, 0x17	; 23
    1bf6:	b6 95       	lsr	r27
    1bf8:	a7 95       	ror	r26
    1bfa:	97 95       	ror	r25
    1bfc:	87 95       	ror	r24
    1bfe:	4a 95       	dec	r20
    1c00:	d1 f7       	brne	.-12     	; 0x1bf6 <print_exponential_number(void (*)(char, void*, unsigned int, unsigned int), char*, unsigned int, unsigned int, double, unsigned int, unsigned int, unsigned int, char*, unsigned int) [clone .constprop.42]+0x40a>
    1c02:	99 27       	eor	r25, r25
update_normalization():
c:\users\admin\documents\arduino\libraries\libprintf\extras\printf/printf.c:505
  else {
    int factor_exp2 = get_exp2(get_bit_access(sf.raw_factor));
    int extra_factor_exp2 = get_exp2(get_bit_access(extra_multiplicative_factor));

    // Divide the larger-exponent raw raw_factor by the smaller
    if (PRINTF_ABS(factor_exp2) > PRINTF_ABS(extra_factor_exp2)) {
    1c04:	8f 57       	subi	r24, 0x7F	; 127
    1c06:	91 09       	sbc	r25, r1
    1c08:	97 ff       	sbrs	r25, 7
    1c0a:	03 c0       	rjmp	.+6      	; 0x1c12 <print_exponential_number(void (*)(char, void*, unsigned int, unsigned int), char*, unsigned int, unsigned int, double, unsigned int, unsigned int, unsigned int, char*, unsigned int) [clone .constprop.42]+0x426>
    1c0c:	91 95       	neg	r25
    1c0e:	81 95       	neg	r24
    1c10:	91 09       	sbc	r25, r1
    1c12:	82 17       	cp	r24, r18
    1c14:	93 07       	cpc	r25, r19
    1c16:	0c f0       	brlt	.+2      	; 0x1c1a <print_exponential_number(void (*)(char, void*, unsigned int, unsigned int), char*, unsigned int, unsigned int, double, unsigned int, unsigned int, unsigned int, char*, unsigned int) [clone .constprop.42]+0x42e>
    1c18:	7d c0       	rjmp	.+250    	; 0x1d14 <print_exponential_number(void (*)(char, void*, unsigned int, unsigned int), char*, unsigned int, unsigned int, double, unsigned int, unsigned int, unsigned int, char*, unsigned int) [clone .constprop.42]+0x528>
c:\users\admin\documents\arduino\libraries\libprintf\extras\printf/printf.c:507
      result.multiply = false;
      result.raw_factor = sf.raw_factor / extra_multiplicative_factor;
    1c1a:	2a 89       	ldd	r18, Y+18	; 0x12
    1c1c:	3b 89       	ldd	r19, Y+19	; 0x13
    1c1e:	4c 89       	ldd	r20, Y+20	; 0x14
    1c20:	5d 89       	ldd	r21, Y+21	; 0x15
    1c22:	c3 01       	movw	r24, r6
    1c24:	b2 01       	movw	r22, r4
    1c26:	0e 94 dd 24 	call	0x49ba	; 0x49ba <__divsf3>
apply_scaling():
c:\users\admin\documents\arduino\libraries\libprintf\extras\printf/printf.c:485
  bool multiply; // if true, need to multiply by raw_factor; otherwise need to divide by it
};

double apply_scaling(double num, struct scaling_factor normalization)
{
  return normalization.multiply ? num * normalization.raw_factor : num / normalization.raw_factor;
    1c2a:	9b 01       	movw	r18, r22
    1c2c:	ac 01       	movw	r20, r24
    1c2e:	c7 01       	movw	r24, r14
    1c30:	b6 01       	movw	r22, r12
    1c32:	0e 94 dd 24 	call	0x49ba	; 0x49ba <__divsf3>
    1c36:	2b 01       	movw	r4, r22
    1c38:	3c 01       	movw	r6, r24
get_normalized_components():
c:\users\admin\documents\arduino\libraries\libprintf\extras\printf/printf.c:529
  double prec_power_of_10 = powers_of_10[precision];
  struct scaling_factor account_for_precision = update_normalization(normalization, prec_power_of_10);
  double scaled_remainder = apply_scaling(remainder, account_for_precision);
  double rounding_threshold = 0.5;

  if (precision == 0U) {
    1c3a:	ae 8d       	ldd	r26, Y+30	; 0x1e
    1c3c:	bf 8d       	ldd	r27, Y+31	; 0x1f
    1c3e:	ab 2b       	or	r26, r27
    1c40:	09 f0       	breq	.+2      	; 0x1c44 <print_exponential_number(void (*)(char, void*, unsigned int, unsigned int), char*, unsigned int, unsigned int, double, unsigned int, unsigned int, unsigned int, char*, unsigned int) [clone .constprop.42]+0x458>
    1c42:	71 c0       	rjmp	.+226    	; 0x1d26 <print_exponential_number(void (*)(char, void*, unsigned int, unsigned int), char*, unsigned int, unsigned int, double, unsigned int, unsigned int, unsigned int, char*, unsigned int) [clone .constprop.42]+0x53a>
c:\users\admin\documents\arduino\libraries\libprintf\extras\printf/printf.c:531
    components.fractional = 0;
    components.integral += (scaled_remainder >= rounding_threshold);
    1c44:	11 e0       	ldi	r17, 0x01	; 1
    1c46:	20 e0       	ldi	r18, 0x00	; 0
    1c48:	30 e0       	ldi	r19, 0x00	; 0
    1c4a:	40 e0       	ldi	r20, 0x00	; 0
    1c4c:	5f e3       	ldi	r21, 0x3F	; 63
    1c4e:	0e 94 c7 26 	call	0x4d8e	; 0x4d8e <__gesf2>
    1c52:	87 fd       	sbrc	r24, 7
    1c54:	10 e0       	ldi	r17, 0x00	; 0
    1c56:	21 2f       	mov	r18, r17
    1c58:	30 e0       	ldi	r19, 0x00	; 0
    1c5a:	40 e0       	ldi	r20, 0x00	; 0
    1c5c:	50 e0       	ldi	r21, 0x00	; 0
    1c5e:	60 e0       	ldi	r22, 0x00	; 0
    1c60:	70 e0       	ldi	r23, 0x00	; 0
    1c62:	80 e0       	ldi	r24, 0x00	; 0
    1c64:	90 e0       	ldi	r25, 0x00	; 0
    1c66:	ae 88       	ldd	r10, Y+22	; 0x16
    1c68:	ba 8c       	ldd	r11, Y+26	; 0x1a
    1c6a:	c8 a0       	ldd	r12, Y+32	; 0x20
    1c6c:	dc a0       	ldd	r13, Y+36	; 0x24
    1c6e:	ed a0       	ldd	r14, Y+37	; 0x25
    1c70:	fe a0       	ldd	r15, Y+38	; 0x26
    1c72:	08 2d       	mov	r16, r8
    1c74:	1f a1       	ldd	r17, Y+39	; 0x27
    1c76:	0e 94 c6 28 	call	0x518c	; 0x518c <__adddi3>
    1c7a:	2e 8b       	std	Y+22, r18	; 0x16
    1c7c:	3a 8f       	std	Y+26, r19	; 0x1a
    1c7e:	48 a3       	std	Y+32, r20	; 0x20
    1c80:	5c a3       	std	Y+36, r21	; 0x24
    1c82:	6d a3       	std	Y+37, r22	; 0x25
    1c84:	7e a3       	std	Y+38, r23	; 0x26
    1c86:	88 2e       	mov	r8, r24
    1c88:	9f a3       	std	Y+39, r25	; 0x27
c:\users\admin\documents\arduino\libraries\libprintf\extras\printf/printf.c:532
    if (scaled_remainder == rounding_threshold) {
    1c8a:	20 e0       	ldi	r18, 0x00	; 0
    1c8c:	30 e0       	ldi	r19, 0x00	; 0
    1c8e:	40 e0       	ldi	r20, 0x00	; 0
    1c90:	5f e3       	ldi	r21, 0x3F	; 63
    1c92:	c3 01       	movw	r24, r6
    1c94:	b2 01       	movw	r22, r4
    1c96:	0e 94 d8 24 	call	0x49b0	; 0x49b0 <__cmpsf2>
    1c9a:	81 11       	cpse	r24, r1
    1c9c:	03 c0       	rjmp	.+6      	; 0x1ca4 <print_exponential_number(void (*)(char, void*, unsigned int, unsigned int), char*, unsigned int, unsigned int, double, unsigned int, unsigned int, unsigned int, char*, unsigned int) [clone .constprop.42]+0x4b8>
c:\users\admin\documents\arduino\libraries\libprintf\extras\printf/printf.c:534
      // banker's rounding: Round towards the even number (making the mean error 0)
      components.integral &= ~((int_fast64_t) 0x1);
    1c9e:	be 89       	ldd	r27, Y+22	; 0x16
    1ca0:	be 7f       	andi	r27, 0xFE	; 254
    1ca2:	be 8b       	std	Y+22, r27	; 0x16
c:\users\admin\documents\arduino\libraries\libprintf\extras\printf/printf.c:530
  struct scaling_factor account_for_precision = update_normalization(normalization, prec_power_of_10);
  double scaled_remainder = apply_scaling(remainder, account_for_precision);
  double rounding_threshold = 0.5;

  if (precision == 0U) {
    components.fractional = 0;
    1ca4:	10 e0       	ldi	r17, 0x00	; 0
    1ca6:	b1 2c       	mov	r11, r1
    1ca8:	c1 2c       	mov	r12, r1
    1caa:	91 2c       	mov	r9, r1
    1cac:	d1 2c       	mov	r13, r1
    1cae:	e1 2c       	mov	r14, r1
    1cb0:	f1 2c       	mov	r15, r1
    1cb2:	00 e0       	ldi	r16, 0x00	; 0
_ZL24print_exponential_numberPFvcPvjjEPcjjdjjjS2_j.constprop.42():
c:\users\admin\documents\arduino\libraries\libprintf\extras\printf/printf.c:733
      // ... and it should already be the case that decimal_part_components.fractional == 0
    }
    // TODO: What about rollover strictly within the fractional part?
  }
  else {
    if (decimal_part_components.integral >= 10) {
    1cb4:	2e 89       	ldd	r18, Y+22	; 0x16
    1cb6:	3a 8d       	ldd	r19, Y+26	; 0x1a
    1cb8:	48 a1       	ldd	r20, Y+32	; 0x20
    1cba:	5c a1       	ldd	r21, Y+36	; 0x24
    1cbc:	6d a1       	ldd	r22, Y+37	; 0x25
    1cbe:	7e a1       	ldd	r23, Y+38	; 0x26
    1cc0:	88 2d       	mov	r24, r8
    1cc2:	9f a1       	ldd	r25, Y+39	; 0x27
    1cc4:	a9 e0       	ldi	r26, 0x09	; 9
    1cc6:	0e 94 db 28 	call	0x51b6	; 0x51b6 <__cmpdi2_s8>
    1cca:	a9 f0       	breq	.+42     	; 0x1cf6 <print_exponential_number(void (*)(char, void*, unsigned int, unsigned int), char*, unsigned int, unsigned int, double, unsigned int, unsigned int, unsigned int, char*, unsigned int) [clone .constprop.42]+0x50a>
    1ccc:	a4 f0       	brlt	.+40     	; 0x1cf6 <print_exponential_number(void (*)(char, void*, unsigned int, unsigned int), char*, unsigned int, unsigned int, double, unsigned int, unsigned int, unsigned int, char*, unsigned int) [clone .constprop.42]+0x50a>
c:\users\admin\documents\arduino\libraries\libprintf\extras\printf/printf.c:734
      exp10++;
    1cce:	3f ef       	ldi	r19, 0xFF	; 255
    1cd0:	23 1a       	sub	r2, r19
    1cd2:	33 0a       	sbc	r3, r19
c:\users\admin\documents\arduino\libraries\libprintf\extras\printf/printf.c:736
      decimal_part_components.integral = 1;
      decimal_part_components.fractional = 0;
    1cd4:	10 e0       	ldi	r17, 0x00	; 0
    1cd6:	b1 2c       	mov	r11, r1
    1cd8:	c1 2c       	mov	r12, r1
    1cda:	91 2c       	mov	r9, r1
    1cdc:	d1 2c       	mov	r13, r1
    1cde:	e1 2c       	mov	r14, r1
    1ce0:	f1 2c       	mov	r15, r1
    1ce2:	00 e0       	ldi	r16, 0x00	; 0
c:\users\admin\documents\arduino\libraries\libprintf\extras\printf/printf.c:735
    // TODO: What about rollover strictly within the fractional part?
  }
  else {
    if (decimal_part_components.integral >= 10) {
      exp10++;
      decimal_part_components.integral = 1;
    1ce4:	41 e0       	ldi	r20, 0x01	; 1
    1ce6:	4e 8b       	std	Y+22, r20	; 0x16
    1ce8:	1a 8e       	std	Y+26, r1	; 0x1a
    1cea:	18 a2       	std	Y+32, r1	; 0x20
    1cec:	1c a2       	std	Y+36, r1	; 0x24
    1cee:	1d a2       	std	Y+37, r1	; 0x25
    1cf0:	1e a2       	std	Y+38, r1	; 0x26
    1cf2:	81 2c       	mov	r8, r1
    1cf4:	1f a2       	std	Y+39, r1	; 0x27
c:\users\admin\documents\arduino\libraries\libprintf\extras\printf/printf.c:742
    }
  }

  // the exp10 format is "E%+03d" and largest possible exp10 value for a 64-bit double
  // is "307" (for 2^1023), so we set aside 4-5 characters overall
  unsigned int exp10_part_width = fall_back_to_decimal_only_mode ? 0U : (PRINTF_ABS(exp10) < 100) ? 4U : 5U;
    1cf6:	c1 01       	movw	r24, r2
    1cf8:	8d 59       	subi	r24, 0x9D	; 157
    1cfa:	9f 4f       	sbci	r25, 0xFF	; 255
    1cfc:	51 2c       	mov	r5, r1
    1cfe:	25 e0       	ldi	r18, 0x05	; 5
    1d00:	62 2e       	mov	r6, r18
    1d02:	71 2c       	mov	r7, r1
    1d04:	87 3c       	cpi	r24, 0xC7	; 199
    1d06:	91 05       	cpc	r25, r1
    1d08:	08 f0       	brcs	.+2      	; 0x1d0c <print_exponential_number(void (*)(char, void*, unsigned int, unsigned int), char*, unsigned int, unsigned int, double, unsigned int, unsigned int, unsigned int, char*, unsigned int) [clone .constprop.42]+0x520>
    1d0a:	27 c1       	rjmp	.+590    	; 0x1f5a <print_exponential_number(void (*)(char, void*, unsigned int, unsigned int), char*, unsigned int, unsigned int, double, unsigned int, unsigned int, unsigned int, char*, unsigned int) [clone .constprop.42]+0x76e>
    1d0c:	84 e0       	ldi	r24, 0x04	; 4
    1d0e:	68 2e       	mov	r6, r24
    1d10:	71 2c       	mov	r7, r1
    1d12:	23 c1       	rjmp	.+582    	; 0x1f5a <print_exponential_number(void (*)(char, void*, unsigned int, unsigned int), char*, unsigned int, unsigned int, double, unsigned int, unsigned int, unsigned int, char*, unsigned int) [clone .constprop.42]+0x76e>
update_normalization():
c:\users\admin\documents\arduino\libraries\libprintf\extras\printf/printf.c:511
      result.multiply = false;
      result.raw_factor = sf.raw_factor / extra_multiplicative_factor;
    }
    else {
      result.multiply = true;
      result.raw_factor = extra_multiplicative_factor / sf.raw_factor;
    1d14:	a3 01       	movw	r20, r6
    1d16:	92 01       	movw	r18, r4
    1d18:	6a 89       	ldd	r22, Y+18	; 0x12
    1d1a:	7b 89       	ldd	r23, Y+19	; 0x13
    1d1c:	8c 89       	ldd	r24, Y+20	; 0x14
    1d1e:	9d 89       	ldd	r25, Y+21	; 0x15
    1d20:	0e 94 dd 24 	call	0x49ba	; 0x49ba <__divsf3>
    1d24:	44 cf       	rjmp	.-376    	; 0x1bae <print_exponential_number(void (*)(char, void*, unsigned int, unsigned int), char*, unsigned int, unsigned int, double, unsigned int, unsigned int, unsigned int, char*, unsigned int) [clone .constprop.42]+0x3c2>
get_normalized_components():
c:\users\admin\documents\arduino\libraries\libprintf\extras\printf/printf.c:538
      // banker's rounding: Round towards the even number (making the mean error 0)
      components.integral &= ~((int_fast64_t) 0x1);
    }
  }
  else {
    components.fractional = (int_fast64_t) scaled_remainder;
    1d26:	0e 94 4f 25 	call	0x4a9e	; 0x4a9e <__fixsfdi>
    1d2a:	59 01       	movw	r10, r18
    1d2c:	6a 01       	movw	r12, r20
    1d2e:	7b 01       	movw	r14, r22
    1d30:	08 2f       	mov	r16, r24
    1d32:	99 2e       	mov	r9, r25
c:\users\admin\documents\arduino\libraries\libprintf\extras\printf/printf.c:539
    scaled_remainder -= components.fractional;
    1d34:	0e 94 c1 25 	call	0x4b82	; 0x4b82 <__floatdisf>
    1d38:	9b 01       	movw	r18, r22
    1d3a:	ac 01       	movw	r20, r24
    1d3c:	c3 01       	movw	r24, r6
    1d3e:	b2 01       	movw	r22, r4
    1d40:	0e 94 6b 24 	call	0x48d6	; 0x48d6 <__subsf3>
    1d44:	2b 01       	movw	r4, r22
    1d46:	3c 01       	movw	r6, r24
c:\users\admin\documents\arduino\libraries\libprintf\extras\printf/printf.c:541

    components.fractional += (scaled_remainder >= rounding_threshold);
    1d48:	11 e0       	ldi	r17, 0x01	; 1
    1d4a:	20 e0       	ldi	r18, 0x00	; 0
    1d4c:	30 e0       	ldi	r19, 0x00	; 0
    1d4e:	40 e0       	ldi	r20, 0x00	; 0
    1d50:	5f e3       	ldi	r21, 0x3F	; 63
    1d52:	0e 94 c7 26 	call	0x4d8e	; 0x4d8e <__gesf2>
    1d56:	87 fd       	sbrc	r24, 7
    1d58:	10 e0       	ldi	r17, 0x00	; 0
    1d5a:	21 2f       	mov	r18, r17
    1d5c:	30 e0       	ldi	r19, 0x00	; 0
    1d5e:	40 e0       	ldi	r20, 0x00	; 0
    1d60:	50 e0       	ldi	r21, 0x00	; 0
    1d62:	60 e0       	ldi	r22, 0x00	; 0
    1d64:	70 e0       	ldi	r23, 0x00	; 0
    1d66:	80 e0       	ldi	r24, 0x00	; 0
    1d68:	90 e0       	ldi	r25, 0x00	; 0
    1d6a:	19 2d       	mov	r17, r9
    1d6c:	0e 94 c6 28 	call	0x518c	; 0x518c <__adddi3>
    1d70:	12 2f       	mov	r17, r18
    1d72:	b3 2e       	mov	r11, r19
    1d74:	c4 2e       	mov	r12, r20
    1d76:	95 2e       	mov	r9, r21
    1d78:	d6 2e       	mov	r13, r22
    1d7a:	e7 2e       	mov	r14, r23
    1d7c:	f8 2e       	mov	r15, r24
    1d7e:	09 2f       	mov	r16, r25
c:\users\admin\documents\arduino\libraries\libprintf\extras\printf/printf.c:542
    if (scaled_remainder == rounding_threshold) {
    1d80:	20 e0       	ldi	r18, 0x00	; 0
    1d82:	30 e0       	ldi	r19, 0x00	; 0
    1d84:	40 e0       	ldi	r20, 0x00	; 0
    1d86:	5f e3       	ldi	r21, 0x3F	; 63
    1d88:	c3 01       	movw	r24, r6
    1d8a:	b2 01       	movw	r22, r4
    1d8c:	0e 94 d8 24 	call	0x49b0	; 0x49b0 <__cmpsf2>
    1d90:	81 11       	cpse	r24, r1
    1d92:	01 c0       	rjmp	.+2      	; 0x1d96 <print_exponential_number(void (*)(char, void*, unsigned int, unsigned int), char*, unsigned int, unsigned int, double, unsigned int, unsigned int, unsigned int, char*, unsigned int) [clone .constprop.42]+0x5aa>
c:\users\admin\documents\arduino\libraries\libprintf\extras\printf/printf.c:544
      // banker's rounding: Round towards the even number (making the mean error 0)
      components.fractional &= ~((int_fast64_t) 0x1);
    1d94:	1e 7f       	andi	r17, 0xFE	; 254
c:\users\admin\documents\arduino\libraries\libprintf\extras\printf/printf.c:548
    }
    // handle rollover, e.g. the case of 0.99 with precision 1 becoming (0,100),
    // and must then be corrected into (1, 0).
    if ((double) components.fractional >= prec_power_of_10) {
    1d96:	21 2f       	mov	r18, r17
    1d98:	3b 2d       	mov	r19, r11
    1d9a:	4c 2d       	mov	r20, r12
    1d9c:	59 2d       	mov	r21, r9
    1d9e:	6d 2d       	mov	r22, r13
    1da0:	7e 2d       	mov	r23, r14
    1da2:	8f 2d       	mov	r24, r15
    1da4:	90 2f       	mov	r25, r16
    1da6:	0e 94 c1 25 	call	0x4b82	; 0x4b82 <__floatdisf>
    1daa:	9b 01       	movw	r18, r22
    1dac:	ac 01       	movw	r20, r24
    1dae:	6a 89       	ldd	r22, Y+18	; 0x12
    1db0:	7b 89       	ldd	r23, Y+19	; 0x13
    1db2:	8c 89       	ldd	r24, Y+20	; 0x14
    1db4:	9d 89       	ldd	r25, Y+21	; 0x15
    1db6:	0e 94 d8 24 	call	0x49b0	; 0x49b0 <__cmpsf2>
    1dba:	18 16       	cp	r1, r24
    1dbc:	0c f4       	brge	.+2      	; 0x1dc0 <print_exponential_number(void (*)(char, void*, unsigned int, unsigned int), char*, unsigned int, unsigned int, double, unsigned int, unsigned int, unsigned int, char*, unsigned int) [clone .constprop.42]+0x5d4>
    1dbe:	7a cf       	rjmp	.-268    	; 0x1cb4 <print_exponential_number(void (*)(char, void*, unsigned int, unsigned int), char*, unsigned int, unsigned int, double, unsigned int, unsigned int, unsigned int, char*, unsigned int) [clone .constprop.42]+0x4c8>
c:\users\admin\documents\arduino\libraries\libprintf\extras\printf/printf.c:550
      components.fractional = 0;
      ++components.integral;
    1dc0:	2e 89       	ldd	r18, Y+22	; 0x16
    1dc2:	3a 8d       	ldd	r19, Y+26	; 0x1a
    1dc4:	48 a1       	ldd	r20, Y+32	; 0x20
    1dc6:	5c a1       	ldd	r21, Y+36	; 0x24
    1dc8:	6d a1       	ldd	r22, Y+37	; 0x25
    1dca:	7e a1       	ldd	r23, Y+38	; 0x26
    1dcc:	88 2d       	mov	r24, r8
    1dce:	9f a1       	ldd	r25, Y+39	; 0x27
    1dd0:	a1 e0       	ldi	r26, 0x01	; 1
    1dd2:	0e 94 cf 28 	call	0x519e	; 0x519e <__adddi3_s8>
    1dd6:	2e 8b       	std	Y+22, r18	; 0x16
    1dd8:	3a 8f       	std	Y+26, r19	; 0x1a
    1dda:	48 a3       	std	Y+32, r20	; 0x20
    1ddc:	5c a3       	std	Y+36, r21	; 0x24
    1dde:	6d a3       	std	Y+37, r22	; 0x25
    1de0:	7e a3       	std	Y+38, r23	; 0x26
    1de2:	88 2e       	mov	r8, r24
    1de4:	9f a3       	std	Y+39, r25	; 0x27
    1de6:	5e cf       	rjmp	.-324    	; 0x1ca4 <print_exponential_number(void (*)(char, void*, unsigned int, unsigned int), char*, unsigned int, unsigned int, double, unsigned int, unsigned int, unsigned int, char*, unsigned int) [clone .constprop.42]+0x4b8>
_ZL24print_exponential_numberPFvcPvjjEPcjjdjjjS2_j.constprop.42():
c:\users\admin\documents\arduino\libraries\libprintf\extras\printf/printf.c:715
        (int) precision - 1; // the presence of the exponent ensures only one significant digit comes before the decimal point
    precision = (precision_ > 0 ? (unsigned) precision_ : 0U);
    flags |= FLAGS_PRECISION;   // make sure print_broken_up_decimal respects our choice above
  }

  normalization.multiply = (exp10 < 0 && abs_exp10_covered_by_powers_table);
    1de8:	37 fc       	sbrc	r3, 7
    1dea:	98 ce       	rjmp	.-720    	; 0x1b1c <print_exponential_number(void (*)(char, void*, unsigned int, unsigned int), char*, unsigned int, unsigned int, double, unsigned int, unsigned int, unsigned int, char*, unsigned int) [clone .constprop.42]+0x330>
c:\users\admin\documents\arduino\libraries\libprintf\extras\printf/printf.c:716
  bool should_skip_normalization = (fall_back_to_decimal_only_mode || exp10 == 0);
    1dec:	21 14       	cp	r2, r1
    1dee:	31 04       	cpc	r3, r1
    1df0:	71 f0       	breq	.+28     	; 0x1e0e <print_exponential_number(void (*)(char, void*, unsigned int, unsigned int), char*, unsigned int, unsigned int, double, unsigned int, unsigned int, unsigned int, char*, unsigned int) [clone .constprop.42]+0x622>
c:\users\admin\documents\arduino\libraries\libprintf\extras\printf/printf.c:653

#if PRINTF_SUPPORT_EXPONENTIAL_SPECIFIERS
// internal ftoa variant for exponential floating-point type, contributed by Martijn Jasperse <m.jasperse@gmail.com>
static size_t print_exponential_number(out_fct_type out, char* buffer, size_t idx, size_t maxlen, double number, unsigned int precision, unsigned int width, unsigned int flags, char* buf, size_t len)
{
  const bool negative = get_sign(number);
    1df2:	8e 89       	ldd	r24, Y+22	; 0x16
    1df4:	81 70       	andi	r24, 0x01	; 1
    1df6:	89 8b       	std	Y+17, r24	; 0x11
apply_scaling():
c:\users\admin\documents\arduino\libraries\libprintf\extras\printf/printf.c:485
  bool multiply; // if true, need to multiply by raw_factor; otherwise need to divide by it
};

double apply_scaling(double num, struct scaling_factor normalization)
{
  return normalization.multiply ? num * normalization.raw_factor : num / normalization.raw_factor;
    1df8:	a3 01       	movw	r20, r6
    1dfa:	92 01       	movw	r18, r4
    1dfc:	6a 89       	ldd	r22, Y+18	; 0x12
    1dfe:	7b 89       	ldd	r23, Y+19	; 0x13
    1e00:	8c 89       	ldd	r24, Y+20	; 0x14
    1e02:	9d 89       	ldd	r25, Y+21	; 0x15
    1e04:	0e 94 dd 24 	call	0x49ba	; 0x49ba <__divsf3>
    1e08:	10 e0       	ldi	r17, 0x00	; 0
    1e0a:	1a a6       	std	Y+42, r1	; 0x2a
    1e0c:	9b ce       	rjmp	.-714    	; 0x1b44 <print_exponential_number(void (*)(char, void*, unsigned int, unsigned int), char*, unsigned int, unsigned int, double, unsigned int, unsigned int, unsigned int, char*, unsigned int) [clone .constprop.42]+0x358>
_ZL24print_exponential_numberPFvcPvjjEPcjjdjjjS2_j.constprop.42():
c:\users\admin\documents\arduino\libraries\libprintf\extras\printf/printf.c:719

  normalization.multiply = (exp10 < 0 && abs_exp10_covered_by_powers_table);
  bool should_skip_normalization = (fall_back_to_decimal_only_mode || exp10 == 0);
  struct double_components decimal_part_components =
    should_skip_normalization ?
    get_components(negative ? -abs_number : abs_number, precision) :
    1e0e:	a1 2c       	mov	r10, r1
    1e10:	01 2b       	or	r16, r17
    1e12:	09 f0       	breq	.+2      	; 0x1e16 <print_exponential_number(void (*)(char, void*, unsigned int, unsigned int), char*, unsigned int, unsigned int, double, unsigned int, unsigned int, unsigned int, char*, unsigned int) [clone .constprop.42]+0x62a>
    1e14:	46 c0       	rjmp	.+140    	; 0x1ea2 <print_exponential_number(void (*)(char, void*, unsigned int, unsigned int), char*, unsigned int, unsigned int, double, unsigned int, unsigned int, unsigned int, char*, unsigned int) [clone .constprop.42]+0x6b6>
c:\users\admin\documents\arduino\libraries\libprintf\extras\printf/printf.c:720
    get_normalized_components(negative, precision, abs_number, normalization);
    1e16:	2e 8d       	ldd	r18, Y+30	; 0x1e
    1e18:	3f 8d       	ldd	r19, Y+31	; 0x1f
    1e1a:	4a 89       	ldd	r20, Y+18	; 0x12
    1e1c:	5b 89       	ldd	r21, Y+19	; 0x13
    1e1e:	6c 89       	ldd	r22, Y+20	; 0x14
    1e20:	7d 89       	ldd	r23, Y+21	; 0x15
    1e22:	ce 01       	movw	r24, r28
    1e24:	01 96       	adiw	r24, 0x01	; 1
    1e26:	0e 94 35 0a 	call	0x146a	; 0x146a <get_components(double, unsigned int)>
    1e2a:	f9 81       	ldd	r31, Y+1	; 0x01
    1e2c:	fe 8b       	std	Y+22, r31	; 0x16
    1e2e:	2a 81       	ldd	r18, Y+2	; 0x02
    1e30:	2a 8f       	std	Y+26, r18	; 0x1a
    1e32:	3b 81       	ldd	r19, Y+3	; 0x03
    1e34:	38 a3       	std	Y+32, r19	; 0x20
    1e36:	4c 81       	ldd	r20, Y+4	; 0x04
    1e38:	4c a3       	std	Y+36, r20	; 0x24
    1e3a:	5d 81       	ldd	r21, Y+5	; 0x05
    1e3c:	5d a3       	std	Y+37, r21	; 0x25
    1e3e:	8e 81       	ldd	r24, Y+6	; 0x06
    1e40:	8e a3       	std	Y+38, r24	; 0x26
    1e42:	8f 80       	ldd	r8, Y+7	; 0x07
    1e44:	98 85       	ldd	r25, Y+8	; 0x08
    1e46:	9f a3       	std	Y+39, r25	; 0x27
    1e48:	19 85       	ldd	r17, Y+9	; 0x09
    1e4a:	ba 84       	ldd	r11, Y+10	; 0x0a
    1e4c:	cb 84       	ldd	r12, Y+11	; 0x0b
    1e4e:	9c 84       	ldd	r9, Y+12	; 0x0c
    1e50:	dd 84       	ldd	r13, Y+13	; 0x0d
    1e52:	ee 84       	ldd	r14, Y+14	; 0x0e
    1e54:	ff 84       	ldd	r15, Y+15	; 0x0f
    1e56:	08 89       	ldd	r16, Y+16	; 0x10
    1e58:	2d cf       	rjmp	.-422    	; 0x1cb4 <print_exponential_number(void (*)(char, void*, unsigned int, unsigned int), char*, unsigned int, unsigned int, double, unsigned int, unsigned int, unsigned int, char*, unsigned int) [clone .constprop.42]+0x4c8>
    1e5a:	2e 8d       	ldd	r18, Y+30	; 0x1e
    1e5c:	3f 8d       	ldd	r19, Y+31	; 0x1f
    1e5e:	4a 89       	ldd	r20, Y+18	; 0x12
    1e60:	5b 89       	ldd	r21, Y+19	; 0x13
    1e62:	6c 89       	ldd	r22, Y+20	; 0x14
    1e64:	7d 89       	ldd	r23, Y+21	; 0x15
    1e66:	ce 01       	movw	r24, r28
    1e68:	01 96       	adiw	r24, 0x01	; 1
    1e6a:	0e 94 35 0a 	call	0x146a	; 0x146a <get_components(double, unsigned int)>
    1e6e:	a9 81       	ldd	r26, Y+1	; 0x01
    1e70:	ae 8b       	std	Y+22, r26	; 0x16
    1e72:	ba 81       	ldd	r27, Y+2	; 0x02
    1e74:	ba 8f       	std	Y+26, r27	; 0x1a
    1e76:	eb 81       	ldd	r30, Y+3	; 0x03
    1e78:	e8 a3       	std	Y+32, r30	; 0x20
    1e7a:	fc 81       	ldd	r31, Y+4	; 0x04
    1e7c:	fc a3       	std	Y+36, r31	; 0x24
    1e7e:	2d 81       	ldd	r18, Y+5	; 0x05
    1e80:	2d a3       	std	Y+37, r18	; 0x25
    1e82:	3e 81       	ldd	r19, Y+6	; 0x06
    1e84:	3e a3       	std	Y+38, r19	; 0x26
    1e86:	8f 80       	ldd	r8, Y+7	; 0x07
    1e88:	48 85       	ldd	r20, Y+8	; 0x08
    1e8a:	4f a3       	std	Y+39, r20	; 0x27
    1e8c:	19 85       	ldd	r17, Y+9	; 0x09
    1e8e:	ba 84       	ldd	r11, Y+10	; 0x0a
    1e90:	cb 84       	ldd	r12, Y+11	; 0x0b
    1e92:	9c 84       	ldd	r9, Y+12	; 0x0c
    1e94:	dd 84       	ldd	r13, Y+13	; 0x0d
    1e96:	ee 84       	ldd	r14, Y+14	; 0x0e
    1e98:	ff 84       	ldd	r15, Y+15	; 0x0f
    1e9a:	08 89       	ldd	r16, Y+16	; 0x10
    1e9c:	27 c0       	rjmp	.+78     	; 0x1eec <print_exponential_number(void (*)(char, void*, unsigned int, unsigned int), char*, unsigned int, unsigned int, double, unsigned int, unsigned int, unsigned int, char*, unsigned int) [clone .constprop.42]+0x700>
c:\users\admin\documents\arduino\libraries\libprintf\extras\printf/printf.c:719

  normalization.multiply = (exp10 < 0 && abs_exp10_covered_by_powers_table);
  bool should_skip_normalization = (fall_back_to_decimal_only_mode || exp10 == 0);
  struct double_components decimal_part_components =
    should_skip_normalization ?
    get_components(negative ? -abs_number : abs_number, precision) :
    1e9e:	01 2b       	or	r16, r17
    1ea0:	e1 f2       	breq	.-72     	; 0x1e5a <print_exponential_number(void (*)(char, void*, unsigned int, unsigned int), char*, unsigned int, unsigned int, double, unsigned int, unsigned int, unsigned int, char*, unsigned int) [clone .constprop.42]+0x66e>
    1ea2:	4a 89       	ldd	r20, Y+18	; 0x12
    1ea4:	5b 89       	ldd	r21, Y+19	; 0x13
    1ea6:	6c 89       	ldd	r22, Y+20	; 0x14
    1ea8:	7d 89       	ldd	r23, Y+21	; 0x15
    1eaa:	70 58       	subi	r23, 0x80	; 128
c:\users\admin\documents\arduino\libraries\libprintf\extras\printf/printf.c:720
    get_normalized_components(negative, precision, abs_number, normalization);
    1eac:	2e 8d       	ldd	r18, Y+30	; 0x1e
    1eae:	3f 8d       	ldd	r19, Y+31	; 0x1f
    1eb0:	ce 01       	movw	r24, r28
    1eb2:	01 96       	adiw	r24, 0x01	; 1
    1eb4:	0e 94 35 0a 	call	0x146a	; 0x146a <get_components(double, unsigned int)>
    1eb8:	e9 81       	ldd	r30, Y+1	; 0x01
    1eba:	ee 8b       	std	Y+22, r30	; 0x16
    1ebc:	fa 81       	ldd	r31, Y+2	; 0x02
    1ebe:	fa 8f       	std	Y+26, r31	; 0x1a
    1ec0:	2b 81       	ldd	r18, Y+3	; 0x03
    1ec2:	28 a3       	std	Y+32, r18	; 0x20
    1ec4:	3c 81       	ldd	r19, Y+4	; 0x04
    1ec6:	3c a3       	std	Y+36, r19	; 0x24
    1ec8:	4d 81       	ldd	r20, Y+5	; 0x05
    1eca:	4d a3       	std	Y+37, r20	; 0x25
    1ecc:	5e 81       	ldd	r21, Y+6	; 0x06
    1ece:	5e a3       	std	Y+38, r21	; 0x26
    1ed0:	8f 80       	ldd	r8, Y+7	; 0x07
    1ed2:	88 85       	ldd	r24, Y+8	; 0x08
    1ed4:	8f a3       	std	Y+39, r24	; 0x27
    1ed6:	19 85       	ldd	r17, Y+9	; 0x09
    1ed8:	ba 84       	ldd	r11, Y+10	; 0x0a
    1eda:	cb 84       	ldd	r12, Y+11	; 0x0b
    1edc:	9c 84       	ldd	r9, Y+12	; 0x0c
    1ede:	dd 84       	ldd	r13, Y+13	; 0x0d
    1ee0:	ee 84       	ldd	r14, Y+14	; 0x0e
    1ee2:	ff 84       	ldd	r15, Y+15	; 0x0f
    1ee4:	08 89       	ldd	r16, Y+16	; 0x10
c:\users\admin\documents\arduino\libraries\libprintf\extras\printf/printf.c:724

  // Account for roll-over, e.g. rounding from 9.99 to 100.0 - which effects
  // the exponent and may require additional tweaking of the parts
  if (fall_back_to_decimal_only_mode) {
    1ee6:	aa 20       	and	r10, r10
    1ee8:	09 f4       	brne	.+2      	; 0x1eec <print_exponential_number(void (*)(char, void*, unsigned int, unsigned int), char*, unsigned int, unsigned int, double, unsigned int, unsigned int, unsigned int, char*, unsigned int) [clone .constprop.42]+0x700>
    1eea:	e4 ce       	rjmp	.-568    	; 0x1cb4 <print_exponential_number(void (*)(char, void*, unsigned int, unsigned int), char*, unsigned int, unsigned int, double, unsigned int, unsigned int, unsigned int, char*, unsigned int) [clone .constprop.42]+0x4c8>
c:\users\admin\documents\arduino\libraries\libprintf\extras\printf/printf.c:725
    if ( (flags & FLAGS_ADAPT_EXP) && exp10 >= -1 && decimal_part_components.integral == powers_of_10[exp10 + 1]) {
    1eec:	68 a4       	ldd	r6, Y+40	; 0x28
    1eee:	79 a4       	ldd	r7, Y+41	; 0x29
    1ef0:	66 24       	eor	r6, r6
    1ef2:	98 e0       	ldi	r25, 0x08	; 8
    1ef4:	79 22       	and	r7, r25
    1ef6:	a8 a5       	ldd	r26, Y+40	; 0x28
    1ef8:	b9 a5       	ldd	r27, Y+41	; 0x29
    1efa:	55 24       	eor	r5, r5
    1efc:	53 94       	inc	r5
    1efe:	b3 ff       	sbrs	r27, 3
    1f00:	2c c0       	rjmp	.+88     	; 0x1f5a <print_exponential_number(void (*)(char, void*, unsigned int, unsigned int), char*, unsigned int, unsigned int, double, unsigned int, unsigned int, unsigned int, char*, unsigned int) [clone .constprop.42]+0x76e>
    1f02:	bf ef       	ldi	r27, 0xFF	; 255
    1f04:	2b 16       	cp	r2, r27
    1f06:	3b 06       	cpc	r3, r27
    1f08:	24 f1       	brlt	.+72     	; 0x1f52 <print_exponential_number(void (*)(char, void*, unsigned int, unsigned int), char*, unsigned int, unsigned int, double, unsigned int, unsigned int, unsigned int, char*, unsigned int) [clone .constprop.42]+0x766>
    1f0a:	31 01       	movw	r6, r2
    1f0c:	ef ef       	ldi	r30, 0xFF	; 255
    1f0e:	6e 1a       	sub	r6, r30
    1f10:	7e 0a       	sbc	r7, r30
    1f12:	2e 89       	ldd	r18, Y+22	; 0x16
    1f14:	3a 8d       	ldd	r19, Y+26	; 0x1a
    1f16:	48 a1       	ldd	r20, Y+32	; 0x20
    1f18:	5c a1       	ldd	r21, Y+36	; 0x24
    1f1a:	6d a1       	ldd	r22, Y+37	; 0x25
    1f1c:	7e a1       	ldd	r23, Y+38	; 0x26
    1f1e:	88 2d       	mov	r24, r8
    1f20:	9f a1       	ldd	r25, Y+39	; 0x27
    1f22:	0e 94 c1 25 	call	0x4b82	; 0x4b82 <__floatdisf>
    1f26:	f3 01       	movw	r30, r6
    1f28:	ee 0f       	add	r30, r30
    1f2a:	ff 1f       	adc	r31, r31
    1f2c:	ee 0f       	add	r30, r30
    1f2e:	ff 1f       	adc	r31, r31
    1f30:	ea 5f       	subi	r30, 0xFA	; 250
    1f32:	fd 4f       	sbci	r31, 0xFD	; 253
    1f34:	20 81       	ld	r18, Z
    1f36:	31 81       	ldd	r19, Z+1	; 0x01
    1f38:	42 81       	ldd	r20, Z+2	; 0x02
    1f3a:	53 81       	ldd	r21, Z+3	; 0x03
    1f3c:	0e 94 d8 24 	call	0x49b0	; 0x49b0 <__cmpsf2>
    1f40:	81 11       	cpse	r24, r1
    1f42:	07 c0       	rjmp	.+14     	; 0x1f52 <print_exponential_number(void (*)(char, void*, unsigned int, unsigned int), char*, unsigned int, unsigned int, double, unsigned int, unsigned int, unsigned int, char*, unsigned int) [clone .constprop.42]+0x766>
c:\users\admin\documents\arduino\libraries\libprintf\extras\printf/printf.c:727
      exp10++; // Not strictly necessary, since exp10 is no longer really used
      precision--;
    1f44:	2e 8d       	ldd	r18, Y+30	; 0x1e
    1f46:	3f 8d       	ldd	r19, Y+31	; 0x1f
    1f48:	21 50       	subi	r18, 0x01	; 1
    1f4a:	31 09       	sbc	r19, r1
    1f4c:	3f 8f       	std	Y+31, r19	; 0x1f
    1f4e:	2e 8f       	std	Y+30, r18	; 0x1e
c:\users\admin\documents\arduino\libraries\libprintf\extras\printf/printf.c:726

  // Account for roll-over, e.g. rounding from 9.99 to 100.0 - which effects
  // the exponent and may require additional tweaking of the parts
  if (fall_back_to_decimal_only_mode) {
    if ( (flags & FLAGS_ADAPT_EXP) && exp10 >= -1 && decimal_part_components.integral == powers_of_10[exp10 + 1]) {
      exp10++; // Not strictly necessary, since exp10 is no longer really used
    1f50:	13 01       	movw	r2, r6
c:\users\admin\documents\arduino\libraries\libprintf\extras\printf/printf.c:725
    get_normalized_components(negative, precision, abs_number, normalization);

  // Account for roll-over, e.g. rounding from 9.99 to 100.0 - which effects
  // the exponent and may require additional tweaking of the parts
  if (fall_back_to_decimal_only_mode) {
    if ( (flags & FLAGS_ADAPT_EXP) && exp10 >= -1 && decimal_part_components.integral == powers_of_10[exp10 + 1]) {
    1f52:	55 24       	eor	r5, r5
    1f54:	53 94       	inc	r5
c:\users\admin\documents\arduino\libraries\libprintf\extras\printf/printf.c:742
    }
  }

  // the exp10 format is "E%+03d" and largest possible exp10 value for a 64-bit double
  // is "307" (for 2^1023), so we set aside 4-5 characters overall
  unsigned int exp10_part_width = fall_back_to_decimal_only_mode ? 0U : (PRINTF_ABS(exp10) < 100) ? 4U : 5U;
    1f56:	71 2c       	mov	r7, r1
    1f58:	61 2c       	mov	r6, r1
c:\users\admin\documents\arduino\libraries\libprintf\extras\printf/printf.c:745

  unsigned int decimal_part_width =
    ((flags & FLAGS_LEFT) && exp10_part_width) ?
    1f5a:	88 a5       	ldd	r24, Y+40	; 0x28
    1f5c:	99 a5       	ldd	r25, Y+41	; 0x29
    1f5e:	82 70       	andi	r24, 0x02	; 2
    1f60:	99 27       	eor	r25, r25
    1f62:	9b 8b       	std	Y+19, r25	; 0x13
    1f64:	8a 8b       	std	Y+18, r24	; 0x12
    1f66:	98 a5       	ldd	r25, Y+40	; 0x28
    1f68:	91 ff       	sbrs	r25, 1
    1f6a:	03 c0       	rjmp	.+6      	; 0x1f72 <print_exponential_number(void (*)(char, void*, unsigned int, unsigned int), char*, unsigned int, unsigned int, double, unsigned int, unsigned int, unsigned int, char*, unsigned int) [clone .constprop.42]+0x786>
    1f6c:	61 14       	cp	r6, r1
    1f6e:	71 04       	cpc	r7, r1
    1f70:	41 f4       	brne	.+16     	; 0x1f82 <print_exponential_number(void (*)(char, void*, unsigned int, unsigned int), char*, unsigned int, unsigned int, double, unsigned int, unsigned int, unsigned int, char*, unsigned int) [clone .constprop.42]+0x796>
c:\users\admin\documents\arduino\libraries\libprintf\extras\printf/printf.c:751
      // We're padding on the right, so the width constraint is the exponent part's
      // problem, not the decimal part's, so we'll use as many characters as we need:
      0U :
      // We're padding on the left; so the width constraint is the decimal part's
      // problem. Well, can both the decimal part and the exponent part fit within our overall width?
      ((width > exp10_part_width) ?
    1f72:	a9 a9       	ldd	r26, Y+49	; 0x31
    1f74:	ba a9       	ldd	r27, Y+50	; 0x32
    1f76:	cd 01       	movw	r24, r26
    1f78:	86 19       	sub	r24, r6
    1f7a:	97 09       	sbc	r25, r7
    1f7c:	6a 16       	cp	r6, r26
    1f7e:	7b 06       	cpc	r7, r27
    1f80:	10 f0       	brcs	.+4      	; 0x1f86 <print_exponential_number(void (*)(char, void*, unsigned int, unsigned int), char*, unsigned int, unsigned int, double, unsigned int, unsigned int, unsigned int, char*, unsigned int) [clone .constprop.42]+0x79a>
c:\users\admin\documents\arduino\libraries\libprintf\extras\printf/printf.c:745
  // the exp10 format is "E%+03d" and largest possible exp10 value for a 64-bit double
  // is "307" (for 2^1023), so we set aside 4-5 characters overall
  unsigned int exp10_part_width = fall_back_to_decimal_only_mode ? 0U : (PRINTF_ABS(exp10) < 100) ? 4U : 5U;

  unsigned int decimal_part_width =
    ((flags & FLAGS_LEFT) && exp10_part_width) ?
    1f82:	90 e0       	ldi	r25, 0x00	; 0
    1f84:	80 e0       	ldi	r24, 0x00	; 0
c:\users\admin\documents\arduino\libraries\libprintf\extras\printf/printf.c:760
        // No; we just give up on any restriction on the decimal part and use as many
        // characters as we need
        0U);

  const size_t start_idx = idx;
  idx = print_broken_up_decimal(decimal_part_components, out, buffer, idx, maxlen, precision, decimal_part_width, flags, buf, len);
    1f86:	be 89       	ldd	r27, Y+22	; 0x16
    1f88:	b9 83       	std	Y+1, r27	; 0x01
    1f8a:	ea 8d       	ldd	r30, Y+26	; 0x1a
    1f8c:	ea 83       	std	Y+2, r30	; 0x02
    1f8e:	f8 a1       	ldd	r31, Y+32	; 0x20
    1f90:	fb 83       	std	Y+3, r31	; 0x03
    1f92:	2c a1       	ldd	r18, Y+36	; 0x24
    1f94:	2c 83       	std	Y+4, r18	; 0x04
    1f96:	3d a1       	ldd	r19, Y+37	; 0x25
    1f98:	3d 83       	std	Y+5, r19	; 0x05
    1f9a:	4e a1       	ldd	r20, Y+38	; 0x26
    1f9c:	4e 83       	std	Y+6, r20	; 0x06
    1f9e:	8f 82       	std	Y+7, r8	; 0x07
    1fa0:	5f a1       	ldd	r21, Y+39	; 0x27
    1fa2:	58 87       	std	Y+8, r21	; 0x08
    1fa4:	19 87       	std	Y+9, r17	; 0x09
    1fa6:	ba 86       	std	Y+10, r11	; 0x0a
    1fa8:	cb 86       	std	Y+11, r12	; 0x0b
    1faa:	9c 86       	std	Y+12, r9	; 0x0c
    1fac:	dd 86       	std	Y+13, r13	; 0x0d
    1fae:	ee 86       	std	Y+14, r14	; 0x0e
    1fb0:	ff 86       	std	Y+15, r15	; 0x0f
    1fb2:	08 8b       	std	Y+16, r16	; 0x10
    1fb4:	ae a9       	ldd	r26, Y+54	; 0x36
    1fb6:	af 93       	push	r26
    1fb8:	bd a9       	ldd	r27, Y+53	; 0x35
    1fba:	bf 93       	push	r27
    1fbc:	ec a9       	ldd	r30, Y+52	; 0x34
    1fbe:	ef 93       	push	r30
    1fc0:	fb a9       	ldd	r31, Y+51	; 0x33
    1fc2:	ff 93       	push	r31
    1fc4:	29 a5       	ldd	r18, Y+41	; 0x29
    1fc6:	2f 93       	push	r18
    1fc8:	38 a5       	ldd	r19, Y+40	; 0x28
    1fca:	3f 93       	push	r19
    1fcc:	9f 93       	push	r25
    1fce:	8f 93       	push	r24
    1fd0:	4f 8d       	ldd	r20, Y+31	; 0x1f
    1fd2:	4f 93       	push	r20
    1fd4:	5e 8d       	ldd	r21, Y+30	; 0x1e
    1fd6:	5f 93       	push	r21
    1fd8:	88 a9       	ldd	r24, Y+48	; 0x30
    1fda:	8f 93       	push	r24
    1fdc:	9f a5       	ldd	r25, Y+47	; 0x2f
    1fde:	9f 93       	push	r25
    1fe0:	ae a5       	ldd	r26, Y+46	; 0x2e
    1fe2:	af 93       	push	r26
    1fe4:	bd a5       	ldd	r27, Y+45	; 0x2d
    1fe6:	bf 93       	push	r27
    1fe8:	ec a5       	ldd	r30, Y+44	; 0x2c
    1fea:	ef 93       	push	r30
    1fec:	fb a5       	ldd	r31, Y+43	; 0x2b
    1fee:	ff 93       	push	r31
    1ff0:	89 80       	ldd	r8, Y+1	; 0x01
    1ff2:	9a 80       	ldd	r9, Y+2	; 0x02
    1ff4:	ab 80       	ldd	r10, Y+3	; 0x03
    1ff6:	bc 80       	ldd	r11, Y+4	; 0x04
    1ff8:	cd 80       	ldd	r12, Y+5	; 0x05
    1ffa:	de 80       	ldd	r13, Y+6	; 0x06
    1ffc:	ef 80       	ldd	r14, Y+7	; 0x07
    1ffe:	f8 84       	ldd	r15, Y+8	; 0x08
    2000:	09 85       	ldd	r16, Y+9	; 0x09
    2002:	1a 85       	ldd	r17, Y+10	; 0x0a
    2004:	2b 85       	ldd	r18, Y+11	; 0x0b
    2006:	3c 85       	ldd	r19, Y+12	; 0x0c
    2008:	4d 85       	ldd	r20, Y+13	; 0x0d
    200a:	5e 85       	ldd	r21, Y+14	; 0x0e
    200c:	6f 85       	ldd	r22, Y+15	; 0x0f
    200e:	78 89       	ldd	r23, Y+16	; 0x10
    2010:	89 89       	ldd	r24, Y+17	; 0x11
    2012:	0e 94 f4 03 	call	0x7e8	; 0x7e8 <print_broken_up_decimal(double_components, void (*)(char, void*, unsigned int, unsigned int), char*, unsigned int, unsigned int, unsigned int, unsigned int, unsigned int, char*, unsigned int) [clone .constprop.43]>
c:\users\admin\documents\arduino\libraries\libprintf\extras\printf/printf.c:762

  if (! fall_back_to_decimal_only_mode) {
    2016:	0f b6       	in	r0, 0x3f	; 63
    2018:	f8 94       	cli
    201a:	de bf       	out	0x3e, r29	; 62
    201c:	0f be       	out	0x3f, r0	; 63
    201e:	cd bf       	out	0x3d, r28	; 61
    2020:	51 10       	cpse	r5, r1
    2022:	67 c0       	rjmp	.+206    	; 0x20f2 <print_exponential_number(void (*)(char, void*, unsigned int, unsigned int), char*, unsigned int, unsigned int, double, unsigned int, unsigned int, unsigned int, char*, unsigned int) [clone .constprop.42]+0x906>
c:\users\admin\documents\arduino\libraries\libprintf\extras\printf/printf.c:763
    out((flags & FLAGS_UPPERCASE) ? 'E' : 'e', buffer, idx++, maxlen);
    2024:	2c 01       	movw	r4, r24
    2026:	3f ef       	ldi	r19, 0xFF	; 255
    2028:	43 1a       	sub	r4, r19
    202a:	53 0a       	sbc	r5, r19
    202c:	48 a5       	ldd	r20, Y+40	; 0x28
    202e:	e5 e4       	ldi	r30, 0x45	; 69
    2030:	45 ff       	sbrs	r20, 5
    2032:	e5 e6       	ldi	r30, 0x65	; 101
    2034:	2f ef       	ldi	r18, 0xFF	; 255
    2036:	3f ef       	ldi	r19, 0xFF	; 255
    2038:	ac 01       	movw	r20, r24
    203a:	6d a5       	ldd	r22, Y+45	; 0x2d
    203c:	7e a5       	ldd	r23, Y+46	; 0x2e
    203e:	8e 2f       	mov	r24, r30
    2040:	eb a5       	ldd	r30, Y+43	; 0x2b
    2042:	fc a5       	ldd	r31, Y+44	; 0x2c
    2044:	19 95       	eicall
c:\users\admin\documents\arduino\libraries\libprintf\extras\printf/printf.c:764
    idx = print_integer(out, buffer, idx, maxlen,
    2046:	a3 2c       	mov	r10, r3
    2048:	aa 1c       	adc	r10, r10
    204a:	aa 24       	eor	r10, r10
    204c:	aa 1c       	adc	r10, r10
c:\users\admin\documents\arduino\libraries\libprintf\extras\printf/printf.c:765
                ABS_FOR_PRINTING(exp10),
    204e:	61 01       	movw	r12, r2
    2050:	e3 2c       	mov	r14, r3
    2052:	ee 0c       	add	r14, r14
    2054:	ee 08       	sbc	r14, r14
    2056:	fe 2c       	mov	r15, r14
    2058:	0e 2d       	mov	r16, r14
    205a:	1e 2d       	mov	r17, r14
    205c:	fe 2d       	mov	r31, r14
    205e:	ee 2d       	mov	r30, r14
    2060:	91 01       	movw	r18, r2
    2062:	4e 2d       	mov	r20, r14
    2064:	5e 2d       	mov	r21, r14
    2066:	6e 2d       	mov	r22, r14
    2068:	7e 2d       	mov	r23, r14
    206a:	8e 2d       	mov	r24, r14
    206c:	9e 2d       	mov	r25, r14
    206e:	a0 e0       	ldi	r26, 0x00	; 0
    2070:	0e 94 db 28 	call	0x51b6	; 0x51b6 <__cmpdi2_s8>
    2074:	3c f4       	brge	.+14     	; 0x2084 <print_exponential_number(void (*)(char, void*, unsigned int, unsigned int), char*, unsigned int, unsigned int, double, unsigned int, unsigned int, unsigned int, char*, unsigned int) [clone .constprop.42]+0x898>
    2076:	0e 94 62 28 	call	0x50c4	; 0x50c4 <__negdi2>
    207a:	69 01       	movw	r12, r18
    207c:	7a 01       	movw	r14, r20
    207e:	8b 01       	movw	r16, r22
    2080:	f8 2f       	mov	r31, r24
    2082:	e9 2f       	mov	r30, r25
c:\users\admin\documents\arduino\libraries\libprintf\extras\printf/printf.c:764
  const size_t start_idx = idx;
  idx = print_broken_up_decimal(decimal_part_components, out, buffer, idx, maxlen, precision, decimal_part_width, flags, buf, len);

  if (! fall_back_to_decimal_only_mode) {
    out((flags & FLAGS_UPPERCASE) ? 'E' : 'e', buffer, idx++, maxlen);
    idx = print_integer(out, buffer, idx, maxlen,
    2084:	1f 92       	push	r1
    2086:	85 e0       	ldi	r24, 0x05	; 5
    2088:	8f 93       	push	r24
    208a:	21 e0       	ldi	r18, 0x01	; 1
    208c:	62 1a       	sub	r6, r18
    208e:	71 08       	sbc	r7, r1
    2090:	7f 92       	push	r7
    2092:	6f 92       	push	r6
    2094:	1f 92       	push	r1
    2096:	1f 92       	push	r1
    2098:	9a e0       	ldi	r25, 0x0A	; 10
    209a:	89 2e       	mov	r8, r25
    209c:	2f 2f       	mov	r18, r31
    209e:	3e 2f       	mov	r19, r30
    20a0:	a2 01       	movw	r20, r4
    20a2:	6d a5       	ldd	r22, Y+45	; 0x2d
    20a4:	7e a5       	ldd	r23, Y+46	; 0x2e
    20a6:	8b a5       	ldd	r24, Y+43	; 0x2b
    20a8:	9c a5       	ldd	r25, Y+44	; 0x2c
    20aa:	0e 94 45 02 	call	0x48a	; 0x48a <print_integer(void (*)(char, void*, unsigned int, unsigned int), char*, unsigned int, unsigned int, unsigned long long, bool, unsigned char, unsigned int, unsigned int, unsigned int) [clone .constprop.44]>
c:\users\admin\documents\arduino\libraries\libprintf\extras\printf/printf.c:768
                ABS_FOR_PRINTING(exp10),
                exp10 < 0, 10, 0, exp10_part_width - 1,
                FLAGS_ZEROPAD | FLAGS_PLUS);
    if (flags & FLAGS_LEFT) {
    20ae:	0f 90       	pop	r0
    20b0:	0f 90       	pop	r0
    20b2:	0f 90       	pop	r0
    20b4:	0f 90       	pop	r0
    20b6:	0f 90       	pop	r0
    20b8:	0f 90       	pop	r0
    20ba:	4a 89       	ldd	r20, Y+18	; 0x12
    20bc:	5b 89       	ldd	r21, Y+19	; 0x13
    20be:	45 2b       	or	r20, r21
    20c0:	c1 f0       	breq	.+48     	; 0x20f2 <print_exponential_number(void (*)(char, void*, unsigned int, unsigned int), char*, unsigned int, unsigned int, double, unsigned int, unsigned int, unsigned int, char*, unsigned int) [clone .constprop.42]+0x906>
c:\users\admin\documents\arduino\libraries\libprintf\extras\printf/printf.c:770
      // We need to right-pad with spaces to meet the width requirement
      while (idx - start_idx < width) out(' ', buffer, idx++, maxlen);
    20c2:	9c 01       	movw	r18, r24
    20c4:	af a5       	ldd	r26, Y+47	; 0x2f
    20c6:	b8 a9       	ldd	r27, Y+48	; 0x30
    20c8:	2a 1b       	sub	r18, r26
    20ca:	3b 0b       	sbc	r19, r27
    20cc:	e9 a9       	ldd	r30, Y+49	; 0x31
    20ce:	fa a9       	ldd	r31, Y+50	; 0x32
    20d0:	2e 17       	cp	r18, r30
    20d2:	3f 07       	cpc	r19, r31
    20d4:	70 f4       	brcc	.+28     	; 0x20f2 <print_exponential_number(void (*)(char, void*, unsigned int, unsigned int), char*, unsigned int, unsigned int, double, unsigned int, unsigned int, unsigned int, char*, unsigned int) [clone .constprop.42]+0x906>
    20d6:	8c 01       	movw	r16, r24
    20d8:	0f 5f       	subi	r16, 0xFF	; 255
    20da:	1f 4f       	sbci	r17, 0xFF	; 255
    20dc:	2f ef       	ldi	r18, 0xFF	; 255
    20de:	3f ef       	ldi	r19, 0xFF	; 255
    20e0:	ac 01       	movw	r20, r24
    20e2:	6d a5       	ldd	r22, Y+45	; 0x2d
    20e4:	7e a5       	ldd	r23, Y+46	; 0x2e
    20e6:	80 e2       	ldi	r24, 0x20	; 32
    20e8:	eb a5       	ldd	r30, Y+43	; 0x2b
    20ea:	fc a5       	ldd	r31, Y+44	; 0x2c
    20ec:	19 95       	eicall
    20ee:	c8 01       	movw	r24, r16
    20f0:	e8 cf       	rjmp	.-48     	; 0x20c2 <print_exponential_number(void (*)(char, void*, unsigned int, unsigned int), char*, unsigned int, unsigned int, double, unsigned int, unsigned int, unsigned int, char*, unsigned int) [clone .constprop.42]+0x8d6>
c:\users\admin\documents\arduino\libraries\libprintf\extras\printf/printf.c:774
    }
  }
  return idx;
}
    20f2:	e6 96       	adiw	r28, 0x36	; 54
    20f4:	0f b6       	in	r0, 0x3f	; 63
    20f6:	f8 94       	cli
    20f8:	de bf       	out	0x3e, r29	; 62
    20fa:	0f be       	out	0x3f, r0	; 63
    20fc:	cd bf       	out	0x3d, r28	; 61
    20fe:	df 91       	pop	r29
    2100:	cf 91       	pop	r28
    2102:	1f 91       	pop	r17
    2104:	0f 91       	pop	r16
    2106:	ff 90       	pop	r15
    2108:	ef 90       	pop	r14
    210a:	df 90       	pop	r13
    210c:	cf 90       	pop	r12
    210e:	bf 90       	pop	r11
    2110:	af 90       	pop	r10
    2112:	9f 90       	pop	r9
    2114:	8f 90       	pop	r8
    2116:	7f 90       	pop	r7
    2118:	6f 90       	pop	r6
    211a:	5f 90       	pop	r5
    211c:	4f 90       	pop	r4
    211e:	3f 90       	pop	r3
    2120:	2f 90       	pop	r2
    2122:	08 95       	ret

00002124 <print_floating_point(void (*)(char, void*, unsigned int, unsigned int), char*, unsigned int, unsigned int, double, unsigned int, unsigned int, unsigned int, bool) [clone .constprop.39]>:
_ZL20print_floating_pointPFvcPvjjEPcjjdjjjb.constprop.39():
c:\users\admin\documents\arduino\libraries\libprintf\extras\printf/printf.c:778
#endif  // PRINTF_SUPPORT_EXPONENTIAL_SPECIFIERS


static size_t print_floating_point(out_fct_type out, char* buffer, size_t idx, size_t maxlen, double value, unsigned int precision, unsigned int width, unsigned int flags, bool prefer_exponential)
    2124:	2f 92       	push	r2
    2126:	3f 92       	push	r3
    2128:	4f 92       	push	r4
    212a:	5f 92       	push	r5
    212c:	6f 92       	push	r6
    212e:	7f 92       	push	r7
    2130:	8f 92       	push	r8
    2132:	9f 92       	push	r9
    2134:	af 92       	push	r10
    2136:	bf 92       	push	r11
    2138:	cf 92       	push	r12
    213a:	df 92       	push	r13
    213c:	ef 92       	push	r14
    213e:	ff 92       	push	r15
    2140:	0f 93       	push	r16
    2142:	1f 93       	push	r17
    2144:	cf 93       	push	r28
    2146:	df 93       	push	r29
    2148:	cd b7       	in	r28, 0x3d	; 61
    214a:	de b7       	in	r29, 0x3e	; 62
    214c:	e7 97       	sbiw	r28, 0x37	; 55
    214e:	0f b6       	in	r0, 0x3f	; 63
    2150:	f8 94       	cli
    2152:	de bf       	out	0x3e, r29	; 62
    2154:	0f be       	out	0x3f, r0	; 63
    2156:	cd bf       	out	0x3d, r28	; 61
    2158:	1c 01       	movw	r2, r24
    215a:	6a ab       	std	Y+50, r22	; 0x32
    215c:	7b ab       	std	Y+51, r23	; 0x33
    215e:	4c ab       	std	Y+52, r20	; 0x34
    2160:	5d ab       	std	Y+53, r21	; 0x35
    2162:	28 01       	movw	r4, r16
    2164:	39 01       	movw	r6, r18
    2166:	ce aa       	std	Y+54, r12	; 0x36
    2168:	df aa       	std	Y+55, r13	; 0x37
    216a:	65 01       	movw	r12, r10
    216c:	b8 2c       	mov	r11, r8
c:\users\admin\documents\arduino\libraries\libprintf\extras\printf/printf.c:784
{
  char buf[PRINTF_FTOA_BUFFER_SIZE];
  size_t len  = 0U;

  // test for special values
  if (value != value)
    216e:	a9 01       	movw	r20, r18
    2170:	98 01       	movw	r18, r16
    2172:	c3 01       	movw	r24, r6
    2174:	b8 01       	movw	r22, r16
    2176:	0e 94 d8 24 	call	0x49b0	; 0x49b0 <__cmpsf2>
    217a:	88 23       	and	r24, r24
    217c:	31 f1       	breq	.+76     	; 0x21ca <print_floating_point(void (*)(char, void*, unsigned int, unsigned int), char*, unsigned int, unsigned int, double, unsigned int, unsigned int, unsigned int, bool) [clone .constprop.39]+0xa6>
c:\users\admin\documents\arduino\libraries\libprintf\extras\printf/printf.c:785
    return out_rev_(out, buffer, idx, maxlen, "nan", 3, width, flags);
    217e:	ee a8       	ldd	r14, Y+54	; 0x36
    2180:	ff a8       	ldd	r15, Y+55	; 0x37
    2182:	03 e0       	ldi	r16, 0x03	; 3
    2184:	10 e0       	ldi	r17, 0x00	; 0
    2186:	29 e6       	ldi	r18, 0x69	; 105
    2188:	32 e0       	ldi	r19, 0x02	; 2
c:\users\admin\documents\arduino\libraries\libprintf\extras\printf/printf.c:787
  if (value < -DBL_MAX)
    return out_rev_(out, buffer, idx, maxlen, "fni-", 4, width, flags);
    218a:	4c a9       	ldd	r20, Y+52	; 0x34
    218c:	5d a9       	ldd	r21, Y+53	; 0x35
    218e:	6a a9       	ldd	r22, Y+50	; 0x32
    2190:	7b a9       	ldd	r23, Y+51	; 0x33
    2192:	c1 01       	movw	r24, r2
    2194:	0e 94 bb 01 	call	0x376	; 0x376 <out_rev_(void (*)(char, void*, unsigned int, unsigned int), char*, unsigned int, unsigned int, char const*, unsigned int, unsigned int, unsigned int) [clone .constprop.46]>
c:\users\admin\documents\arduino\libraries\libprintf\extras\printf/printf.c:819
#if PRINTF_SUPPORT_EXPONENTIAL_SPECIFIERS
    prefer_exponential ?
      print_exponential_number(out, buffer, idx, maxlen, value, precision, width, flags, buf, len) :
#endif
      print_decimal_number(out, buffer, idx, maxlen, value, precision, width, flags, buf, len);
}
    2198:	e7 96       	adiw	r28, 0x37	; 55
    219a:	0f b6       	in	r0, 0x3f	; 63
    219c:	f8 94       	cli
    219e:	de bf       	out	0x3e, r29	; 62
    21a0:	0f be       	out	0x3f, r0	; 63
    21a2:	cd bf       	out	0x3d, r28	; 61
    21a4:	df 91       	pop	r29
    21a6:	cf 91       	pop	r28
    21a8:	1f 91       	pop	r17
    21aa:	0f 91       	pop	r16
    21ac:	ff 90       	pop	r15
    21ae:	ef 90       	pop	r14
    21b0:	df 90       	pop	r13
    21b2:	cf 90       	pop	r12
    21b4:	bf 90       	pop	r11
    21b6:	af 90       	pop	r10
    21b8:	9f 90       	pop	r9
    21ba:	8f 90       	pop	r8
    21bc:	7f 90       	pop	r7
    21be:	6f 90       	pop	r6
    21c0:	5f 90       	pop	r5
    21c2:	4f 90       	pop	r4
    21c4:	3f 90       	pop	r3
    21c6:	2f 90       	pop	r2
    21c8:	08 95       	ret
c:\users\admin\documents\arduino\libraries\libprintf\extras\printf/printf.c:786
  size_t len  = 0U;

  // test for special values
  if (value != value)
    return out_rev_(out, buffer, idx, maxlen, "nan", 3, width, flags);
  if (value < -DBL_MAX)
    21ca:	2f ef       	ldi	r18, 0xFF	; 255
    21cc:	3f ef       	ldi	r19, 0xFF	; 255
    21ce:	4f e7       	ldi	r20, 0x7F	; 127
    21d0:	5f ef       	ldi	r21, 0xFF	; 255
    21d2:	c3 01       	movw	r24, r6
    21d4:	b8 01       	movw	r22, r16
    21d6:	0e 94 d8 24 	call	0x49b0	; 0x49b0 <__cmpsf2>
    21da:	87 ff       	sbrs	r24, 7
    21dc:	07 c0       	rjmp	.+14     	; 0x21ec <print_floating_point(void (*)(char, void*, unsigned int, unsigned int), char*, unsigned int, unsigned int, double, unsigned int, unsigned int, unsigned int, bool) [clone .constprop.39]+0xc8>
c:\users\admin\documents\arduino\libraries\libprintf\extras\printf/printf.c:787
    return out_rev_(out, buffer, idx, maxlen, "fni-", 4, width, flags);
    21de:	ee a8       	ldd	r14, Y+54	; 0x36
    21e0:	ff a8       	ldd	r15, Y+55	; 0x37
    21e2:	04 e0       	ldi	r16, 0x04	; 4
    21e4:	10 e0       	ldi	r17, 0x00	; 0
    21e6:	2d e6       	ldi	r18, 0x6D	; 109
    21e8:	32 e0       	ldi	r19, 0x02	; 2
    21ea:	cf cf       	rjmp	.-98     	; 0x218a <print_floating_point(void (*)(char, void*, unsigned int, unsigned int), char*, unsigned int, unsigned int, double, unsigned int, unsigned int, unsigned int, bool) [clone .constprop.39]+0x66>
c:\users\admin\documents\arduino\libraries\libprintf\extras\printf/printf.c:788
  if (value > DBL_MAX)
    21ec:	2f ef       	ldi	r18, 0xFF	; 255
    21ee:	3f ef       	ldi	r19, 0xFF	; 255
    21f0:	4f e7       	ldi	r20, 0x7F	; 127
    21f2:	5f e7       	ldi	r21, 0x7F	; 127
    21f4:	c3 01       	movw	r24, r6
    21f6:	b8 01       	movw	r22, r16
    21f8:	0e 94 c7 26 	call	0x4d8e	; 0x4d8e <__gesf2>
    21fc:	18 16       	cp	r1, r24
    21fe:	6c f4       	brge	.+26     	; 0x221a <__stack+0x1b>
c:\users\admin\documents\arduino\libraries\libprintf\extras\printf/printf.c:789
    return out_rev_(out, buffer, idx, maxlen, (flags & FLAGS_PLUS) ? "fni+" : "fni", (flags & FLAGS_PLUS) ? 4U : 3U, width, flags);
    2200:	04 e0       	ldi	r16, 0x04	; 4
    2202:	10 e0       	ldi	r17, 0x00	; 0
    2204:	20 e6       	ldi	r18, 0x60	; 96
    2206:	32 e0       	ldi	r19, 0x02	; 2
    2208:	c2 fc       	sbrc	r12, 2
    220a:	04 c0       	rjmp	.+8      	; 0x2214 <__stack+0x15>
    220c:	03 e0       	ldi	r16, 0x03	; 3
    220e:	10 e0       	ldi	r17, 0x00	; 0
    2210:	25 e6       	ldi	r18, 0x65	; 101
    2212:	32 e0       	ldi	r19, 0x02	; 2
    2214:	ee a8       	ldd	r14, Y+54	; 0x36
    2216:	ff a8       	ldd	r15, Y+55	; 0x37
    2218:	b8 cf       	rjmp	.-144    	; 0x218a <print_floating_point(void (*)(char, void*, unsigned int, unsigned int), char*, unsigned int, unsigned int, double, unsigned int, unsigned int, unsigned int, bool) [clone .constprop.39]+0x66>
    221a:	9e 01       	movw	r18, r28
    221c:	2f 5f       	subi	r18, 0xFF	; 255
    221e:	3f 4f       	sbci	r19, 0xFF	; 255
    2220:	49 01       	movw	r8, r18
c:\users\admin\documents\arduino\libraries\libprintf\extras\printf/printf.c:791

  if (!prefer_exponential && ((value > PRINTF_FLOAT_NOTATION_THRESHOLD) || (value < -PRINTF_FLOAT_NOTATION_THRESHOLD))) {
    2222:	b1 10       	cpse	r11, r1
    2224:	25 c0       	rjmp	.+74     	; 0x2270 <__stack+0x71>
    2226:	28 e2       	ldi	r18, 0x28	; 40
    2228:	3b e6       	ldi	r19, 0x6B	; 107
    222a:	4e e6       	ldi	r20, 0x6E	; 110
    222c:	5e e4       	ldi	r21, 0x4E	; 78
    222e:	c3 01       	movw	r24, r6
    2230:	b8 01       	movw	r22, r16
    2232:	0e 94 c7 26 	call	0x4d8e	; 0x4d8e <__gesf2>
    2236:	18 16       	cp	r1, r24
    2238:	54 f0       	brlt	.+20     	; 0x224e <__stack+0x4f>
    223a:	28 e2       	ldi	r18, 0x28	; 40
    223c:	3b e6       	ldi	r19, 0x6B	; 107
    223e:	4e e6       	ldi	r20, 0x6E	; 110
    2240:	5e ec       	ldi	r21, 0xCE	; 206
    2242:	c3 01       	movw	r24, r6
    2244:	b8 01       	movw	r22, r16
    2246:	0e 94 d8 24 	call	0x49b0	; 0x49b0 <__cmpsf2>
    224a:	87 ff       	sbrs	r24, 7
    224c:	11 c0       	rjmp	.+34     	; 0x2270 <__stack+0x71>
c:\users\admin\documents\arduino\libraries\libprintf\extras\printf/printf.c:796
    // The required behavior of standard printf is to print _every_ integral-part digit -- which could mean
    // printing hundreds of characters, overflowing any fixed internal buffer and necessitating a more complicated
    // implementation.
#if PRINTF_SUPPORT_EXPONENTIAL_SPECIFIERS
    return print_exponential_number(out, buffer, idx, maxlen, value, precision, width, flags, buf, len);
    224e:	1f 92       	push	r1
    2250:	1f 92       	push	r1
c:\users\admin\documents\arduino\libraries\libprintf\extras\printf/printf.c:815
    precision--;
  }

  return
#if PRINTF_SUPPORT_EXPONENTIAL_SPECIFIERS
    prefer_exponential ?
    2252:	56 01       	movw	r10, r12
    2254:	ce a8       	ldd	r12, Y+54	; 0x36
    2256:	df a8       	ldd	r13, Y+55	; 0x37
    2258:	93 01       	movw	r18, r6
    225a:	82 01       	movw	r16, r4
    225c:	4c a9       	ldd	r20, Y+52	; 0x34
    225e:	5d a9       	ldd	r21, Y+53	; 0x35
    2260:	6a a9       	ldd	r22, Y+50	; 0x32
    2262:	7b a9       	ldd	r23, Y+51	; 0x33
    2264:	c1 01       	movw	r24, r2
    2266:	0e 94 f6 0b 	call	0x17ec	; 0x17ec <print_exponential_number(void (*)(char, void*, unsigned int, unsigned int), char*, unsigned int, unsigned int, double, unsigned int, unsigned int, unsigned int, char*, unsigned int) [clone .constprop.42]>
    226a:	0f 90       	pop	r0
    226c:	0f 90       	pop	r0
    226e:	94 cf       	rjmp	.-216    	; 0x2198 <print_floating_point(void (*)(char, void*, unsigned int, unsigned int), char*, unsigned int, unsigned int, double, unsigned int, unsigned int, unsigned int, bool) [clone .constprop.39]+0x74>
c:\users\admin\documents\arduino\libraries\libprintf\extras\printf/printf.c:803
    return 0U;
#endif
  }

  // set default precision, if not set explicitly
  if (!(flags & FLAGS_PRECISION)) {
    2270:	d2 fc       	sbrc	r13, 2
    2272:	03 c0       	rjmp	.+6      	; 0x227a <__stack+0x7b>
c:\users\admin\documents\arduino\libraries\libprintf\extras\printf/printf.c:804
    precision = PRINTF_DEFAULT_FLOAT_PRECISION;
    2274:	86 e0       	ldi	r24, 0x06	; 6
    2276:	e8 2e       	mov	r14, r24
    2278:	f1 2c       	mov	r15, r1
    227a:	f4 01       	movw	r30, r8
    227c:	10 e0       	ldi	r17, 0x00	; 0
    227e:	00 e0       	ldi	r16, 0x00	; 0
c:\users\admin\documents\arduino\libraries\libprintf\extras\printf/printf.c:809
  }

  // limit precision so that our integer holding the fractional part does not overflow
  while ((len < PRINTF_FTOA_BUFFER_SIZE) && (precision > PRINTF_MAX_SUPPORTED_PRECISION)) {
    buf[len++] = '0'; // This respects the precision in terms of result length only
    2280:	80 e3       	ldi	r24, 0x30	; 48
c:\users\admin\documents\arduino\libraries\libprintf\extras\printf/printf.c:808
  if (!(flags & FLAGS_PRECISION)) {
    precision = PRINTF_DEFAULT_FLOAT_PRECISION;
  }

  // limit precision so that our integer holding the fractional part does not overflow
  while ((len < PRINTF_FTOA_BUFFER_SIZE) && (precision > PRINTF_MAX_SUPPORTED_PRECISION)) {
    2282:	32 e1       	ldi	r19, 0x12	; 18
    2284:	e3 16       	cp	r14, r19
    2286:	f1 04       	cpc	r15, r1
    2288:	48 f0       	brcs	.+18     	; 0x229c <__stack+0x9d>
c:\users\admin\documents\arduino\libraries\libprintf\extras\printf/printf.c:809
    buf[len++] = '0'; // This respects the precision in terms of result length only
    228a:	0f 5f       	subi	r16, 0xFF	; 255
    228c:	1f 4f       	sbci	r17, 0xFF	; 255
    228e:	81 93       	st	Z+, r24
c:\users\admin\documents\arduino\libraries\libprintf\extras\printf/printf.c:810
    precision--;
    2290:	91 e0       	ldi	r25, 0x01	; 1
    2292:	e9 1a       	sub	r14, r25
    2294:	f1 08       	sbc	r15, r1
c:\users\admin\documents\arduino\libraries\libprintf\extras\printf/printf.c:808
  if (!(flags & FLAGS_PRECISION)) {
    precision = PRINTF_DEFAULT_FLOAT_PRECISION;
  }

  // limit precision so that our integer holding the fractional part does not overflow
  while ((len < PRINTF_FTOA_BUFFER_SIZE) && (precision > PRINTF_MAX_SUPPORTED_PRECISION)) {
    2296:	00 32       	cpi	r16, 0x20	; 32
    2298:	11 05       	cpc	r17, r1
    229a:	99 f7       	brne	.-26     	; 0x2282 <__stack+0x83>
c:\users\admin\documents\arduino\libraries\libprintf\extras\printf/printf.c:815
    precision--;
  }

  return
#if PRINTF_SUPPORT_EXPONENTIAL_SPECIFIERS
    prefer_exponential ?
    229c:	bb 20       	and	r11, r11
    229e:	19 f0       	breq	.+6      	; 0x22a6 <__stack+0xa7>
    22a0:	1f 93       	push	r17
    22a2:	0f 93       	push	r16
    22a4:	d6 cf       	rjmp	.-84     	; 0x2252 <__stack+0x53>
print_decimal_number():
c:\users\admin\documents\arduino\libraries\libprintf\extras\printf/printf.c:645
}

      // internal ftoa for fixed decimal floating point
static size_t print_decimal_number(out_fct_type out, char* buffer, size_t idx, size_t maxlen, double number, unsigned int precision, unsigned int width, unsigned int flags, char* buf, size_t len)
{
  struct double_components value_ = get_components(number, precision);
    22a6:	97 01       	movw	r18, r14
    22a8:	b3 01       	movw	r22, r6
    22aa:	a2 01       	movw	r20, r4
    22ac:	ce 01       	movw	r24, r28
    22ae:	81 96       	adiw	r24, 0x21	; 33
    22b0:	0e 94 35 0a 	call	0x146a	; 0x146a <get_components(double, unsigned int)>
c:\users\admin\documents\arduino\libraries\libprintf\extras\printf/printf.c:646
  return print_broken_up_decimal(value_, out, buffer, idx, maxlen, precision, width, flags, buf, len);
    22b4:	1f 93       	push	r17
    22b6:	0f 93       	push	r16
    22b8:	9f 92       	push	r9
    22ba:	8f 92       	push	r8
    22bc:	df 92       	push	r13
    22be:	cf 92       	push	r12
    22c0:	2f a9       	ldd	r18, Y+55	; 0x37
    22c2:	2f 93       	push	r18
    22c4:	3e a9       	ldd	r19, Y+54	; 0x36
    22c6:	3f 93       	push	r19
    22c8:	ff 92       	push	r15
    22ca:	ef 92       	push	r14
    22cc:	8d a9       	ldd	r24, Y+53	; 0x35
    22ce:	8f 93       	push	r24
    22d0:	9c a9       	ldd	r25, Y+52	; 0x34
    22d2:	9f 93       	push	r25
    22d4:	2b a9       	ldd	r18, Y+51	; 0x33
    22d6:	2f 93       	push	r18
    22d8:	3a a9       	ldd	r19, Y+50	; 0x32
    22da:	3f 93       	push	r19
    22dc:	3f 92       	push	r3
    22de:	2f 92       	push	r2
    22e0:	89 a0       	ldd	r8, Y+33	; 0x21
    22e2:	9a a0       	ldd	r9, Y+34	; 0x22
    22e4:	ab a0       	ldd	r10, Y+35	; 0x23
    22e6:	bc a0       	ldd	r11, Y+36	; 0x24
    22e8:	cd a0       	ldd	r12, Y+37	; 0x25
    22ea:	de a0       	ldd	r13, Y+38	; 0x26
    22ec:	ef a0       	ldd	r14, Y+39	; 0x27
    22ee:	f8 a4       	ldd	r15, Y+40	; 0x28
    22f0:	09 a5       	ldd	r16, Y+41	; 0x29
    22f2:	1a a5       	ldd	r17, Y+42	; 0x2a
    22f4:	2b a5       	ldd	r18, Y+43	; 0x2b
    22f6:	3c a5       	ldd	r19, Y+44	; 0x2c
    22f8:	4d a5       	ldd	r20, Y+45	; 0x2d
    22fa:	5e a5       	ldd	r21, Y+46	; 0x2e
    22fc:	6f a5       	ldd	r22, Y+47	; 0x2f
    22fe:	78 a9       	ldd	r23, Y+48	; 0x30
    2300:	89 a9       	ldd	r24, Y+49	; 0x31
    2302:	0e 94 f4 03 	call	0x7e8	; 0x7e8 <print_broken_up_decimal(double_components, void (*)(char, void*, unsigned int, unsigned int), char*, unsigned int, unsigned int, unsigned int, unsigned int, unsigned int, char*, unsigned int) [clone .constprop.43]>
    2306:	0f b6       	in	r0, 0x3f	; 63
    2308:	f8 94       	cli
    230a:	de bf       	out	0x3e, r29	; 62
    230c:	0f be       	out	0x3f, r0	; 63
    230e:	cd bf       	out	0x3d, r28	; 61
    2310:	43 cf       	rjmp	.-378    	; 0x2198 <print_floating_point(void (*)(char, void*, unsigned int, unsigned int), char*, unsigned int, unsigned int, double, unsigned int, unsigned int, unsigned int, bool) [clone .constprop.39]+0x74>

00002312 <Ticker::update()>:
_ZN6Ticker6updateEv():
c:\Users\admin\Documents\Arduino\libraries\Ticker/Ticker.cpp:71
	else diffTime = micros() - lastTime;
	enabled = false;
	status = PAUSED;
	}

void Ticker::update() {
    2312:	cf 92       	push	r12
    2314:	df 92       	push	r13
    2316:	ef 92       	push	r14
    2318:	ff 92       	push	r15
    231a:	0f 93       	push	r16
    231c:	1f 93       	push	r17
    231e:	cf 93       	push	r28
    2320:	df 93       	push	r29
tick():
c:\Users\admin\Documents\Arduino\libraries\Ticker/Ticker.cpp:76
	if (tick()) callback();
	}

bool Ticker::tick() {
	if (!enabled)	return false;	
    2322:	fc 01       	movw	r30, r24
    2324:	20 81       	ld	r18, Z
    2326:	22 23       	and	r18, r18
    2328:	09 f4       	brne	.+2      	; 0x232c <Ticker::update()+0x1a>
    232a:	4e c0       	rjmp	.+156    	; 0x23c8 <Ticker::update()+0xb6>
    232c:	ec 01       	movw	r28, r24
c:\Users\admin\Documents\Arduino\libraries\Ticker/Ticker.cpp:77
	uint32_t currentTime = (resolution == MILLIS) ? millis() : micros();
    232e:	81 85       	ldd	r24, Z+9	; 0x09
    2330:	92 85       	ldd	r25, Z+10	; 0x0a
    2332:	01 97       	sbiw	r24, 0x01	; 1
    2334:	09 f0       	breq	.+2      	; 0x2338 <Ticker::update()+0x26>
    2336:	45 c0       	rjmp	.+138    	; 0x23c2 <Ticker::update()+0xb0>
    2338:	0e 94 88 08 	call	0x1110	; 0x1110 <millis>
c:\Users\admin\Documents\Arduino\libraries\Ticker/Ticker.cpp:78
 	if ((currentTime - lastTime) >= timer) {
    233c:	0b 89       	ldd	r16, Y+19	; 0x13
    233e:	1c 89       	ldd	r17, Y+20	; 0x14
    2340:	2d 89       	ldd	r18, Y+21	; 0x15
    2342:	3e 89       	ldd	r19, Y+22	; 0x16
    2344:	6b 01       	movw	r12, r22
    2346:	7c 01       	movw	r14, r24
    2348:	c0 1a       	sub	r12, r16
    234a:	d1 0a       	sbc	r13, r17
    234c:	e2 0a       	sbc	r14, r18
    234e:	f3 0a       	sbc	r15, r19
    2350:	09 81       	ldd	r16, Y+1	; 0x01
    2352:	1a 81       	ldd	r17, Y+2	; 0x02
    2354:	2b 81       	ldd	r18, Y+3	; 0x03
    2356:	3c 81       	ldd	r19, Y+4	; 0x04
    2358:	c0 16       	cp	r12, r16
    235a:	d1 06       	cpc	r13, r17
    235c:	e2 06       	cpc	r14, r18
    235e:	f3 06       	cpc	r15, r19
    2360:	98 f1       	brcs	.+102    	; 0x23c8 <Ticker::update()+0xb6>
c:\Users\admin\Documents\Arduino\libraries\Ticker/Ticker.cpp:79
 		lastTime = currentTime;
    2362:	6b 8b       	std	Y+19, r22	; 0x13
    2364:	7c 8b       	std	Y+20, r23	; 0x14
    2366:	8d 8b       	std	Y+21, r24	; 0x15
    2368:	9e 8b       	std	Y+22, r25	; 0x16
c:\Users\admin\Documents\Arduino\libraries\Ticker/Ticker.cpp:80
 		if (repeat - counts == 1 && counts != 0xFFFFFFFF) {
    236a:	8b 85       	ldd	r24, Y+11	; 0x0b
    236c:	9c 85       	ldd	r25, Y+12	; 0x0c
    236e:	ad 85       	ldd	r26, Y+13	; 0x0d
    2370:	be 85       	ldd	r27, Y+14	; 0x0e
    2372:	4d 81       	ldd	r20, Y+5	; 0x05
    2374:	5e 81       	ldd	r21, Y+6	; 0x06
    2376:	6f 81       	ldd	r22, Y+7	; 0x07
    2378:	78 85       	ldd	r23, Y+8	; 0x08
    237a:	48 1b       	sub	r20, r24
    237c:	59 0b       	sbc	r21, r25
    237e:	6a 0b       	sbc	r22, r26
    2380:	7b 0b       	sbc	r23, r27
    2382:	41 30       	cpi	r20, 0x01	; 1
    2384:	51 05       	cpc	r21, r1
    2386:	61 05       	cpc	r22, r1
    2388:	71 05       	cpc	r23, r1
    238a:	49 f4       	brne	.+18     	; 0x239e <Ticker::update()+0x8c>
    238c:	8f 3f       	cpi	r24, 0xFF	; 255
    238e:	ff ef       	ldi	r31, 0xFF	; 255
    2390:	9f 07       	cpc	r25, r31
    2392:	af 07       	cpc	r26, r31
    2394:	bf 07       	cpc	r27, r31
    2396:	19 f0       	breq	.+6      	; 0x239e <Ticker::update()+0x8c>
c:\Users\admin\Documents\Arduino\libraries\Ticker/Ticker.cpp:81
			enabled = false;
    2398:	18 82       	st	Y, r1
c:\Users\admin\Documents\Arduino\libraries\Ticker/Ticker.cpp:82
			status = STOPPED;
    239a:	18 8a       	std	Y+16, r1	; 0x10
    239c:	1f 86       	std	Y+15, r1	; 0x0f
c:\Users\admin\Documents\Arduino\libraries\Ticker/Ticker.cpp:84
			}
		counts++;
    239e:	01 96       	adiw	r24, 0x01	; 1
    23a0:	a1 1d       	adc	r26, r1
    23a2:	b1 1d       	adc	r27, r1
    23a4:	8b 87       	std	Y+11, r24	; 0x0b
    23a6:	9c 87       	std	Y+12, r25	; 0x0c
    23a8:	ad 87       	std	Y+13, r26	; 0x0d
    23aa:	be 87       	std	Y+14, r27	; 0x0e
_ZN6Ticker6updateEv():
c:\Users\admin\Documents\Arduino\libraries\Ticker/Ticker.cpp:72
	enabled = false;
	status = PAUSED;
	}

void Ticker::update() {
	if (tick()) callback();
    23ac:	e9 89       	ldd	r30, Y+17	; 0x11
    23ae:	fa 89       	ldd	r31, Y+18	; 0x12
c:\Users\admin\Documents\Arduino\libraries\Ticker/Ticker.cpp:73
	}
    23b0:	df 91       	pop	r29
    23b2:	cf 91       	pop	r28
    23b4:	1f 91       	pop	r17
    23b6:	0f 91       	pop	r16
    23b8:	ff 90       	pop	r15
    23ba:	ef 90       	pop	r14
    23bc:	df 90       	pop	r13
    23be:	cf 90       	pop	r12
c:\Users\admin\Documents\Arduino\libraries\Ticker/Ticker.cpp:72
	enabled = false;
	status = PAUSED;
	}

void Ticker::update() {
	if (tick()) callback();
    23c0:	19 94       	eijmp
tick():
c:\Users\admin\Documents\Arduino\libraries\Ticker/Ticker.cpp:77
	}

bool Ticker::tick() {
	if (!enabled)	return false;	
	uint32_t currentTime = (resolution == MILLIS) ? millis() : micros();
    23c2:	0e 94 f2 07 	call	0xfe4	; 0xfe4 <micros>
    23c6:	ba cf       	rjmp	.-140    	; 0x233c <Ticker::update()+0x2a>
_ZN6Ticker6updateEv():
c:\Users\admin\Documents\Arduino\libraries\Ticker/Ticker.cpp:73
	status = PAUSED;
	}

void Ticker::update() {
	if (tick()) callback();
	}
    23c8:	df 91       	pop	r29
    23ca:	cf 91       	pop	r28
    23cc:	1f 91       	pop	r17
    23ce:	0f 91       	pop	r16
    23d0:	ff 90       	pop	r15
    23d2:	ef 90       	pop	r14
    23d4:	df 90       	pop	r13
    23d6:	cf 90       	pop	r12
    23d8:	08 95       	ret

000023da <Ticker::start()>:
_ZN6Ticker5startEv():
c:\Users\admin\Documents\Arduino\libraries\Ticker/Ticker.cpp:40
	counts = 0;
	}

Ticker::~Ticker() {}

void Ticker::start() {
    23da:	cf 93       	push	r28
    23dc:	df 93       	push	r29
c:\Users\admin\Documents\Arduino\libraries\Ticker/Ticker.cpp:41
	if (callback == NULL) return;
    23de:	fc 01       	movw	r30, r24
    23e0:	21 89       	ldd	r18, Z+17	; 0x11
    23e2:	32 89       	ldd	r19, Z+18	; 0x12
    23e4:	23 2b       	or	r18, r19
    23e6:	a9 f0       	breq	.+42     	; 0x2412 <Ticker::start()+0x38>
    23e8:	ec 01       	movw	r28, r24
c:\Users\admin\Documents\Arduino\libraries\Ticker/Ticker.cpp:42
	if (resolution == MILLIS) lastTime = millis();
    23ea:	81 85       	ldd	r24, Z+9	; 0x09
    23ec:	92 85       	ldd	r25, Z+10	; 0x0a
    23ee:	01 97       	sbiw	r24, 0x01	; 1
    23f0:	99 f4       	brne	.+38     	; 0x2418 <Ticker::start()+0x3e>
    23f2:	0e 94 88 08 	call	0x1110	; 0x1110 <millis>
c:\Users\admin\Documents\Arduino\libraries\Ticker/Ticker.cpp:43
	else lastTime = micros();
    23f6:	6b 8b       	std	Y+19, r22	; 0x13
    23f8:	7c 8b       	std	Y+20, r23	; 0x14
    23fa:	8d 8b       	std	Y+21, r24	; 0x15
    23fc:	9e 8b       	std	Y+22, r25	; 0x16
c:\Users\admin\Documents\Arduino\libraries\Ticker/Ticker.cpp:44
	enabled = true;
    23fe:	81 e0       	ldi	r24, 0x01	; 1
    2400:	88 83       	st	Y, r24
c:\Users\admin\Documents\Arduino\libraries\Ticker/Ticker.cpp:45
	counts = 0;
    2402:	1b 86       	std	Y+11, r1	; 0x0b
    2404:	1c 86       	std	Y+12, r1	; 0x0c
    2406:	1d 86       	std	Y+13, r1	; 0x0d
    2408:	1e 86       	std	Y+14, r1	; 0x0e
c:\Users\admin\Documents\Arduino\libraries\Ticker/Ticker.cpp:46
	status = RUNNING;
    240a:	81 e0       	ldi	r24, 0x01	; 1
    240c:	90 e0       	ldi	r25, 0x00	; 0
    240e:	98 8b       	std	Y+16, r25	; 0x10
    2410:	8f 87       	std	Y+15, r24	; 0x0f
c:\Users\admin\Documents\Arduino\libraries\Ticker/Ticker.cpp:47
	}
    2412:	df 91       	pop	r29
    2414:	cf 91       	pop	r28
    2416:	08 95       	ret
c:\Users\admin\Documents\Arduino\libraries\Ticker/Ticker.cpp:43
Ticker::~Ticker() {}

void Ticker::start() {
	if (callback == NULL) return;
	if (resolution == MILLIS) lastTime = millis();
	else lastTime = micros();
    2418:	0e 94 f2 07 	call	0xfe4	; 0xfe4 <micros>
    241c:	ec cf       	rjmp	.-40     	; 0x23f6 <Ticker::start()+0x1c>

0000241e <MovingAverage<float>::Insert(float)>:
_ZN13MovingAverageIfE6InsertEf():
C:\Users\admin\Documents\Github\marketforge\MarketForge_Control/MovingAverage.h:87
    return Average;
}


template<class T>
void MovingAverage<T>::Insert(T value){
    241e:	2f 92       	push	r2
    2420:	3f 92       	push	r3
    2422:	4f 92       	push	r4
    2424:	5f 92       	push	r5
    2426:	6f 92       	push	r6
    2428:	7f 92       	push	r7
    242a:	8f 92       	push	r8
    242c:	9f 92       	push	r9
    242e:	af 92       	push	r10
    2430:	bf 92       	push	r11
    2432:	cf 92       	push	r12
    2434:	df 92       	push	r13
    2436:	ef 92       	push	r14
    2438:	ff 92       	push	r15
    243a:	0f 93       	push	r16
    243c:	1f 93       	push	r17
    243e:	cf 93       	push	r28
    2440:	df 93       	push	r29
    2442:	ec 01       	movw	r28, r24
    2444:	6a 01       	movw	r12, r20
    2446:	7b 01       	movw	r14, r22
C:\Users\admin\Documents\Github\marketforge\MarketForge_Control/MovingAverage.h:88
    Average = value/MaxLength + Average - Element[++NextElement]/MaxLength;
    2448:	68 85       	ldd	r22, Y+8	; 0x08
    244a:	70 e0       	ldi	r23, 0x00	; 0
    244c:	90 e0       	ldi	r25, 0x00	; 0
    244e:	80 e0       	ldi	r24, 0x00	; 0
    2450:	0e 94 c9 25 	call	0x4b92	; 0x4b92 <__floatsisf>
    2454:	4b 01       	movw	r8, r22
    2456:	5c 01       	movw	r10, r24
    2458:	ac 01       	movw	r20, r24
    245a:	9b 01       	movw	r18, r22
    245c:	c7 01       	movw	r24, r14
    245e:	b6 01       	movw	r22, r12
    2460:	0e 94 dd 24 	call	0x49ba	; 0x49ba <__divsf3>
    2464:	2a 81       	ldd	r18, Y+2	; 0x02
    2466:	3b 81       	ldd	r19, Y+3	; 0x03
    2468:	4c 81       	ldd	r20, Y+4	; 0x04
    246a:	5d 81       	ldd	r21, Y+5	; 0x05
    246c:	0e 94 6c 24 	call	0x48d8	; 0x48d8 <__addsf3>
    2470:	2b 01       	movw	r4, r22
    2472:	3c 01       	movw	r6, r24
    2474:	88 81       	ld	r24, Y
    2476:	99 81       	ldd	r25, Y+1	; 0x01
    2478:	0e 81       	ldd	r16, Y+6	; 0x06
    247a:	1f 81       	ldd	r17, Y+7	; 0x07
    247c:	0f 5f       	subi	r16, 0xFF	; 255
    247e:	1f 4f       	sbci	r17, 0xFF	; 255
    2480:	1f 83       	std	Y+7, r17	; 0x07
    2482:	0e 83       	std	Y+6, r16	; 0x06
    2484:	18 01       	movw	r2, r16
    2486:	22 0c       	add	r2, r2
    2488:	33 1c       	adc	r3, r3
    248a:	22 0c       	add	r2, r2
    248c:	33 1c       	adc	r3, r3
    248e:	28 0e       	add	r2, r24
    2490:	39 1e       	adc	r3, r25
    2492:	a5 01       	movw	r20, r10
    2494:	94 01       	movw	r18, r8
    2496:	f1 01       	movw	r30, r2
    2498:	60 81       	ld	r22, Z
    249a:	71 81       	ldd	r23, Z+1	; 0x01
    249c:	82 81       	ldd	r24, Z+2	; 0x02
    249e:	93 81       	ldd	r25, Z+3	; 0x03
    24a0:	0e 94 dd 24 	call	0x49ba	; 0x49ba <__divsf3>
    24a4:	9b 01       	movw	r18, r22
    24a6:	ac 01       	movw	r20, r24
    24a8:	c3 01       	movw	r24, r6
    24aa:	b2 01       	movw	r22, r4
    24ac:	0e 94 6b 24 	call	0x48d6	; 0x48d6 <__subsf3>
    24b0:	6a 83       	std	Y+2, r22	; 0x02
    24b2:	7b 83       	std	Y+3, r23	; 0x03
    24b4:	8c 83       	std	Y+4, r24	; 0x04
    24b6:	9d 83       	std	Y+5, r25	; 0x05
C:\Users\admin\Documents\Github\marketforge\MarketForge_Control/MovingAverage.h:89
    Element[NextElement] = value;
    24b8:	f1 01       	movw	r30, r2
    24ba:	c0 82       	st	Z, r12
    24bc:	d1 82       	std	Z+1, r13	; 0x01
    24be:	e2 82       	std	Z+2, r14	; 0x02
    24c0:	f3 82       	std	Z+3, r15	; 0x03
C:\Users\admin\Documents\Github\marketforge\MarketForge_Control/MovingAverage.h:90
    if(NextElement>=(MaxLength-1))   
    24c2:	88 85       	ldd	r24, Y+8	; 0x08
    24c4:	81 50       	subi	r24, 0x01	; 1
    24c6:	99 0b       	sbc	r25, r25
    24c8:	08 17       	cp	r16, r24
    24ca:	19 07       	cpc	r17, r25
    24cc:	10 f0       	brcs	.+4      	; 0x24d2 <MovingAverage<float>::Insert(float)+0xb4>
C:\Users\admin\Documents\Github\marketforge\MarketForge_Control/MovingAverage.h:91
        NextElement=0;
    24ce:	1f 82       	std	Y+7, r1	; 0x07
    24d0:	1e 82       	std	Y+6, r1	; 0x06
C:\Users\admin\Documents\Github\marketforge\MarketForge_Control/MovingAverage.h:93
    
}
    24d2:	df 91       	pop	r29
    24d4:	cf 91       	pop	r28
    24d6:	1f 91       	pop	r17
    24d8:	0f 91       	pop	r16
    24da:	ff 90       	pop	r15
    24dc:	ef 90       	pop	r14
    24de:	df 90       	pop	r13
    24e0:	cf 90       	pop	r12
    24e2:	bf 90       	pop	r11
    24e4:	af 90       	pop	r10
    24e6:	9f 90       	pop	r9
    24e8:	8f 90       	pop	r8
    24ea:	7f 90       	pop	r7
    24ec:	6f 90       	pop	r6
    24ee:	5f 90       	pop	r5
    24f0:	4f 90       	pop	r4
    24f2:	3f 90       	pop	r3
    24f4:	2f 90       	pop	r2
    24f6:	08 95       	ret

000024f8 <tick1Sec()>:
_Z8tick1Secv():
C:\Users\admin\Documents\Github\marketforge\MarketForge_Control/MarketForge_Control.ino:406
    heater_counter = 0;
  }
}

void tick1Sec(void) {
  digitalWrite(LED7, !digitalRead(LED7));
    24f8:	8a e2       	ldi	r24, 0x2A	; 42
    24fa:	0e 94 04 06 	call	0xc08	; 0xc08 <digitalRead>
    24fe:	61 e0       	ldi	r22, 0x01	; 1
    2500:	89 2b       	or	r24, r25
    2502:	09 f0       	breq	.+2      	; 0x2506 <tick1Sec()+0xe>
    2504:	60 e0       	ldi	r22, 0x00	; 0
    2506:	8a e2       	ldi	r24, 0x2A	; 42
    2508:	0e 94 2d 06 	call	0xc5a	; 0xc5a <digitalWrite>
C:\Users\admin\Documents\Github\marketforge\MarketForge_Control/MarketForge_Control.ino:408

  if (state == heating || state == sterilizing || state == cooling) {
    250c:	80 91 9f 03 	lds	r24, 0x039F	; 0x80039f <state>
    2510:	81 50       	subi	r24, 0x01	; 1
    2512:	83 30       	cpi	r24, 0x03	; 3
    2514:	48 f4       	brcc	.+18     	; 0x2528 <tick1Sec()+0x30>
C:\Users\admin\Documents\Github\marketforge\MarketForge_Control/MarketForge_Control.ino:409
    Seconds++;
    2516:	80 91 9d 03 	lds	r24, 0x039D	; 0x80039d <Seconds>
    251a:	90 91 9e 03 	lds	r25, 0x039E	; 0x80039e <Seconds+0x1>
    251e:	01 96       	adiw	r24, 0x01	; 1
    2520:	90 93 9e 03 	sts	0x039E, r25	; 0x80039e <Seconds+0x1>
    2524:	80 93 9d 03 	sts	0x039D, r24	; 0x80039d <Seconds>
C:\Users\admin\Documents\Github\marketforge\MarketForge_Control/MarketForge_Control.ino:413
  } else {
    // Seconds = 0;
  }
}
    2528:	08 95       	ret

0000252a <tickHeater()>:
_Z10tickHeaterv():
C:\Users\admin\Documents\Github\marketforge\MarketForge_Control/MarketForge_Control.ino:362
  if (Temperature < 102.0) {
    digitalWrite(VENT_SOLENOID, VALVE_OPEN);
  } 
}

void tickHeater(void) {
    252a:	4f 92       	push	r4
    252c:	5f 92       	push	r5
    252e:	6f 92       	push	r6
    2530:	7f 92       	push	r7
    2532:	8f 92       	push	r8
    2534:	9f 92       	push	r9
    2536:	af 92       	push	r10
    2538:	bf 92       	push	r11
    253a:	cf 92       	push	r12
    253c:	df 92       	push	r13
    253e:	ef 92       	push	r14
    2540:	ff 92       	push	r15
    2542:	cf 93       	push	r28
    2544:	df 93       	push	r29
    2546:	00 d0       	rcall	.+0      	; 0x2548 <tickHeater()+0x1e>
    2548:	1f 92       	push	r1
    254a:	cd b7       	in	r28, 0x3d	; 61
    254c:	de b7       	in	r29, 0x3e	; 62
C:\Users\admin\Documents\Github\marketforge\MarketForge_Control/MarketForge_Control.ino:366
  static uint8_t heater_counter = 0;
  int heater;

  digitalWrite(LED6, !digitalRead(LED6));
    254e:	8b e2       	ldi	r24, 0x2B	; 43
    2550:	0e 94 04 06 	call	0xc08	; 0xc08 <digitalRead>
    2554:	61 e0       	ldi	r22, 0x01	; 1
    2556:	89 2b       	or	r24, r25
    2558:	09 f0       	breq	.+2      	; 0x255c <tickHeater()+0x32>
    255a:	60 e0       	ldi	r22, 0x00	; 0
    255c:	8b e2       	ldi	r24, 0x2B	; 43
    255e:	0e 94 2d 06 	call	0xc5a	; 0xc5a <digitalWrite>
    2562:	80 91 9f 03 	lds	r24, 0x039F	; 0x80039f <state>
C:\Users\admin\Documents\Github\marketforge\MarketForge_Control/MarketForge_Control.ino:368

  if (InCycle && (state == heating) || (state == sterilizing)) {
    2566:	90 91 9c 03 	lds	r25, 0x039C	; 0x80039c <InCycle>
    256a:	99 23       	and	r25, r25
    256c:	11 f0       	breq	.+4      	; 0x2572 <tickHeater()+0x48>
    256e:	81 30       	cpi	r24, 0x01	; 1
    2570:	19 f0       	breq	.+6      	; 0x2578 <tickHeater()+0x4e>
    2572:	82 30       	cpi	r24, 0x02	; 2
    2574:	09 f0       	breq	.+2      	; 0x2578 <tickHeater()+0x4e>
    2576:	d8 c1       	rjmp	.+944    	; 0x2928 <tickHeater()+0x3fe>
run():
c:\Users\admin\Documents\Arduino\libraries\AutoPID/AutoPID.cpp:44
bool AutoPID::atSetPoint(double threshold) {
  return abs(*_setpoint - *_input) <= threshold;
}//bool AutoPID::atSetPoint

void AutoPID::run() {
  if (_stopped) {
    2578:	80 91 59 05 	lds	r24, 0x0559	; 0x800559 <pid+0x32>
    257c:	88 23       	and	r24, r24
    257e:	e1 f0       	breq	.+56     	; 0x25b8 <tickHeater()+0x8e>
c:\Users\admin\Documents\Arduino\libraries\AutoPID/AutoPID.cpp:45
    _stopped = false;
    2580:	10 92 59 05 	sts	0x0559, r1	; 0x800559 <pid+0x32>
reset():
c:\Users\admin\Documents\Arduino\libraries\AutoPID/AutoPID.cpp:76
void AutoPID::stop() {
  _stopped = true;
  reset();
}
void AutoPID::reset() {
  _lastStep = millis();
    2584:	0e 94 88 08 	call	0x1110	; 0x1110 <millis>
    2588:	60 93 55 05 	sts	0x0555, r22	; 0x800555 <pid+0x2e>
    258c:	70 93 56 05 	sts	0x0556, r23	; 0x800556 <pid+0x2f>
    2590:	80 93 57 05 	sts	0x0557, r24	; 0x800557 <pid+0x30>
    2594:	90 93 58 05 	sts	0x0558, r25	; 0x800558 <pid+0x31>
c:\Users\admin\Documents\Arduino\libraries\AutoPID/AutoPID.cpp:77
  _integral = 0;
    2598:	10 92 33 05 	sts	0x0533, r1	; 0x800533 <pid+0xc>
    259c:	10 92 34 05 	sts	0x0534, r1	; 0x800534 <pid+0xd>
    25a0:	10 92 35 05 	sts	0x0535, r1	; 0x800535 <pid+0xe>
    25a4:	10 92 36 05 	sts	0x0536, r1	; 0x800536 <pid+0xf>
c:\Users\admin\Documents\Arduino\libraries\AutoPID/AutoPID.cpp:78
  _previousError = 0;
    25a8:	10 92 37 05 	sts	0x0537, r1	; 0x800537 <pid+0x10>
    25ac:	10 92 38 05 	sts	0x0538, r1	; 0x800538 <pid+0x11>
    25b0:	10 92 39 05 	sts	0x0539, r1	; 0x800539 <pid+0x12>
    25b4:	10 92 3a 05 	sts	0x053A, r1	; 0x80053a <pid+0x13>
run():
c:\Users\admin\Documents\Arduino\libraries\AutoPID/AutoPID.cpp:49
  if (_stopped) {
    _stopped = false;
    reset();
  }
  //if bang thresholds are defined and we're outside of them, use bang-bang control
  if (_bangOn && ((*_setpoint - *_input) > _bangOn)) {
    25b8:	c0 90 3b 05 	lds	r12, 0x053B	; 0x80053b <pid+0x14>
    25bc:	d0 90 3c 05 	lds	r13, 0x053C	; 0x80053c <pid+0x15>
    25c0:	e0 90 3d 05 	lds	r14, 0x053D	; 0x80053d <pid+0x16>
    25c4:	f0 90 3e 05 	lds	r15, 0x053E	; 0x80053e <pid+0x17>
    25c8:	20 e0       	ldi	r18, 0x00	; 0
    25ca:	30 e0       	ldi	r19, 0x00	; 0
    25cc:	a9 01       	movw	r20, r18
    25ce:	c7 01       	movw	r24, r14
    25d0:	b6 01       	movw	r22, r12
    25d2:	0e 94 d8 24 	call	0x49b0	; 0x49b0 <__cmpsf2>
    25d6:	88 23       	and	r24, r24
    25d8:	09 f4       	brne	.+2      	; 0x25dc <tickHeater()+0xb2>
    25da:	6d c0       	rjmp	.+218    	; 0x26b6 <tickHeater()+0x18c>
    25dc:	e0 91 45 05 	lds	r30, 0x0545	; 0x800545 <pid+0x1e>
    25e0:	f0 91 46 05 	lds	r31, 0x0546	; 0x800546 <pid+0x1f>
    25e4:	a0 91 43 05 	lds	r26, 0x0543	; 0x800543 <pid+0x1c>
    25e8:	b0 91 44 05 	lds	r27, 0x0544	; 0x800544 <pid+0x1d>
    25ec:	2d 91       	ld	r18, X+
    25ee:	3d 91       	ld	r19, X+
    25f0:	4d 91       	ld	r20, X+
    25f2:	5c 91       	ld	r21, X
    25f4:	60 81       	ld	r22, Z
    25f6:	71 81       	ldd	r23, Z+1	; 0x01
    25f8:	82 81       	ldd	r24, Z+2	; 0x02
    25fa:	93 81       	ldd	r25, Z+3	; 0x03
    25fc:	0e 94 6b 24 	call	0x48d6	; 0x48d6 <__subsf3>
    2600:	9b 01       	movw	r18, r22
    2602:	ac 01       	movw	r20, r24
    2604:	c7 01       	movw	r24, r14
    2606:	b6 01       	movw	r22, r12
    2608:	0e 94 d8 24 	call	0x49b0	; 0x49b0 <__cmpsf2>
    260c:	87 ff       	sbrs	r24, 7
    260e:	53 c0       	rjmp	.+166    	; 0x26b6 <tickHeater()+0x18c>
c:\Users\admin\Documents\Arduino\libraries\AutoPID/AutoPID.cpp:50
    *_output = _outputMax;
    2610:	80 91 4d 05 	lds	r24, 0x054D	; 0x80054d <pid+0x26>
    2614:	90 91 4e 05 	lds	r25, 0x054E	; 0x80054e <pid+0x27>
    2618:	a0 91 4f 05 	lds	r26, 0x054F	; 0x80054f <pid+0x28>
    261c:	b0 91 50 05 	lds	r27, 0x0550	; 0x800550 <pid+0x29>
c:\Users\admin\Documents\Arduino\libraries\AutoPID/AutoPID.cpp:53
    _lastStep = millis();
  } else if (_bangOff && ((*_input - *_setpoint) > _bangOff)) {
    *_output = _outputMin;
    2620:	e0 91 47 05 	lds	r30, 0x0547	; 0x800547 <pid+0x20>
    2624:	f0 91 48 05 	lds	r31, 0x0548	; 0x800548 <pid+0x21>
    2628:	80 83       	st	Z, r24
    262a:	91 83       	std	Z+1, r25	; 0x01
    262c:	a2 83       	std	Z+2, r26	; 0x02
    262e:	b3 83       	std	Z+3, r27	; 0x03
c:\Users\admin\Documents\Arduino\libraries\AutoPID/AutoPID.cpp:54
    _lastStep = millis();
    2630:	0e 94 88 08 	call	0x1110	; 0x1110 <millis>
    2634:	60 93 55 05 	sts	0x0555, r22	; 0x800555 <pid+0x2e>
    2638:	70 93 56 05 	sts	0x0556, r23	; 0x800556 <pid+0x2f>
    263c:	80 93 57 05 	sts	0x0557, r24	; 0x800557 <pid+0x30>
    2640:	90 93 58 05 	sts	0x0558, r25	; 0x800558 <pid+0x31>
_Z10tickHeaterv():
C:\Users\admin\Documents\Github\marketforge\MarketForge_Control/MarketForge_Control.ino:371
    pid.run();

    heater = pidOutput;  
    2644:	60 91 1b 05 	lds	r22, 0x051B	; 0x80051b <pidOutput>
    2648:	70 91 1c 05 	lds	r23, 0x051C	; 0x80051c <pidOutput+0x1>
    264c:	80 91 1d 05 	lds	r24, 0x051D	; 0x80051d <pidOutput+0x2>
    2650:	90 91 1e 05 	lds	r25, 0x051E	; 0x80051e <pidOutput+0x3>
    2654:	0e 94 8b 25 	call	0x4b16	; 0x4b16 <__fixsfsi>
    2658:	65 36       	cpi	r22, 0x65	; 101
    265a:	71 05       	cpc	r23, r1
    265c:	14 f0       	brlt	.+4      	; 0x2662 <tickHeater()+0x138>
    265e:	64 e6       	ldi	r22, 0x64	; 100
    2660:	70 e0       	ldi	r23, 0x00	; 0
C:\Users\admin\Documents\Github\marketforge\MarketForge_Control/MarketForge_Control.ino:381

    if (heater >= 100) {
      heater = 100;
    }

    if (heater > heater_counter) {
    2662:	80 91 24 03 	lds	r24, 0x0324	; 0x800324 <tickHeater()::heater_counter>
    2666:	90 e0       	ldi	r25, 0x00	; 0
    2668:	77 ff       	sbrs	r23, 7
    266a:	02 c0       	rjmp	.+4      	; 0x2670 <tickHeater()+0x146>
    266c:	70 e0       	ldi	r23, 0x00	; 0
    266e:	60 e0       	ldi	r22, 0x00	; 0
    2670:	86 17       	cp	r24, r22
    2672:	97 07       	cpc	r25, r23
    2674:	0c f0       	brlt	.+2      	; 0x2678 <tickHeater()+0x14e>
    2676:	58 c1       	rjmp	.+688    	; 0x2928 <tickHeater()+0x3fe>
C:\Users\admin\Documents\Github\marketforge\MarketForge_Control/MarketForge_Control.ino:382
      digitalWrite(HEATER1, HEATER_ON);
    2678:	61 e0       	ldi	r22, 0x01	; 1
C:\Users\admin\Documents\Github\marketforge\MarketForge_Control/MarketForge_Control.ino:386
      // digitalWrite(HEATER2, HEATER_ON);
      // digitalWrite(HEATER3, HEATER_ON);
    } else {
      digitalWrite(HEATER1, HEATER_OFF);
    267a:	8a e1       	ldi	r24, 0x1A	; 26
    267c:	0e 94 2d 06 	call	0xc5a	; 0xc5a <digitalWrite>
C:\Users\admin\Documents\Github\marketforge\MarketForge_Control/MarketForge_Control.ino:398
    digitalWrite(HEATER1, HEATER_OFF);
    // digitalWrite(HEATER2, HEATER_OFF);
    // digitalWrite(HEATER3, HEATER_OFF);
  }

  heater_counter++;
    2680:	80 91 24 03 	lds	r24, 0x0324	; 0x800324 <tickHeater()::heater_counter>
    2684:	8f 5f       	subi	r24, 0xFF	; 255
C:\Users\admin\Documents\Github\marketforge\MarketForge_Control/MarketForge_Control.ino:400

  if (heater_counter > 100) {
    2686:	85 36       	cpi	r24, 0x65	; 101
    2688:	08 f0       	brcs	.+2      	; 0x268c <tickHeater()+0x162>
    268a:	50 c1       	rjmp	.+672    	; 0x292c <tickHeater()+0x402>
C:\Users\admin\Documents\Github\marketforge\MarketForge_Control/MarketForge_Control.ino:398
    digitalWrite(HEATER1, HEATER_OFF);
    // digitalWrite(HEATER2, HEATER_OFF);
    // digitalWrite(HEATER3, HEATER_OFF);
  }

  heater_counter++;
    268c:	80 93 24 03 	sts	0x0324, r24	; 0x800324 <tickHeater()::heater_counter>
C:\Users\admin\Documents\Github\marketforge\MarketForge_Control/MarketForge_Control.ino:403

  if (heater_counter > 100) {
    heater_counter = 0;
  }
}
    2690:	0f 90       	pop	r0
    2692:	0f 90       	pop	r0
    2694:	0f 90       	pop	r0
    2696:	0f 90       	pop	r0
    2698:	df 91       	pop	r29
    269a:	cf 91       	pop	r28
    269c:	ff 90       	pop	r15
    269e:	ef 90       	pop	r14
    26a0:	df 90       	pop	r13
    26a2:	cf 90       	pop	r12
    26a4:	bf 90       	pop	r11
    26a6:	af 90       	pop	r10
    26a8:	9f 90       	pop	r9
    26aa:	8f 90       	pop	r8
    26ac:	7f 90       	pop	r7
    26ae:	6f 90       	pop	r6
    26b0:	5f 90       	pop	r5
    26b2:	4f 90       	pop	r4
    26b4:	08 95       	ret
run():
c:\Users\admin\Documents\Arduino\libraries\AutoPID/AutoPID.cpp:52
  }
  //if bang thresholds are defined and we're outside of them, use bang-bang control
  if (_bangOn && ((*_setpoint - *_input) > _bangOn)) {
    *_output = _outputMax;
    _lastStep = millis();
  } else if (_bangOff && ((*_input - *_setpoint) > _bangOff)) {
    26b6:	c0 90 3f 05 	lds	r12, 0x053F	; 0x80053f <pid+0x18>
    26ba:	d0 90 40 05 	lds	r13, 0x0540	; 0x800540 <pid+0x19>
    26be:	e0 90 41 05 	lds	r14, 0x0541	; 0x800541 <pid+0x1a>
    26c2:	f0 90 42 05 	lds	r15, 0x0542	; 0x800542 <pid+0x1b>
    26c6:	20 e0       	ldi	r18, 0x00	; 0
    26c8:	30 e0       	ldi	r19, 0x00	; 0
    26ca:	a9 01       	movw	r20, r18
    26cc:	c7 01       	movw	r24, r14
    26ce:	b6 01       	movw	r22, r12
    26d0:	0e 94 d8 24 	call	0x49b0	; 0x49b0 <__cmpsf2>
    26d4:	88 23       	and	r24, r24
    26d6:	19 f1       	breq	.+70     	; 0x271e <tickHeater()+0x1f4>
    26d8:	e0 91 43 05 	lds	r30, 0x0543	; 0x800543 <pid+0x1c>
    26dc:	f0 91 44 05 	lds	r31, 0x0544	; 0x800544 <pid+0x1d>
    26e0:	a0 91 45 05 	lds	r26, 0x0545	; 0x800545 <pid+0x1e>
    26e4:	b0 91 46 05 	lds	r27, 0x0546	; 0x800546 <pid+0x1f>
    26e8:	2d 91       	ld	r18, X+
    26ea:	3d 91       	ld	r19, X+
    26ec:	4d 91       	ld	r20, X+
    26ee:	5c 91       	ld	r21, X
    26f0:	60 81       	ld	r22, Z
    26f2:	71 81       	ldd	r23, Z+1	; 0x01
    26f4:	82 81       	ldd	r24, Z+2	; 0x02
    26f6:	93 81       	ldd	r25, Z+3	; 0x03
    26f8:	0e 94 6b 24 	call	0x48d6	; 0x48d6 <__subsf3>
    26fc:	9b 01       	movw	r18, r22
    26fe:	ac 01       	movw	r20, r24
    2700:	c7 01       	movw	r24, r14
    2702:	b6 01       	movw	r22, r12
    2704:	0e 94 d8 24 	call	0x49b0	; 0x49b0 <__cmpsf2>
    2708:	87 ff       	sbrs	r24, 7
    270a:	09 c0       	rjmp	.+18     	; 0x271e <tickHeater()+0x1f4>
c:\Users\admin\Documents\Arduino\libraries\AutoPID/AutoPID.cpp:53
    *_output = _outputMin;
    270c:	80 91 49 05 	lds	r24, 0x0549	; 0x800549 <pid+0x22>
    2710:	90 91 4a 05 	lds	r25, 0x054A	; 0x80054a <pid+0x23>
    2714:	a0 91 4b 05 	lds	r26, 0x054B	; 0x80054b <pid+0x24>
    2718:	b0 91 4c 05 	lds	r27, 0x054C	; 0x80054c <pid+0x25>
    271c:	81 cf       	rjmp	.-254    	; 0x2620 <tickHeater()+0xf6>
c:\Users\admin\Documents\Arduino\libraries\AutoPID/AutoPID.cpp:56
    _lastStep = millis();
  } else {                                    //otherwise use PID control
    unsigned long _dT = millis() - _lastStep;   //calculate time since last update
    271e:	0e 94 88 08 	call	0x1110	; 0x1110 <millis>
    2722:	c0 90 55 05 	lds	r12, 0x0555	; 0x800555 <pid+0x2e>
    2726:	d0 90 56 05 	lds	r13, 0x0556	; 0x800556 <pid+0x2f>
    272a:	e0 90 57 05 	lds	r14, 0x0557	; 0x800557 <pid+0x30>
    272e:	f0 90 58 05 	lds	r15, 0x0558	; 0x800558 <pid+0x31>
    2732:	4b 01       	movw	r8, r22
    2734:	5c 01       	movw	r10, r24
    2736:	8c 18       	sub	r8, r12
    2738:	9d 08       	sbc	r9, r13
    273a:	ae 08       	sbc	r10, r14
    273c:	bf 08       	sbc	r11, r15
c:\Users\admin\Documents\Arduino\libraries\AutoPID/AutoPID.cpp:57
    if (_dT >= _timeStep) {                     //if long enough, do PID calculations
    273e:	80 91 51 05 	lds	r24, 0x0551	; 0x800551 <pid+0x2a>
    2742:	90 91 52 05 	lds	r25, 0x0552	; 0x800552 <pid+0x2b>
    2746:	a0 91 53 05 	lds	r26, 0x0553	; 0x800553 <pid+0x2c>
    274a:	b0 91 54 05 	lds	r27, 0x0554	; 0x800554 <pid+0x2d>
    274e:	88 16       	cp	r8, r24
    2750:	99 06       	cpc	r9, r25
    2752:	aa 06       	cpc	r10, r26
    2754:	bb 06       	cpc	r11, r27
    2756:	08 f4       	brcc	.+2      	; 0x275a <tickHeater()+0x230>
    2758:	75 cf       	rjmp	.-278    	; 0x2644 <tickHeater()+0x11a>
c:\Users\admin\Documents\Arduino\libraries\AutoPID/AutoPID.cpp:58
      _lastStep = millis();
    275a:	0e 94 88 08 	call	0x1110	; 0x1110 <millis>
    275e:	60 93 55 05 	sts	0x0555, r22	; 0x800555 <pid+0x2e>
    2762:	70 93 56 05 	sts	0x0556, r23	; 0x800556 <pid+0x2f>
    2766:	80 93 57 05 	sts	0x0557, r24	; 0x800557 <pid+0x30>
    276a:	90 93 58 05 	sts	0x0558, r25	; 0x800558 <pid+0x31>
c:\Users\admin\Documents\Arduino\libraries\AutoPID/AutoPID.cpp:59
      _error = *_setpoint - *_input;
    276e:	e0 91 45 05 	lds	r30, 0x0545	; 0x800545 <pid+0x1e>
    2772:	f0 91 46 05 	lds	r31, 0x0546	; 0x800546 <pid+0x1f>
    2776:	a0 91 43 05 	lds	r26, 0x0543	; 0x800543 <pid+0x1c>
    277a:	b0 91 44 05 	lds	r27, 0x0544	; 0x800544 <pid+0x1d>
    277e:	2d 91       	ld	r18, X+
    2780:	3d 91       	ld	r19, X+
    2782:	4d 91       	ld	r20, X+
    2784:	5c 91       	ld	r21, X
    2786:	60 81       	ld	r22, Z
    2788:	71 81       	ldd	r23, Z+1	; 0x01
    278a:	82 81       	ldd	r24, Z+2	; 0x02
    278c:	93 81       	ldd	r25, Z+3	; 0x03
    278e:	0e 94 6b 24 	call	0x48d6	; 0x48d6 <__subsf3>
    2792:	6b 01       	movw	r12, r22
    2794:	7c 01       	movw	r14, r24
    2796:	c0 92 5a 05 	sts	0x055A, r12	; 0x80055a <pid+0x33>
    279a:	d0 92 5b 05 	sts	0x055B, r13	; 0x80055b <pid+0x34>
    279e:	e0 92 5c 05 	sts	0x055C, r14	; 0x80055c <pid+0x35>
    27a2:	f0 92 5d 05 	sts	0x055D, r15	; 0x80055d <pid+0x36>
c:\Users\admin\Documents\Arduino\libraries\AutoPID/AutoPID.cpp:60
      _integral += (_error + _previousError) / 2 * _dT / 1000.0;   //Riemann sum integral
    27a6:	40 90 37 05 	lds	r4, 0x0537	; 0x800537 <pid+0x10>
    27aa:	50 90 38 05 	lds	r5, 0x0538	; 0x800538 <pid+0x11>
    27ae:	60 90 39 05 	lds	r6, 0x0539	; 0x800539 <pid+0x12>
    27b2:	70 90 3a 05 	lds	r7, 0x053A	; 0x80053a <pid+0x13>
    27b6:	c5 01       	movw	r24, r10
    27b8:	b4 01       	movw	r22, r8
    27ba:	0e 94 c7 25 	call	0x4b8e	; 0x4b8e <__floatunsisf>
    27be:	69 83       	std	Y+1, r22	; 0x01
    27c0:	7a 83       	std	Y+2, r23	; 0x02
    27c2:	8b 83       	std	Y+3, r24	; 0x03
    27c4:	9c 83       	std	Y+4, r25	; 0x04
    27c6:	a3 01       	movw	r20, r6
    27c8:	92 01       	movw	r18, r4
    27ca:	c7 01       	movw	r24, r14
    27cc:	b6 01       	movw	r22, r12
    27ce:	0e 94 6c 24 	call	0x48d8	; 0x48d8 <__addsf3>
    27d2:	20 e0       	ldi	r18, 0x00	; 0
    27d4:	30 e0       	ldi	r19, 0x00	; 0
    27d6:	40 e0       	ldi	r20, 0x00	; 0
    27d8:	5f e3       	ldi	r21, 0x3F	; 63
    27da:	0e 94 cc 26 	call	0x4d98	; 0x4d98 <__mulsf3>
    27de:	29 81       	ldd	r18, Y+1	; 0x01
    27e0:	3a 81       	ldd	r19, Y+2	; 0x02
    27e2:	4b 81       	ldd	r20, Y+3	; 0x03
    27e4:	5c 81       	ldd	r21, Y+4	; 0x04
    27e6:	0e 94 cc 26 	call	0x4d98	; 0x4d98 <__mulsf3>
    27ea:	20 e0       	ldi	r18, 0x00	; 0
    27ec:	30 e0       	ldi	r19, 0x00	; 0
    27ee:	4a e7       	ldi	r20, 0x7A	; 122
    27f0:	54 e4       	ldi	r21, 0x44	; 68
    27f2:	0e 94 dd 24 	call	0x49ba	; 0x49ba <__divsf3>
    27f6:	20 91 33 05 	lds	r18, 0x0533	; 0x800533 <pid+0xc>
    27fa:	30 91 34 05 	lds	r19, 0x0534	; 0x800534 <pid+0xd>
    27fe:	40 91 35 05 	lds	r20, 0x0535	; 0x800535 <pid+0xe>
    2802:	50 91 36 05 	lds	r21, 0x0536	; 0x800536 <pid+0xf>
    2806:	0e 94 6c 24 	call	0x48d8	; 0x48d8 <__addsf3>
    280a:	4b 01       	movw	r8, r22
    280c:	5c 01       	movw	r10, r24
    280e:	80 92 33 05 	sts	0x0533, r8	; 0x800533 <pid+0xc>
    2812:	90 92 34 05 	sts	0x0534, r9	; 0x800534 <pid+0xd>
    2816:	a0 92 35 05 	sts	0x0535, r10	; 0x800535 <pid+0xe>
    281a:	b0 92 36 05 	sts	0x0536, r11	; 0x800536 <pid+0xf>
c:\Users\admin\Documents\Arduino\libraries\AutoPID/AutoPID.cpp:62
      //_integral = constrain(_integral, _outputMin/_Ki, _outputMax/_Ki);
      _dError = (_error - _previousError) / _dT / 1000.0;   //derivative
    281e:	a3 01       	movw	r20, r6
    2820:	92 01       	movw	r18, r4
    2822:	c7 01       	movw	r24, r14
    2824:	b6 01       	movw	r22, r12
    2826:	0e 94 6b 24 	call	0x48d6	; 0x48d6 <__subsf3>
    282a:	29 81       	ldd	r18, Y+1	; 0x01
    282c:	3a 81       	ldd	r19, Y+2	; 0x02
    282e:	4b 81       	ldd	r20, Y+3	; 0x03
    2830:	5c 81       	ldd	r21, Y+4	; 0x04
    2832:	0e 94 dd 24 	call	0x49ba	; 0x49ba <__divsf3>
    2836:	20 e0       	ldi	r18, 0x00	; 0
    2838:	30 e0       	ldi	r19, 0x00	; 0
    283a:	4a e7       	ldi	r20, 0x7A	; 122
    283c:	54 e4       	ldi	r21, 0x44	; 68
    283e:	0e 94 dd 24 	call	0x49ba	; 0x49ba <__divsf3>
    2842:	2b 01       	movw	r4, r22
    2844:	3c 01       	movw	r6, r24
    2846:	40 92 5e 05 	sts	0x055E, r4	; 0x80055e <pid+0x37>
    284a:	50 92 5f 05 	sts	0x055F, r5	; 0x80055f <pid+0x38>
    284e:	60 92 60 05 	sts	0x0560, r6	; 0x800560 <pid+0x39>
    2852:	70 92 61 05 	sts	0x0561, r7	; 0x800561 <pid+0x3a>
c:\Users\admin\Documents\Arduino\libraries\AutoPID/AutoPID.cpp:63
      _previousError = _error;
    2856:	c0 92 37 05 	sts	0x0537, r12	; 0x800537 <pid+0x10>
    285a:	d0 92 38 05 	sts	0x0538, r13	; 0x800538 <pid+0x11>
    285e:	e0 92 39 05 	sts	0x0539, r14	; 0x800539 <pid+0x12>
    2862:	f0 92 3a 05 	sts	0x053A, r15	; 0x80053a <pid+0x13>
c:\Users\admin\Documents\Arduino\libraries\AutoPID/AutoPID.cpp:64
      double PID = (_Kp * _error) + (_Ki * _integral) + (_Kd * _dError);
    2866:	20 91 27 05 	lds	r18, 0x0527	; 0x800527 <pid>
    286a:	30 91 28 05 	lds	r19, 0x0528	; 0x800528 <pid+0x1>
    286e:	40 91 29 05 	lds	r20, 0x0529	; 0x800529 <pid+0x2>
    2872:	50 91 2a 05 	lds	r21, 0x052A	; 0x80052a <pid+0x3>
    2876:	c7 01       	movw	r24, r14
    2878:	b6 01       	movw	r22, r12
    287a:	0e 94 cc 26 	call	0x4d98	; 0x4d98 <__mulsf3>
    287e:	6b 01       	movw	r12, r22
    2880:	7c 01       	movw	r14, r24
    2882:	20 91 2b 05 	lds	r18, 0x052B	; 0x80052b <pid+0x4>
    2886:	30 91 2c 05 	lds	r19, 0x052C	; 0x80052c <pid+0x5>
    288a:	40 91 2d 05 	lds	r20, 0x052D	; 0x80052d <pid+0x6>
    288e:	50 91 2e 05 	lds	r21, 0x052E	; 0x80052e <pid+0x7>
    2892:	c5 01       	movw	r24, r10
    2894:	b4 01       	movw	r22, r8
    2896:	0e 94 cc 26 	call	0x4d98	; 0x4d98 <__mulsf3>
    289a:	9b 01       	movw	r18, r22
    289c:	ac 01       	movw	r20, r24
    289e:	c7 01       	movw	r24, r14
    28a0:	b6 01       	movw	r22, r12
    28a2:	0e 94 6c 24 	call	0x48d8	; 0x48d8 <__addsf3>
    28a6:	6b 01       	movw	r12, r22
    28a8:	7c 01       	movw	r14, r24
    28aa:	20 91 2f 05 	lds	r18, 0x052F	; 0x80052f <pid+0x8>
    28ae:	30 91 30 05 	lds	r19, 0x0530	; 0x800530 <pid+0x9>
    28b2:	40 91 31 05 	lds	r20, 0x0531	; 0x800531 <pid+0xa>
    28b6:	50 91 32 05 	lds	r21, 0x0532	; 0x800532 <pid+0xb>
    28ba:	c3 01       	movw	r24, r6
    28bc:	b2 01       	movw	r22, r4
    28be:	0e 94 cc 26 	call	0x4d98	; 0x4d98 <__mulsf3>
    28c2:	9b 01       	movw	r18, r22
    28c4:	ac 01       	movw	r20, r24
    28c6:	c7 01       	movw	r24, r14
    28c8:	b6 01       	movw	r22, r12
    28ca:	0e 94 6c 24 	call	0x48d8	; 0x48d8 <__addsf3>
    28ce:	4b 01       	movw	r8, r22
    28d0:	5c 01       	movw	r10, r24
constrain():
C:\Users\admin\AppData\Local\Arduino15\packages\MegaCore\hardware\avr\3.0.0\cores\MCUdude_corefiles/Arduino.h:345
    return rad * RAD_TO_DEG;
  }

  template<class T, class L, class H>
	auto constrain(const T& x, const L& l, const H& h) -> decltype((x < l) ? l : (x > h) ? h : x) {
		return (x < l) ? l : (x > h) ? h : x;
    28d2:	c0 90 49 05 	lds	r12, 0x0549	; 0x800549 <pid+0x22>
    28d6:	d0 90 4a 05 	lds	r13, 0x054A	; 0x80054a <pid+0x23>
    28da:	e0 90 4b 05 	lds	r14, 0x054B	; 0x80054b <pid+0x24>
    28de:	f0 90 4c 05 	lds	r15, 0x054C	; 0x80054c <pid+0x25>
    28e2:	96 01       	movw	r18, r12
    28e4:	a7 01       	movw	r20, r14
    28e6:	0e 94 d8 24 	call	0x49b0	; 0x49b0 <__cmpsf2>
    28ea:	87 fd       	sbrc	r24, 7
    28ec:	12 c0       	rjmp	.+36     	; 0x2912 <tickHeater()+0x3e8>
    28ee:	c0 90 4d 05 	lds	r12, 0x054D	; 0x80054d <pid+0x26>
    28f2:	d0 90 4e 05 	lds	r13, 0x054E	; 0x80054e <pid+0x27>
    28f6:	e0 90 4f 05 	lds	r14, 0x054F	; 0x80054f <pid+0x28>
    28fa:	f0 90 50 05 	lds	r15, 0x0550	; 0x800550 <pid+0x29>
    28fe:	96 01       	movw	r18, r12
    2900:	a7 01       	movw	r20, r14
    2902:	b4 01       	movw	r22, r8
    2904:	c5 01       	movw	r24, r10
    2906:	0e 94 c7 26 	call	0x4d8e	; 0x4d8e <__gesf2>
    290a:	18 16       	cp	r1, r24
    290c:	14 f0       	brlt	.+4      	; 0x2912 <tickHeater()+0x3e8>
_Z10tickHeaterv():
    290e:	64 01       	movw	r12, r8
    2910:	75 01       	movw	r14, r10
run():
c:\Users\admin\Documents\Arduino\libraries\AutoPID/AutoPID.cpp:66
      //*_output = _outputMin + (constrain(PID, 0, 1) * (_outputMax - _outputMin));
      *_output = constrain(PID, _outputMin, _outputMax);
    2912:	e0 91 47 05 	lds	r30, 0x0547	; 0x800547 <pid+0x20>
    2916:	f0 91 48 05 	lds	r31, 0x0548	; 0x800548 <pid+0x21>
    291a:	c6 01       	movw	r24, r12
    291c:	d7 01       	movw	r26, r14
    291e:	80 83       	st	Z, r24
    2920:	91 83       	std	Z+1, r25	; 0x01
    2922:	a2 83       	std	Z+2, r26	; 0x02
    2924:	b3 83       	std	Z+3, r27	; 0x03
    2926:	8e ce       	rjmp	.-740    	; 0x2644 <tickHeater()+0x11a>
_Z10tickHeaterv():
C:\Users\admin\Documents\Github\marketforge\MarketForge_Control/MarketForge_Control.ino:386
    if (heater > heater_counter) {
      digitalWrite(HEATER1, HEATER_ON);
      // digitalWrite(HEATER2, HEATER_ON);
      // digitalWrite(HEATER3, HEATER_ON);
    } else {
      digitalWrite(HEATER1, HEATER_OFF);
    2928:	60 e0       	ldi	r22, 0x00	; 0
    292a:	a7 ce       	rjmp	.-690    	; 0x267a <tickHeater()+0x150>
C:\Users\admin\Documents\Github\marketforge\MarketForge_Control/MarketForge_Control.ino:401
  }

  heater_counter++;

  if (heater_counter > 100) {
    heater_counter = 0;
    292c:	10 92 24 03 	sts	0x0324, r1	; 0x800324 <tickHeater()::heater_counter>
    2930:	af ce       	rjmp	.-674    	; 0x2690 <tickHeater()+0x166>

00002932 <VFD_NEC_FC20X2::Print(char*, unsigned char) [clone .constprop.51]>:
_ZN14VFD_NEC_FC20X25PrintEPch.constprop.51():
c:\Users\admin\Documents\Arduino\libraries\VFD_NEC_FC20X2/vfd_nec_fc20x2.h:43

        void ClearDisplay() {
            _serPort->write(CLEAR_DISPLAY);
        }

        int  Print(char *text, uint8_t pos) {
    2932:	1f 93       	push	r17
    2934:	cf 93       	push	r28
    2936:	df 93       	push	r29
    2938:	ec 01       	movw	r28, r24
    293a:	16 2f       	mov	r17, r22
c:\Users\admin\Documents\Arduino\libraries\VFD_NEC_FC20X2/vfd_nec_fc20x2.h:44
            _serPort->write(ESCAPE);
    293c:	80 91 a9 03 	lds	r24, 0x03A9	; 0x8003a9 <vfd>
    2940:	90 91 aa 03 	lds	r25, 0x03AA	; 0x8003aa <vfd+0x1>
    2944:	dc 01       	movw	r26, r24
    2946:	ed 91       	ld	r30, X+
    2948:	fc 91       	ld	r31, X
    294a:	01 90       	ld	r0, Z+
    294c:	f0 81       	ld	r31, Z
    294e:	e0 2d       	mov	r30, r0
    2950:	6b e1       	ldi	r22, 0x1B	; 27
    2952:	19 95       	eicall
c:\Users\admin\Documents\Arduino\libraries\VFD_NEC_FC20X2/vfd_nec_fc20x2.h:45
            _serPort->write(pos);
    2954:	80 91 a9 03 	lds	r24, 0x03A9	; 0x8003a9 <vfd>
    2958:	90 91 aa 03 	lds	r25, 0x03AA	; 0x8003aa <vfd+0x1>
    295c:	dc 01       	movw	r26, r24
    295e:	ed 91       	ld	r30, X+
    2960:	fc 91       	ld	r31, X
    2962:	01 90       	ld	r0, Z+
    2964:	f0 81       	ld	r31, Z
    2966:	e0 2d       	mov	r30, r0
    2968:	61 2f       	mov	r22, r17
    296a:	19 95       	eicall
c:\Users\admin\Documents\Arduino\libraries\VFD_NEC_FC20X2/vfd_nec_fc20x2.h:46
            _serPort->print((char *)text);
    296c:	80 91 a9 03 	lds	r24, 0x03A9	; 0x8003a9 <vfd>
    2970:	90 91 aa 03 	lds	r25, 0x03AA	; 0x8003aa <vfd+0x1>
write():
C:\Users\admin\AppData\Local\Arduino15\packages\MegaCore\hardware\avr\3.0.0\cores\MCUdude_corefiles/Print.h:54
    void clearWriteError() { setWriteError(0); }

    virtual size_t write(uint8_t) = 0;
    size_t write(const char *str) {
      if (str == NULL) return 0;
      return write((const uint8_t *)str, strlen(str));
    2974:	fe 01       	movw	r30, r28
    2976:	01 90       	ld	r0, Z+
    2978:	00 20       	and	r0, r0
    297a:	e9 f7       	brne	.-6      	; 0x2976 <VFD_NEC_FC20X2::Print(char*, unsigned char) [clone .constprop.51]+0x44>
    297c:	31 97       	sbiw	r30, 0x01	; 1
    297e:	af 01       	movw	r20, r30
    2980:	4c 1b       	sub	r20, r28
    2982:	5d 0b       	sbc	r21, r29
    2984:	dc 01       	movw	r26, r24
    2986:	ed 91       	ld	r30, X+
    2988:	fc 91       	ld	r31, X
    298a:	02 80       	ldd	r0, Z+2	; 0x02
    298c:	f3 81       	ldd	r31, Z+3	; 0x03
    298e:	e0 2d       	mov	r30, r0
    2990:	be 01       	movw	r22, r28
_ZN14VFD_NEC_FC20X25PrintEPch.constprop.51():
c:\Users\admin\Documents\Arduino\libraries\VFD_NEC_FC20X2/vfd_nec_fc20x2.h:47
        }
    2992:	df 91       	pop	r29
    2994:	cf 91       	pop	r28
    2996:	1f 91       	pop	r17
write():
C:\Users\admin\AppData\Local\Arduino15\packages\MegaCore\hardware\avr\3.0.0\cores\MCUdude_corefiles/Print.h:54
    2998:	19 94       	eijmp

0000299a <double& EEPROMClass::get<double>(int, double&) [clone .isra.2]>:
_ZN11EEPROMClass3getIdEERT_iS2_.isra.2():
C:\Users\admin\AppData\Local\Arduino15\packages\MegaCore\hardware\avr\3.0.0\libraries\EEPROM\src/EEPROM.h:130
    EEPtr begin()                        { return 0x00; }
    EEPtr end()                          { return length(); } //Standards requires this to be the item after the last valid entry. The returned pointer is invalid.
    uint16_t length()                    { return E2END + 1; }

    //Functionality to 'get' and 'put' objects to and from EEPROM.
    template< typename T > T &get( int idx, T &t ){
    299a:	cf 92       	push	r12
    299c:	df 92       	push	r13
    299e:	ef 92       	push	r14
    29a0:	ff 92       	push	r15
    29a2:	0f 93       	push	r16
    29a4:	1f 93       	push	r17
    29a6:	cf 93       	push	r28
    29a8:	df 93       	push	r29
    29aa:	eb 01       	movw	r28, r22
    29ac:	7b 01       	movw	r14, r22
    29ae:	24 e0       	ldi	r18, 0x04	; 4
    29b0:	e2 0e       	add	r14, r18
    29b2:	f1 1c       	adc	r15, r1
    29b4:	8b 01       	movw	r16, r22
operator*():
C:\Users\admin\AppData\Local\Arduino15\packages\MegaCore\hardware\avr\3.0.0\libraries\EEPROM\src/EEPROM.h:42

    EERef( const int index )
        : index( index )                 {}

    //Access/read members.
    uint8_t operator*() const            { return eeprom_read_byte( (uint8_t*) index ); }
    29b6:	6c 01       	movw	r12, r24
    29b8:	c6 1a       	sub	r12, r22
    29ba:	d7 0a       	sbc	r13, r23
    29bc:	c6 01       	movw	r24, r12
    29be:	80 0f       	add	r24, r16
    29c0:	91 1f       	adc	r25, r17
    29c2:	0e 94 63 24 	call	0x48c6	; 0x48c6 <eeprom_read_byte>
_ZN11EEPROMClass3getIdEERT_iS2_.isra.2():
C:\Users\admin\AppData\Local\Arduino15\packages\MegaCore\hardware\avr\3.0.0\libraries\EEPROM\src/EEPROM.h:133

    //Functionality to 'get' and 'put' objects to and from EEPROM.
    template< typename T > T &get( int idx, T &t ){
        EEPtr e = idx;
        uint8_t *ptr = (uint8_t*) &t;
        for( int count = sizeof(T) ; count ; --count, ++e )  *ptr++ = *e;
    29c6:	f8 01       	movw	r30, r16
    29c8:	81 93       	st	Z+, r24
    29ca:	8f 01       	movw	r16, r30
    29cc:	ee 15       	cp	r30, r14
    29ce:	ff 05       	cpc	r31, r15
    29d0:	a9 f7       	brne	.-22     	; 0x29bc <double& EEPROMClass::get<double>(int, double&) [clone .isra.2]+0x22>
C:\Users\admin\AppData\Local\Arduino15\packages\MegaCore\hardware\avr\3.0.0\libraries\EEPROM\src/EEPROM.h:135
        return t;
    }
    29d2:	ce 01       	movw	r24, r28
    29d4:	df 91       	pop	r29
    29d6:	cf 91       	pop	r28
    29d8:	1f 91       	pop	r17
    29da:	0f 91       	pop	r16
    29dc:	ff 90       	pop	r15
    29de:	ef 90       	pop	r14
    29e0:	df 90       	pop	r13
    29e2:	cf 90       	pop	r12
    29e4:	08 95       	ret

000029e6 <sprintf_>:
sprintf_():
c:\users\admin\documents\arduino\libraries\libprintf\extras\printf/printf.c:1134
  return ret;
}


int sprintf_(char* buffer, const char* format, ...)
{
    29e6:	2f 92       	push	r2
    29e8:	3f 92       	push	r3
    29ea:	4f 92       	push	r4
    29ec:	5f 92       	push	r5
    29ee:	6f 92       	push	r6
    29f0:	7f 92       	push	r7
    29f2:	8f 92       	push	r8
    29f4:	9f 92       	push	r9
    29f6:	af 92       	push	r10
    29f8:	bf 92       	push	r11
    29fa:	cf 92       	push	r12
    29fc:	df 92       	push	r13
    29fe:	ef 92       	push	r14
    2a00:	ff 92       	push	r15
    2a02:	0f 93       	push	r16
    2a04:	1f 93       	push	r17
    2a06:	cf 93       	push	r28
    2a08:	df 93       	push	r29
    2a0a:	cd b7       	in	r28, 0x3d	; 61
    2a0c:	de b7       	in	r29, 0x3e	; 62
    2a0e:	2c 97       	sbiw	r28, 0x0c	; 12
    2a10:	0f b6       	in	r0, 0x3f	; 63
    2a12:	f8 94       	cli
    2a14:	de bf       	out	0x3e, r29	; 62
    2a16:	0f be       	out	0x3f, r0	; 63
    2a18:	cd bf       	out	0x3d, r28	; 61
c:\users\admin\documents\arduino\libraries\libprintf\extras\printf/printf.c:1136
  va_list va;
  va_start(va, format);
    2a1a:	8e 01       	movw	r16, r28
    2a1c:	0a 5d       	subi	r16, 0xDA	; 218
    2a1e:	1f 4f       	sbci	r17, 0xFF	; 255
c:\users\admin\documents\arduino\libraries\libprintf\extras\printf/printf.c:1137
  const int ret = _vsnprintf(out_buffer, buffer, (size_t)-1, format, va);
    2a20:	31 2c       	mov	r3, r1
    2a22:	21 2c       	mov	r2, r1
_vsnprintf():
c:\users\admin\documents\arduino\libraries\libprintf\extras\printf/printf.c:834
  if (!buffer) {
    // use null output function
    out = out_discard;
  }

  while (*format)
    2a24:	ac a1       	ldd	r26, Y+36	; 0x24
    2a26:	bd a1       	ldd	r27, Y+37	; 0x25
    2a28:	8c 91       	ld	r24, X
    2a2a:	88 23       	and	r24, r24
    2a2c:	09 f4       	brne	.+2      	; 0x2a30 <sprintf_+0x4a>
    2a2e:	cf c3       	rjmp	.+1950   	; 0x31ce <sprintf_+0x7e8>
    2a30:	11 96       	adiw	r26, 0x01	; 1
    2a32:	bd a3       	std	Y+37, r27	; 0x25
    2a34:	ac a3       	std	Y+36, r26	; 0x24
c:\users\admin\documents\arduino\libraries\libprintf\extras\printf/printf.c:837
  {
    // format specifier?  %[flags][width][.precision][length]
    if (*format != '%') {
    2a36:	85 32       	cpi	r24, 0x25	; 37
    2a38:	51 f0       	breq	.+20     	; 0x2a4e <sprintf_+0x68>
c:\users\admin\documents\arduino\libraries\libprintf\extras\printf/printf.c:1106
        break;
      }
#endif // PRINTF_SUPPORT_WRITEBACK_SPECIFIER

      default :
        out(*format, buffer, idx++, maxlen);
    2a3a:	71 01       	movw	r14, r2
    2a3c:	bf ef       	ldi	r27, 0xFF	; 255
    2a3e:	eb 1a       	sub	r14, r27
    2a40:	fb 0a       	sbc	r15, r27
    2a42:	2f ef       	ldi	r18, 0xFF	; 255
    2a44:	3f ef       	ldi	r19, 0xFF	; 255
    2a46:	a1 01       	movw	r20, r2
    2a48:	6a a1       	ldd	r22, Y+34	; 0x22
    2a4a:	7b a1       	ldd	r23, Y+35	; 0x23
    2a4c:	d1 c0       	rjmp	.+418    	; 0x2bf0 <sprintf_+0x20a>
sprintf_():
c:\users\admin\documents\arduino\libraries\libprintf\extras\printf/printf.c:849
      // yes, evaluate it
      format++;
    }

    // evaluate flags
    flags = 0U;
    2a4e:	b1 2c       	mov	r11, r1
    2a50:	a1 2c       	mov	r10, r1
    2a52:	08 c0       	rjmp	.+16     	; 0x2a64 <sprintf_+0x7e>
_vsnprintf():
c:\users\admin\documents\arduino\libraries\libprintf\extras\printf/printf.c:851
    do {
      switch (*format) {
    2a54:	8d 32       	cpi	r24, 0x2D	; 45
    2a56:	71 f1       	breq	.+92     	; 0x2ab4 <sprintf_+0xce>
    2a58:	80 33       	cpi	r24, 0x30	; 48
    2a5a:	71 f4       	brne	.+28     	; 0x2a78 <sprintf_+0x92>
c:\users\admin\documents\arduino\libraries\libprintf\extras\printf/printf.c:852
        case '0': flags |= FLAGS_ZEROPAD; format++; n = 1U; break;
    2a5c:	68 94       	set
    2a5e:	a0 f8       	bld	r10, 0
sprintf_():
c:\users\admin\documents\arduino\libraries\libprintf\extras\printf/printf.c:1137

int sprintf_(char* buffer, const char* format, ...)
{
  va_list va;
  va_start(va, format);
  const int ret = _vsnprintf(out_buffer, buffer, (size_t)-1, format, va);
    2a60:	fd a3       	std	Y+37, r31	; 0x25
    2a62:	ec a3       	std	Y+36, r30	; 0x24
_vsnprintf():
c:\users\admin\documents\arduino\libraries\libprintf\extras\printf/printf.c:851
    }

    // evaluate flags
    flags = 0U;
    do {
      switch (*format) {
    2a64:	ec a1       	ldd	r30, Y+36	; 0x24
    2a66:	fd a1       	ldd	r31, Y+37	; 0x25
    2a68:	81 91       	ld	r24, Z+
    2a6a:	8b 32       	cpi	r24, 0x2B	; 43
    2a6c:	31 f1       	breq	.+76     	; 0x2aba <sprintf_+0xd4>
    2a6e:	94 f7       	brge	.-28     	; 0x2a54 <sprintf_+0x6e>
    2a70:	80 32       	cpi	r24, 0x20	; 32
    2a72:	31 f1       	breq	.+76     	; 0x2ac0 <sprintf_+0xda>
    2a74:	83 32       	cpi	r24, 0x23	; 35
    2a76:	39 f1       	breq	.+78     	; 0x2ac6 <sprintf_+0xe0>
is_digit_():
c:\users\admin\documents\arduino\libraries\libprintf\extras\printf/printf.c:276

// internal test if char is a digit (0-9)
// @return true if char is a digit
static inline bool is_digit_(char ch)
{
  return (ch >= '0') && (ch <= '9');
    2a78:	90 ed       	ldi	r25, 0xD0	; 208
    2a7a:	98 0f       	add	r25, r24
_vsnprintf():
c:\users\admin\documents\arduino\libraries\libprintf\extras\printf/printf.c:863
      }
    } while (n);

    // evaluate width field
    width = 0U;
    if (is_digit_(*format)) {
    2a7c:	9a 30       	cpi	r25, 0x0A	; 10
    2a7e:	30 f5       	brcc	.+76     	; 0x2acc <sprintf_+0xe6>
sprintf_():
c:\users\admin\documents\arduino\libraries\libprintf\extras\printf/printf.c:283


// internal ASCII string to unsigned int conversion
static unsigned int atoi_(const char** str)
{
  unsigned int i = 0U;
    2a80:	71 2c       	mov	r7, r1
    2a82:	61 2c       	mov	r6, r1
atoi_():
c:\users\admin\documents\arduino\libraries\libprintf\extras\printf/printf.c:284
  while (is_digit_(**str)) {
    2a84:	ec a1       	ldd	r30, Y+36	; 0x24
    2a86:	fd a1       	ldd	r31, Y+37	; 0x25
    2a88:	81 91       	ld	r24, Z+
is_digit_():
c:\users\admin\documents\arduino\libraries\libprintf\extras\printf/printf.c:276

// internal test if char is a digit (0-9)
// @return true if char is a digit
static inline bool is_digit_(char ch)
{
  return (ch >= '0') && (ch <= '9');
    2a8a:	90 ed       	ldi	r25, 0xD0	; 208
    2a8c:	98 0f       	add	r25, r24
atoi_():
c:\users\admin\documents\arduino\libraries\libprintf\extras\printf/printf.c:284

// internal ASCII string to unsigned int conversion
static unsigned int atoi_(const char** str)
{
  unsigned int i = 0U;
  while (is_digit_(**str)) {
    2a8e:	9a 30       	cpi	r25, 0x0A	; 10
    2a90:	80 f5       	brcc	.+96     	; 0x2af2 <sprintf_+0x10c>
c:\users\admin\documents\arduino\libraries\libprintf\extras\printf/printf.c:285
    i = i * 10U + (unsigned int)(*((*str)++) - '0');
    2a92:	2a e0       	ldi	r18, 0x0A	; 10
    2a94:	26 9d       	mul	r18, r6
    2a96:	70 01       	movw	r14, r0
    2a98:	27 9d       	mul	r18, r7
    2a9a:	f0 0c       	add	r15, r0
    2a9c:	11 24       	eor	r1, r1
    2a9e:	30 e3       	ldi	r19, 0x30	; 48
    2aa0:	e3 1a       	sub	r14, r19
    2aa2:	f1 08       	sbc	r15, r1
    2aa4:	37 01       	movw	r6, r14
    2aa6:	68 0e       	add	r6, r24
    2aa8:	71 1c       	adc	r7, r1
    2aaa:	87 fd       	sbrc	r24, 7
    2aac:	7a 94       	dec	r7
    2aae:	fd a3       	std	Y+37, r31	; 0x25
    2ab0:	ec a3       	std	Y+36, r30	; 0x24
    2ab2:	e8 cf       	rjmp	.-48     	; 0x2a84 <sprintf_+0x9e>
_vsnprintf():
c:\users\admin\documents\arduino\libraries\libprintf\extras\printf/printf.c:853
    // evaluate flags
    flags = 0U;
    do {
      switch (*format) {
        case '0': flags |= FLAGS_ZEROPAD; format++; n = 1U; break;
        case '-': flags |= FLAGS_LEFT;    format++; n = 1U; break;
    2ab4:	68 94       	set
    2ab6:	a1 f8       	bld	r10, 1
    2ab8:	d3 cf       	rjmp	.-90     	; 0x2a60 <sprintf_+0x7a>
c:\users\admin\documents\arduino\libraries\libprintf\extras\printf/printf.c:854
        case '+': flags |= FLAGS_PLUS;    format++; n = 1U; break;
    2aba:	68 94       	set
    2abc:	a2 f8       	bld	r10, 2
    2abe:	d0 cf       	rjmp	.-96     	; 0x2a60 <sprintf_+0x7a>
c:\users\admin\documents\arduino\libraries\libprintf\extras\printf/printf.c:855
        case ' ': flags |= FLAGS_SPACE;   format++; n = 1U; break;
    2ac0:	68 94       	set
    2ac2:	a3 f8       	bld	r10, 3
    2ac4:	cd cf       	rjmp	.-102    	; 0x2a60 <sprintf_+0x7a>
c:\users\admin\documents\arduino\libraries\libprintf\extras\printf/printf.c:856
        case '#': flags |= FLAGS_HASH;    format++; n = 1U; break;
    2ac6:	68 94       	set
    2ac8:	a4 f8       	bld	r10, 4
    2aca:	ca cf       	rjmp	.-108    	; 0x2a60 <sprintf_+0x7a>
sprintf_():
c:\users\admin\documents\arduino\libraries\libprintf\extras\printf/printf.c:862
        default :                                   n = 0U; break;
      }
    } while (n);

    // evaluate width field
    width = 0U;
    2acc:	71 2c       	mov	r7, r1
    2ace:	61 2c       	mov	r6, r1
_vsnprintf():
c:\users\admin\documents\arduino\libraries\libprintf\extras\printf/printf.c:866
    if (is_digit_(*format)) {
      width = atoi_(&format);
    }
    else if (*format == '*') {
    2ad0:	8a 32       	cpi	r24, 0x2A	; 42
    2ad2:	79 f4       	brne	.+30     	; 0x2af2 <sprintf_+0x10c>
c:\users\admin\documents\arduino\libraries\libprintf\extras\printf/printf.c:867
      const int w = va_arg(va, int);
    2ad4:	c8 01       	movw	r24, r16
    2ad6:	02 96       	adiw	r24, 0x02	; 2
    2ad8:	d8 01       	movw	r26, r16
    2ada:	6d 90       	ld	r6, X+
    2adc:	7c 90       	ld	r7, X
c:\users\admin\documents\arduino\libraries\libprintf\extras\printf/printf.c:868
      if (w < 0) {
    2ade:	77 fe       	sbrs	r7, 7
    2ae0:	05 c0       	rjmp	.+10     	; 0x2aec <sprintf_+0x106>
c:\users\admin\documents\arduino\libraries\libprintf\extras\printf/printf.c:869
        flags |= FLAGS_LEFT;    // reverse padding
    2ae2:	68 94       	set
    2ae4:	a1 f8       	bld	r10, 1
c:\users\admin\documents\arduino\libraries\libprintf\extras\printf/printf.c:870
        width = (unsigned int)-w;
    2ae6:	71 94       	neg	r7
    2ae8:	61 94       	neg	r6
    2aea:	71 08       	sbc	r7, r1
c:\users\admin\documents\arduino\libraries\libprintf\extras\printf/printf.c:867
    width = 0U;
    if (is_digit_(*format)) {
      width = atoi_(&format);
    }
    else if (*format == '*') {
      const int w = va_arg(va, int);
    2aec:	8c 01       	movw	r16, r24
    2aee:	fd a3       	std	Y+37, r31	; 0x25
    2af0:	ec a3       	std	Y+36, r30	; 0x24
c:\users\admin\documents\arduino\libraries\libprintf\extras\printf/printf.c:880
      format++;
    }

    // evaluate precision field
    precision = 0U;
    if (*format == '.') {
    2af2:	ec a1       	ldd	r30, Y+36	; 0x24
    2af4:	fd a1       	ldd	r31, Y+37	; 0x25
    2af6:	80 81       	ld	r24, Z
    2af8:	8e 32       	cpi	r24, 0x2E	; 46
    2afa:	09 f0       	breq	.+2      	; 0x2afe <sprintf_+0x118>
    2afc:	49 c0       	rjmp	.+146    	; 0x2b90 <sprintf_+0x1aa>
    2afe:	cf 01       	movw	r24, r30
    2b00:	01 96       	adiw	r24, 0x01	; 1
c:\users\admin\documents\arduino\libraries\libprintf\extras\printf/printf.c:881
      flags |= FLAGS_PRECISION;
    2b02:	68 94       	set
    2b04:	b2 f8       	bld	r11, 2
c:\users\admin\documents\arduino\libraries\libprintf\extras\printf/printf.c:883
      format++;
      if (is_digit_(*format)) {
    2b06:	21 81       	ldd	r18, Z+1	; 0x01
is_digit_():
c:\users\admin\documents\arduino\libraries\libprintf\extras\printf/printf.c:276

// internal test if char is a digit (0-9)
// @return true if char is a digit
static inline bool is_digit_(char ch)
{
  return (ch >= '0') && (ch <= '9');
    2b08:	30 ed       	ldi	r19, 0xD0	; 208
    2b0a:	32 0f       	add	r19, r18
_vsnprintf():
c:\users\admin\documents\arduino\libraries\libprintf\extras\printf/printf.c:883
    // evaluate precision field
    precision = 0U;
    if (*format == '.') {
      flags |= FLAGS_PRECISION;
      format++;
      if (is_digit_(*format)) {
    2b0c:	3a 30       	cpi	r19, 0x0A	; 10
    2b0e:	c0 f4       	brcc	.+48     	; 0x2b40 <sprintf_+0x15a>
sprintf_():
c:\users\admin\documents\arduino\libraries\libprintf\extras\printf/printf.c:283


// internal ASCII string to unsigned int conversion
static unsigned int atoi_(const char** str)
{
  unsigned int i = 0U;
    2b10:	51 2c       	mov	r5, r1
    2b12:	41 2c       	mov	r4, r1
atoi_():
c:\users\admin\documents\arduino\libraries\libprintf\extras\printf/printf.c:284
  while (is_digit_(**str)) {
    2b14:	fc 01       	movw	r30, r24
    2b16:	21 91       	ld	r18, Z+
is_digit_():
c:\users\admin\documents\arduino\libraries\libprintf\extras\printf/printf.c:276

// internal test if char is a digit (0-9)
// @return true if char is a digit
static inline bool is_digit_(char ch)
{
  return (ch >= '0') && (ch <= '9');
    2b18:	30 ed       	ldi	r19, 0xD0	; 208
    2b1a:	32 0f       	add	r19, r18
atoi_():
c:\users\admin\documents\arduino\libraries\libprintf\extras\printf/printf.c:284

// internal ASCII string to unsigned int conversion
static unsigned int atoi_(const char** str)
{
  unsigned int i = 0U;
  while (is_digit_(**str)) {
    2b1c:	3a 30       	cpi	r19, 0x0A	; 10
    2b1e:	98 f5       	brcc	.+102    	; 0x2b86 <sprintf_+0x1a0>
c:\users\admin\documents\arduino\libraries\libprintf\extras\printf/printf.c:285
    i = i * 10U + (unsigned int)(*((*str)++) - '0');
    2b20:	3a e0       	ldi	r19, 0x0A	; 10
    2b22:	34 9d       	mul	r19, r4
    2b24:	70 01       	movw	r14, r0
    2b26:	35 9d       	mul	r19, r5
    2b28:	f0 0c       	add	r15, r0
    2b2a:	11 24       	eor	r1, r1
    2b2c:	80 e3       	ldi	r24, 0x30	; 48
    2b2e:	e8 1a       	sub	r14, r24
    2b30:	f1 08       	sbc	r15, r1
    2b32:	27 01       	movw	r4, r14
    2b34:	42 0e       	add	r4, r18
    2b36:	51 1c       	adc	r5, r1
    2b38:	27 fd       	sbrc	r18, 7
    2b3a:	5a 94       	dec	r5
    2b3c:	cf 01       	movw	r24, r30
    2b3e:	ea cf       	rjmp	.-44     	; 0x2b14 <sprintf_+0x12e>
_vsnprintf():
c:\users\admin\documents\arduino\libraries\libprintf\extras\printf/printf.c:886
      flags |= FLAGS_PRECISION;
      format++;
      if (is_digit_(*format)) {
        precision = atoi_(&format);
      }
      else if (*format == '*') {
    2b40:	2a 32       	cpi	r18, 0x2A	; 42
    2b42:	21 f5       	brne	.+72     	; 0x2b8c <sprintf_+0x1a6>
c:\users\admin\documents\arduino\libraries\libprintf\extras\printf/printf.c:887
        const int precision_ = (int)va_arg(va, int);
    2b44:	c8 01       	movw	r24, r16
    2b46:	02 96       	adiw	r24, 0x02	; 2
c:\users\admin\documents\arduino\libraries\libprintf\extras\printf/printf.c:888
        precision = precision_ > 0 ? (unsigned int)precision_ : 0U;
    2b48:	d8 01       	movw	r26, r16
    2b4a:	4d 90       	ld	r4, X+
    2b4c:	5c 90       	ld	r5, X
    2b4e:	57 fe       	sbrs	r5, 7
    2b50:	02 c0       	rjmp	.+4      	; 0x2b56 <sprintf_+0x170>
    2b52:	51 2c       	mov	r5, r1
    2b54:	41 2c       	mov	r4, r1
c:\users\admin\documents\arduino\libraries\libprintf\extras\printf/printf.c:889
        format++;
    2b56:	ec a1       	ldd	r30, Y+36	; 0x24
    2b58:	fd a1       	ldd	r31, Y+37	; 0x25
    2b5a:	32 96       	adiw	r30, 0x02	; 2
    2b5c:	fd a3       	std	Y+37, r31	; 0x25
    2b5e:	ec a3       	std	Y+36, r30	; 0x24
c:\users\admin\documents\arduino\libraries\libprintf\extras\printf/printf.c:887
      format++;
      if (is_digit_(*format)) {
        precision = atoi_(&format);
      }
      else if (*format == '*') {
        const int precision_ = (int)va_arg(va, int);
    2b60:	8c 01       	movw	r16, r24
    2b62:	2c a1       	ldd	r18, Y+36	; 0x24
    2b64:	3d a1       	ldd	r19, Y+37	; 0x25
    2b66:	2f 5f       	subi	r18, 0xFF	; 255
    2b68:	3f 4f       	sbci	r19, 0xFF	; 255
c:\users\admin\documents\arduino\libraries\libprintf\extras\printf/printf.c:894
        format++;
      }
    }

    // evaluate length field
    switch (*format) {
    2b6a:	ac a1       	ldd	r26, Y+36	; 0x24
    2b6c:	bd a1       	ldd	r27, Y+37	; 0x25
    2b6e:	8c 91       	ld	r24, X
    2b70:	8c 36       	cpi	r24, 0x6C	; 108
    2b72:	c1 f0       	breq	.+48     	; 0x2ba4 <sprintf_+0x1be>
    2b74:	84 f4       	brge	.+32     	; 0x2b96 <sprintf_+0x1b0>
    2b76:	88 36       	cpi	r24, 0x68	; 104
    2b78:	09 f4       	brne	.+2      	; 0x2b7c <sprintf_+0x196>
    2b7a:	45 c0       	rjmp	.+138    	; 0x2c06 <sprintf_+0x220>
    2b7c:	8a 36       	cpi	r24, 0x6A	; 106
    2b7e:	79 f0       	breq	.+30     	; 0x2b9e <sprintf_+0x1b8>
    2b80:	2c a1       	ldd	r18, Y+36	; 0x24
    2b82:	3d a1       	ldd	r19, Y+37	; 0x25
    2b84:	16 c0       	rjmp	.+44     	; 0x2bb2 <sprintf_+0x1cc>
atoi_():
c:\users\admin\documents\arduino\libraries\libprintf\extras\printf/printf.c:284

// internal ASCII string to unsigned int conversion
static unsigned int atoi_(const char** str)
{
  unsigned int i = 0U;
  while (is_digit_(**str)) {
    2b86:	9d a3       	std	Y+37, r25	; 0x25
    2b88:	8c a3       	std	Y+36, r24	; 0x24
    2b8a:	eb cf       	rjmp	.-42     	; 0x2b62 <sprintf_+0x17c>
_vsnprintf():
c:\users\admin\documents\arduino\libraries\libprintf\extras\printf/printf.c:882

    // evaluate precision field
    precision = 0U;
    if (*format == '.') {
      flags |= FLAGS_PRECISION;
      format++;
    2b8c:	9d a3       	std	Y+37, r25	; 0x25
    2b8e:	8c a3       	std	Y+36, r24	; 0x24
sprintf_():
c:\users\admin\documents\arduino\libraries\libprintf\extras\printf/printf.c:879
      }
      format++;
    }

    // evaluate precision field
    precision = 0U;
    2b90:	51 2c       	mov	r5, r1
    2b92:	41 2c       	mov	r4, r1
    2b94:	e6 cf       	rjmp	.-52     	; 0x2b62 <sprintf_+0x17c>
_vsnprintf():
c:\users\admin\documents\arduino\libraries\libprintf\extras\printf/printf.c:894
        format++;
      }
    }

    // evaluate length field
    switch (*format) {
    2b96:	84 37       	cpi	r24, 0x74	; 116
    2b98:	11 f0       	breq	.+4      	; 0x2b9e <sprintf_+0x1b8>
    2b9a:	8a 37       	cpi	r24, 0x7A	; 122
    2b9c:	89 f7       	brne	.-30     	; 0x2b80 <sprintf_+0x19a>
c:\users\admin\documents\arduino\libraries\libprintf\extras\printf/printf.c:920
      case 'j' :
        flags |= (sizeof(intmax_t) == sizeof(long) ? FLAGS_LONG : FLAGS_LONG_LONG);
        format++;
        break;
      case 'z' :
        flags |= (sizeof(size_t) == sizeof(long) ? FLAGS_LONG : FLAGS_LONG_LONG);
    2b9e:	68 94       	set
    2ba0:	b1 f8       	bld	r11, 1
    2ba2:	07 c0       	rjmp	.+14     	; 0x2bb2 <sprintf_+0x1cc>
c:\users\admin\documents\arduino\libraries\libprintf\extras\printf/printf.c:898
    // evaluate length field
    switch (*format) {
      case 'l' :
        flags |= FLAGS_LONG;
        format++;
        if (*format == 'l') {
    2ba4:	ec a1       	ldd	r30, Y+36	; 0x24
    2ba6:	fd a1       	ldd	r31, Y+37	; 0x25
    2ba8:	81 81       	ldd	r24, Z+1	; 0x01
    2baa:	8c 36       	cpi	r24, 0x6C	; 108
    2bac:	29 f1       	breq	.+74     	; 0x2bf8 <sprintf_+0x212>
c:\users\admin\documents\arduino\libraries\libprintf\extras\printf/printf.c:896
    }

    // evaluate length field
    switch (*format) {
      case 'l' :
        flags |= FLAGS_LONG;
    2bae:	68 94       	set
    2bb0:	b0 f8       	bld	r11, 0
c:\users\admin\documents\arduino\libraries\libprintf\extras\printf/printf.c:928
      default:
        break;
    }

    // evaluate specifier
    switch (*format) {
    2bb2:	f9 01       	movw	r30, r18
    2bb4:	81 91       	ld	r24, Z+
    2bb6:	fd a3       	std	Y+37, r31	; 0x25
    2bb8:	ec a3       	std	Y+36, r30	; 0x24
    2bba:	85 36       	cpi	r24, 0x65	; 101
    2bbc:	09 f4       	brne	.+2      	; 0x2bc0 <sprintf_+0x1da>
    2bbe:	df c1       	rjmp	.+958    	; 0x2f7e <sprintf_+0x598>
    2bc0:	0c f0       	brlt	.+2      	; 0x2bc4 <sprintf_+0x1de>
    2bc2:	ab c0       	rjmp	.+342    	; 0x2d1a <sprintf_+0x334>
    2bc4:	87 34       	cpi	r24, 0x47	; 71
    2bc6:	09 f4       	brne	.+2      	; 0x2bca <sprintf_+0x1e4>
    2bc8:	da c1       	rjmp	.+948    	; 0x2f7e <sprintf_+0x598>
    2bca:	4c f5       	brge	.+82     	; 0x2c1e <sprintf_+0x238>
    2bcc:	85 34       	cpi	r24, 0x45	; 69
    2bce:	09 f4       	brne	.+2      	; 0x2bd2 <sprintf_+0x1ec>
    2bd0:	d6 c1       	rjmp	.+940    	; 0x2f7e <sprintf_+0x598>
    2bd2:	0c f0       	brlt	.+2      	; 0x2bd6 <sprintf_+0x1f0>
    2bd4:	b9 c1       	rjmp	.+882    	; 0x2f48 <sprintf_+0x562>
    2bd6:	85 32       	cpi	r24, 0x25	; 37
    2bd8:	09 f0       	breq	.+2      	; 0x2bdc <sprintf_+0x1f6>
    2bda:	2f cf       	rjmp	.-418    	; 0x2a3a <sprintf_+0x54>
c:\users\admin\documents\arduino\libraries\libprintf\extras\printf/printf.c:1084
        format++;
        break;
      }

      case '%' :
        out('%', buffer, idx++, maxlen);
    2bdc:	71 01       	movw	r14, r2
    2bde:	ef ef       	ldi	r30, 0xFF	; 255
    2be0:	ee 1a       	sub	r14, r30
    2be2:	fe 0a       	sbc	r15, r30
    2be4:	2f ef       	ldi	r18, 0xFF	; 255
    2be6:	3f ef       	ldi	r19, 0xFF	; 255
    2be8:	a1 01       	movw	r20, r2
    2bea:	6a a1       	ldd	r22, Y+34	; 0x22
    2bec:	7b a1       	ldd	r23, Y+35	; 0x23
    2bee:	85 e2       	ldi	r24, 0x25	; 37
    2bf0:	0e 94 2c 0a 	call	0x1458	; 0x1458 <out_buffer(char, void*, unsigned int, unsigned int)>
sprintf_():
    2bf4:	17 01       	movw	r2, r14
    2bf6:	16 cf       	rjmp	.-468    	; 0x2a24 <sprintf_+0x3e>
_vsnprintf():
c:\users\admin\documents\arduino\libraries\libprintf\extras\printf/printf.c:899
    switch (*format) {
      case 'l' :
        flags |= FLAGS_LONG;
        format++;
        if (*format == 'l') {
          flags |= FLAGS_LONG_LONG;
    2bf8:	f3 e0       	ldi	r31, 0x03	; 3
    2bfa:	bf 2a       	or	r11, r31
c:\users\admin\documents\arduino\libraries\libprintf\extras\printf/printf.c:908
      case 'h' :
        flags |= FLAGS_SHORT;
        format++;
        if (*format == 'h') {
          flags |= FLAGS_CHAR;
          format++;
    2bfc:	2c a1       	ldd	r18, Y+36	; 0x24
    2bfe:	3d a1       	ldd	r19, Y+37	; 0x25
    2c00:	2e 5f       	subi	r18, 0xFE	; 254
    2c02:	3f 4f       	sbci	r19, 0xFF	; 255
    2c04:	d6 cf       	rjmp	.-84     	; 0x2bb2 <sprintf_+0x1cc>
c:\users\admin\documents\arduino\libraries\libprintf\extras\printf/printf.c:906
        }
        break;
      case 'h' :
        flags |= FLAGS_SHORT;
        format++;
        if (*format == 'h') {
    2c06:	ac a1       	ldd	r26, Y+36	; 0x24
    2c08:	bd a1       	ldd	r27, Y+37	; 0x25
    2c0a:	11 96       	adiw	r26, 0x01	; 1
    2c0c:	8c 91       	ld	r24, X
    2c0e:	88 36       	cpi	r24, 0x68	; 104
    2c10:	19 f0       	breq	.+6      	; 0x2c18 <sprintf_+0x232>
c:\users\admin\documents\arduino\libraries\libprintf\extras\printf/printf.c:904
          flags |= FLAGS_LONG_LONG;
          format++;
        }
        break;
      case 'h' :
        flags |= FLAGS_SHORT;
    2c12:	68 94       	set
    2c14:	a7 f8       	bld	r10, 7
    2c16:	cd cf       	rjmp	.-102    	; 0x2bb2 <sprintf_+0x1cc>
c:\users\admin\documents\arduino\libraries\libprintf\extras\printf/printf.c:907
        format++;
        if (*format == 'h') {
          flags |= FLAGS_CHAR;
    2c18:	b0 ec       	ldi	r27, 0xC0	; 192
    2c1a:	ab 2a       	or	r10, r27
    2c1c:	ef cf       	rjmp	.-34     	; 0x2bfc <sprintf_+0x216>
c:\users\admin\documents\arduino\libraries\libprintf\extras\printf/printf.c:928
      default:
        break;
    }

    // evaluate specifier
    switch (*format) {
    2c1e:	82 36       	cpi	r24, 0x62	; 98
    2c20:	09 f4       	brne	.+2      	; 0x2c24 <sprintf_+0x23e>
    2c22:	00 c3       	rjmp	.+1536   	; 0x3224 <sprintf_+0x83e>
    2c24:	44 f4       	brge	.+16     	; 0x2c36 <sprintf_+0x250>
c:\users\admin\documents\arduino\libraries\libprintf\extras\printf/printf.c:953
          base = BASE_DECIMAL;
          flags &= ~FLAGS_HASH;   // no hash for dec format
        }
        // uppercase
        if (*format == 'X') {
          flags |= FLAGS_UPPERCASE;
    2c26:	68 94       	set
    2c28:	a5 f8       	bld	r10, 5
c:\users\admin\documents\arduino\libraries\libprintf\extras\printf/printf.c:928
      default:
        break;
    }

    // evaluate specifier
    switch (*format) {
    2c2a:	88 35       	cpi	r24, 0x58	; 88
    2c2c:	09 f0       	breq	.+2      	; 0x2c30 <sprintf_+0x24a>
    2c2e:	05 cf       	rjmp	.-502    	; 0x2a3a <sprintf_+0x54>
sprintf_():
c:\users\admin\documents\arduino\libraries\libprintf\extras\printf/printf.c:939
      case 'o' :
      case 'b' : {
        // set the base
        numeric_base_t base;
        if (*format == 'x' || *format == 'X') {
          base = BASE_HEX;
    2c30:	f0 e1       	ldi	r31, 0x10	; 16
    2c32:	8f 2e       	mov	r8, r31
    2c34:	0e c0       	rjmp	.+28     	; 0x2c52 <sprintf_+0x26c>
_vsnprintf():
c:\users\admin\documents\arduino\libraries\libprintf\extras\printf/printf.c:928
      default:
        break;
    }

    // evaluate specifier
    switch (*format) {
    2c36:	83 36       	cpi	r24, 0x63	; 99
    2c38:	09 f4       	brne	.+2      	; 0x2c3c <sprintf_+0x256>
    2c3a:	b8 c1       	rjmp	.+880    	; 0x2fac <sprintf_+0x5c6>
    2c3c:	84 36       	cpi	r24, 0x64	; 100
    2c3e:	09 f0       	breq	.+2      	; 0x2c42 <sprintf_+0x25c>
    2c40:	fc ce       	rjmp	.-520    	; 0x2a3a <sprintf_+0x54>
c:\users\admin\documents\arduino\libraries\libprintf\extras\printf/printf.c:949
        else if (*format == 'b') {
          base =  BASE_BINARY;
        }
        else {
          base = BASE_DECIMAL;
          flags &= ~FLAGS_HASH;   // no hash for dec format
    2c42:	e8 94       	clt
    2c44:	a4 f8       	bld	r10, 4
sprintf_():
c:\users\admin\documents\arduino\libraries\libprintf\extras\printf/printf.c:948
        }
        else if (*format == 'b') {
          base =  BASE_BINARY;
        }
        else {
          base = BASE_DECIMAL;
    2c46:	aa e0       	ldi	r26, 0x0A	; 10
    2c48:	8a 2e       	mov	r8, r26
_vsnprintf():
c:\users\admin\documents\arduino\libraries\libprintf\extras\printf/printf.c:957
        if (*format == 'X') {
          flags |= FLAGS_UPPERCASE;
        }

        // no plus or space flag for u, x, X, o, b
        if ((*format != 'i') && (*format != 'd')) {
    2c4a:	89 36       	cpi	r24, 0x69	; 105
    2c4c:	21 f0       	breq	.+8      	; 0x2c56 <sprintf_+0x270>
    2c4e:	84 36       	cpi	r24, 0x64	; 100
    2c50:	11 f0       	breq	.+4      	; 0x2c56 <sprintf_+0x270>
c:\users\admin\documents\arduino\libraries\libprintf\extras\printf/printf.c:958
          flags &= ~(FLAGS_PLUS | FLAGS_SPACE);
    2c52:	f3 ef       	ldi	r31, 0xF3	; 243
    2c54:	af 22       	and	r10, r31
c:\users\admin\documents\arduino\libraries\libprintf\extras\printf/printf.c:962
        }

        // ignore '0' flag when precision is given
        if (flags & FLAGS_PRECISION) {
    2c56:	b2 fe       	sbrs	r11, 2
    2c58:	02 c0       	rjmp	.+4      	; 0x2c5e <sprintf_+0x278>
c:\users\admin\documents\arduino\libraries\libprintf\extras\printf/printf.c:963
          flags &= ~FLAGS_ZEROPAD;
    2c5a:	e8 94       	clt
    2c5c:	a0 f8       	bld	r10, 0
    2c5e:	95 01       	movw	r18, r10
    2c60:	22 27       	eor	r18, r18
    2c62:	32 70       	andi	r19, 0x02	; 2
c:\users\admin\documents\arduino\libraries\libprintf\extras\printf/printf.c:967
        }

        // convert the integer
        if ((*format == 'i') || (*format == 'd')) {
    2c64:	89 36       	cpi	r24, 0x69	; 105
    2c66:	19 f0       	breq	.+6      	; 0x2c6e <sprintf_+0x288>
    2c68:	84 36       	cpi	r24, 0x64	; 100
    2c6a:	09 f0       	breq	.+2      	; 0x2c6e <sprintf_+0x288>
    2c6c:	1c c1       	rjmp	.+568    	; 0x2ea6 <sprintf_+0x4c0>
c:\users\admin\documents\arduino\libraries\libprintf\extras\printf/printf.c:969
          // signed
          if (flags & FLAGS_LONG_LONG) {
    2c6e:	23 2b       	or	r18, r19
    2c70:	09 f4       	brne	.+2      	; 0x2c74 <sprintf_+0x28e>
    2c72:	98 c0       	rjmp	.+304    	; 0x2da4 <sprintf_+0x3be>
c:\users\admin\documents\arduino\libraries\libprintf\extras\printf/printf.c:971
#if PRINTF_SUPPORT_LONG_LONG
            const long long value = va_arg(va, long long);
    2c74:	98 01       	movw	r18, r16
    2c76:	28 5f       	subi	r18, 0xF8	; 248
    2c78:	3f 4f       	sbci	r19, 0xFF	; 255
    2c7a:	3e 83       	std	Y+6, r19	; 0x06
    2c7c:	2d 83       	std	Y+5, r18	; 0x05
    2c7e:	d8 01       	movw	r26, r16
    2c80:	cc 90       	ld	r12, X
    2c82:	11 96       	adiw	r26, 0x01	; 1
    2c84:	dc 90       	ld	r13, X
    2c86:	11 97       	sbiw	r26, 0x01	; 1
    2c88:	12 96       	adiw	r26, 0x02	; 2
    2c8a:	ec 90       	ld	r14, X
    2c8c:	12 97       	sbiw	r26, 0x02	; 2
    2c8e:	13 96       	adiw	r26, 0x03	; 3
    2c90:	fc 90       	ld	r15, X
    2c92:	13 97       	sbiw	r26, 0x03	; 3
    2c94:	14 96       	adiw	r26, 0x04	; 4
    2c96:	9c 90       	ld	r9, X
    2c98:	14 97       	sbiw	r26, 0x04	; 4
    2c9a:	15 96       	adiw	r26, 0x05	; 5
    2c9c:	ac 91       	ld	r26, X
    2c9e:	f8 01       	movw	r30, r16
    2ca0:	f6 81       	ldd	r31, Z+6	; 0x06
    2ca2:	f9 83       	std	Y+1, r31	; 0x01
    2ca4:	f8 01       	movw	r30, r16
    2ca6:	f7 81       	ldd	r31, Z+7	; 0x07
    2ca8:	ff 83       	std	Y+7, r31	; 0x07
c:\users\admin\documents\arduino\libraries\libprintf\extras\printf/printf.c:972
            idx = print_integer(out, buffer, idx, maxlen, ABS_FOR_PRINTING(value), value < 0, base, precision, width, flags);
    2caa:	96 01       	movw	r18, r12
    2cac:	a7 01       	movw	r20, r14
    2cae:	69 2d       	mov	r22, r9
    2cb0:	7a 2f       	mov	r23, r26
    2cb2:	89 81       	ldd	r24, Y+1	; 0x01
    2cb4:	9f 2f       	mov	r25, r31
    2cb6:	0f e3       	ldi	r16, 0x3F	; 63
    2cb8:	0e 94 ab 28 	call	0x5156	; 0x5156 <__lshrdi3>
    2cbc:	b2 2f       	mov	r27, r18
    2cbe:	09 2d       	mov	r16, r9
    2cc0:	1a 2f       	mov	r17, r26
    2cc2:	f9 81       	ldd	r31, Y+1	; 0x01
    2cc4:	ef 81       	ldd	r30, Y+7	; 0x07
    2cc6:	96 01       	movw	r18, r12
    2cc8:	a7 01       	movw	r20, r14
    2cca:	b8 01       	movw	r22, r16
    2ccc:	8f 2f       	mov	r24, r31
    2cce:	9e 2f       	mov	r25, r30
    2cd0:	a0 e0       	ldi	r26, 0x00	; 0
    2cd2:	0e 94 db 28 	call	0x51b6	; 0x51b6 <__cmpdi2_s8>
    2cd6:	3c f4       	brge	.+14     	; 0x2ce6 <sprintf_+0x300>
    2cd8:	0e 94 62 28 	call	0x50c4	; 0x50c4 <__negdi2>
    2cdc:	69 01       	movw	r12, r18
    2cde:	7a 01       	movw	r14, r20
    2ce0:	8b 01       	movw	r16, r22
    2ce2:	f8 2f       	mov	r31, r24
    2ce4:	e9 2f       	mov	r30, r25
    2ce6:	bf 92       	push	r11
    2ce8:	af 92       	push	r10
    2cea:	7f 92       	push	r7
    2cec:	6f 92       	push	r6
    2cee:	5f 92       	push	r5
    2cf0:	4f 92       	push	r4
    2cf2:	ab 2e       	mov	r10, r27
c:\users\admin\documents\arduino\libraries\libprintf\extras\printf/printf.c:977
#endif
          }
          else if (flags & FLAGS_LONG) {
            const long value = va_arg(va, long);
            idx = print_integer(out, buffer, idx, maxlen, ABS_FOR_PRINTING(value), value < 0, base, precision, width, flags);
    2cf4:	2f 2f       	mov	r18, r31
    2cf6:	3e 2f       	mov	r19, r30
c:\users\admin\documents\arduino\libraries\libprintf\extras\printf/printf.c:996
          else if (flags & FLAGS_LONG) {
            idx = print_integer(out, buffer, idx, maxlen, (printf_unsigned_value_t) va_arg(va, unsigned long), false, base, precision, width, flags);
          }
          else {
            const unsigned int value = (flags & FLAGS_CHAR) ? (unsigned char)va_arg(va, unsigned int) : (flags & FLAGS_SHORT) ? (unsigned short int)va_arg(va, unsigned int) : va_arg(va, unsigned int);
            idx = print_integer(out, buffer, idx, maxlen, (printf_unsigned_value_t) value, false, base, precision, width, flags);
    2cf8:	a1 01       	movw	r20, r2
    2cfa:	6a a1       	ldd	r22, Y+34	; 0x22
    2cfc:	7b a1       	ldd	r23, Y+35	; 0x23
    2cfe:	8c e2       	ldi	r24, 0x2C	; 44
    2d00:	9a e0       	ldi	r25, 0x0A	; 10
    2d02:	0e 94 45 02 	call	0x48a	; 0x48a <print_integer(void (*)(char, void*, unsigned int, unsigned int), char*, unsigned int, unsigned int, unsigned long long, bool, unsigned char, unsigned int, unsigned int, unsigned int) [clone .constprop.44]>
    2d06:	1c 01       	movw	r2, r24
    2d08:	0f 90       	pop	r0
    2d0a:	0f 90       	pop	r0
    2d0c:	0f 90       	pop	r0
    2d0e:	0f 90       	pop	r0
    2d10:	0f 90       	pop	r0
    2d12:	0f 90       	pop	r0
c:\users\admin\documents\arduino\libraries\libprintf\extras\printf/printf.c:1042
        format++;
        break;
      }

      case 's' : {
        const char* p = va_arg(va, char*);
    2d14:	0d 81       	ldd	r16, Y+5	; 0x05
    2d16:	1e 81       	ldd	r17, Y+6	; 0x06
    2d18:	85 ce       	rjmp	.-758    	; 0x2a24 <sprintf_+0x3e>
c:\users\admin\documents\arduino\libraries\libprintf\extras\printf/printf.c:928
      default:
        break;
    }

    // evaluate specifier
    switch (*format) {
    2d1a:	8f 36       	cpi	r24, 0x6F	; 111
    2d1c:	09 f4       	brne	.+2      	; 0x2d20 <sprintf_+0x33a>
    2d1e:	7f c2       	rjmp	.+1278   	; 0x321e <sprintf_+0x838>
    2d20:	9c f4       	brge	.+38     	; 0x2d48 <sprintf_+0x362>
    2d22:	87 36       	cpi	r24, 0x67	; 103
    2d24:	09 f4       	brne	.+2      	; 0x2d28 <sprintf_+0x342>
    2d26:	2b c1       	rjmp	.+598    	; 0x2f7e <sprintf_+0x598>
    2d28:	0c f4       	brge	.+2      	; 0x2d2c <sprintf_+0x346>
    2d2a:	0e c1       	rjmp	.+540    	; 0x2f48 <sprintf_+0x562>
    2d2c:	89 36       	cpi	r24, 0x69	; 105
    2d2e:	09 f4       	brne	.+2      	; 0x2d32 <sprintf_+0x34c>
    2d30:	88 cf       	rjmp	.-240    	; 0x2c42 <sprintf_+0x25c>
    2d32:	8e 36       	cpi	r24, 0x6E	; 110
    2d34:	09 f0       	breq	.+2      	; 0x2d38 <sprintf_+0x352>
    2d36:	81 ce       	rjmp	.-766    	; 0x2a3a <sprintf_+0x54>
    2d38:	d8 01       	movw	r26, r16
    2d3a:	ed 91       	ld	r30, X+
    2d3c:	fd 91       	ld	r31, X+
    2d3e:	8d 01       	movw	r16, r26
c:\users\admin\documents\arduino\libraries\libprintf\extras\printf/printf.c:1093
      // Many people prefer to disable support for %n, as it lets the caller
      // engineer a write to an arbitrary location, of a value the caller
      // effectively controls - which could be a security concern in some cases.
#if PRINTF_SUPPORT_WRITEBACK_SPECIFIER
      case 'n' : {
        if       (flags & FLAGS_CHAR)      *(va_arg(va, char*))      = (char) idx;
    2d40:	a6 fe       	sbrs	r10, 6
    2d42:	2a c2       	rjmp	.+1108   	; 0x3198 <sprintf_+0x7b2>
    2d44:	20 82       	st	Z, r2
    2d46:	6e ce       	rjmp	.-804    	; 0x2a24 <sprintf_+0x3e>
c:\users\admin\documents\arduino\libraries\libprintf\extras\printf/printf.c:928
      default:
        break;
    }

    // evaluate specifier
    switch (*format) {
    2d48:	83 37       	cpi	r24, 0x73	; 115
    2d4a:	09 f4       	brne	.+2      	; 0x2d4e <sprintf_+0x368>
    2d4c:	77 c1       	rjmp	.+750    	; 0x303c <sprintf_+0x656>
    2d4e:	1c f5       	brge	.+70     	; 0x2d96 <sprintf_+0x3b0>
    2d50:	80 37       	cpi	r24, 0x70	; 112
    2d52:	09 f0       	breq	.+2      	; 0x2d56 <sprintf_+0x370>
    2d54:	72 ce       	rjmp	.-796    	; 0x2a3a <sprintf_+0x54>
c:\users\admin\documents\arduino\libraries\libprintf\extras\printf/printf.c:1074
        break;
      }

      case 'p' : {
        width = sizeof(void*) * 2U + 2; // 2 hex chars per byte + the "0x" prefix
        flags |= FLAGS_ZEROPAD | FLAGS_POINTER;
    2d56:	65 01       	movw	r12, r10
    2d58:	68 94       	set
    2d5a:	c0 f8       	bld	r12, 0
    2d5c:	d4 f8       	bld	r13, 4
c:\users\admin\documents\arduino\libraries\libprintf\extras\printf/printf.c:1075
        uintptr_t value = (uintptr_t)va_arg(va, void*);
    2d5e:	38 01       	movw	r6, r16
    2d60:	f2 e0       	ldi	r31, 0x02	; 2
    2d62:	6f 0e       	add	r6, r31
    2d64:	71 1c       	adc	r7, r1
    2d66:	d8 01       	movw	r26, r16
    2d68:	0d 91       	ld	r16, X+
    2d6a:	1c 91       	ld	r17, X
c:\users\admin\documents\arduino\libraries\libprintf\extras\printf/printf.c:1076
        idx = (value == (uintptr_t) NULL) ?
    2d6c:	01 15       	cp	r16, r1
    2d6e:	11 05       	cpc	r17, r1
    2d70:	09 f0       	breq	.+2      	; 0x2d74 <sprintf_+0x38e>
    2d72:	f2 c1       	rjmp	.+996    	; 0x3158 <sprintf_+0x772>
    2d74:	46 e0       	ldi	r20, 0x06	; 6
    2d76:	e4 2e       	mov	r14, r20
    2d78:	f1 2c       	mov	r15, r1
    2d7a:	05 e0       	ldi	r16, 0x05	; 5
    2d7c:	10 e0       	ldi	r17, 0x00	; 0
    2d7e:	29 e7       	ldi	r18, 0x79	; 121
    2d80:	32 e0       	ldi	r19, 0x02	; 2
    2d82:	a1 01       	movw	r20, r2
    2d84:	6a a1       	ldd	r22, Y+34	; 0x22
    2d86:	7b a1       	ldd	r23, Y+35	; 0x23
    2d88:	8c e2       	ldi	r24, 0x2C	; 44
    2d8a:	9a e0       	ldi	r25, 0x0A	; 10
    2d8c:	0e 94 bb 01 	call	0x376	; 0x376 <out_rev_(void (*)(char, void*, unsigned int, unsigned int), char*, unsigned int, unsigned int, char const*, unsigned int, unsigned int, unsigned int) [clone .constprop.46]>
    2d90:	1c 01       	movw	r2, r24
c:\users\admin\documents\arduino\libraries\libprintf\extras\printf/printf.c:1075
      }

      case 'p' : {
        width = sizeof(void*) * 2U + 2; // 2 hex chars per byte + the "0x" prefix
        flags |= FLAGS_ZEROPAD | FLAGS_POINTER;
        uintptr_t value = (uintptr_t)va_arg(va, void*);
    2d92:	83 01       	movw	r16, r6
    2d94:	47 ce       	rjmp	.-882    	; 0x2a24 <sprintf_+0x3e>
c:\users\admin\documents\arduino\libraries\libprintf\extras\printf/printf.c:928
      default:
        break;
    }

    // evaluate specifier
    switch (*format) {
    2d96:	85 37       	cpi	r24, 0x75	; 117
    2d98:	09 f4       	brne	.+2      	; 0x2d9c <sprintf_+0x3b6>
    2d9a:	53 cf       	rjmp	.-346    	; 0x2c42 <sprintf_+0x25c>
    2d9c:	88 37       	cpi	r24, 0x78	; 120
    2d9e:	09 f4       	brne	.+2      	; 0x2da2 <sprintf_+0x3bc>
    2da0:	47 cf       	rjmp	.-370    	; 0x2c30 <sprintf_+0x24a>
    2da2:	4b ce       	rjmp	.-874    	; 0x2a3a <sprintf_+0x54>
c:\users\admin\documents\arduino\libraries\libprintf\extras\printf/printf.c:975
#if PRINTF_SUPPORT_LONG_LONG
            const long long value = va_arg(va, long long);
            idx = print_integer(out, buffer, idx, maxlen, ABS_FOR_PRINTING(value), value < 0, base, precision, width, flags);
#endif
          }
          else if (flags & FLAGS_LONG) {
    2da4:	b0 fe       	sbrs	r11, 0
    2da6:	47 c0       	rjmp	.+142    	; 0x2e36 <sprintf_+0x450>
c:\users\admin\documents\arduino\libraries\libprintf\extras\printf/printf.c:976
            const long value = va_arg(va, long);
    2da8:	98 01       	movw	r18, r16
    2daa:	2c 5f       	subi	r18, 0xFC	; 252
    2dac:	3f 4f       	sbci	r19, 0xFF	; 255
    2dae:	3e 83       	std	Y+6, r19	; 0x06
    2db0:	2d 83       	std	Y+5, r18	; 0x05
    2db2:	d8 01       	movw	r26, r16
    2db4:	cd 90       	ld	r12, X+
    2db6:	dd 90       	ld	r13, X+
    2db8:	ed 90       	ld	r14, X+
    2dba:	fc 90       	ld	r15, X
c:\users\admin\documents\arduino\libraries\libprintf\extras\printf/printf.c:977
            idx = print_integer(out, buffer, idx, maxlen, ABS_FOR_PRINTING(value), value < 0, base, precision, width, flags);
    2dbc:	d7 01       	movw	r26, r14
    2dbe:	c6 01       	movw	r24, r12
    2dc0:	88 27       	eor	r24, r24
    2dc2:	b7 fd       	sbrc	r27, 7
    2dc4:	83 95       	inc	r24
    2dc6:	99 27       	eor	r25, r25
    2dc8:	aa 27       	eor	r26, r26
    2dca:	bb 27       	eor	r27, r27
    2dcc:	89 87       	std	Y+9, r24	; 0x09
    2dce:	9a 87       	std	Y+10, r25	; 0x0a
    2dd0:	ab 87       	std	Y+11, r26	; 0x0b
    2dd2:	bc 87       	std	Y+12, r27	; 0x0c
    2dd4:	d7 01       	movw	r26, r14
    2dd6:	c6 01       	movw	r24, r12
    2dd8:	bb 0f       	add	r27, r27
    2dda:	88 0b       	sbc	r24, r24
    2ddc:	98 2f       	mov	r25, r24
    2dde:	dc 01       	movw	r26, r24
    2de0:	89 83       	std	Y+1, r24	; 0x01
    2de2:	9a 83       	std	Y+2, r25	; 0x02
    2de4:	ab 83       	std	Y+3, r26	; 0x03
    2de6:	bc 83       	std	Y+4, r27	; 0x04
    2de8:	cf 82       	std	Y+7, r12	; 0x07
    2dea:	d8 86       	std	Y+8, r13	; 0x08
    2dec:	9e 2c       	mov	r9, r14
    2dee:	bf 2d       	mov	r27, r15
    2df0:	09 81       	ldd	r16, Y+1	; 0x01
    2df2:	10 2f       	mov	r17, r16
    2df4:	f0 2f       	mov	r31, r16
    2df6:	e0 2f       	mov	r30, r16
    2df8:	96 01       	movw	r18, r12
    2dfa:	a7 01       	movw	r20, r14
    2dfc:	6f 2f       	mov	r22, r31
    2dfe:	70 2f       	mov	r23, r16
    2e00:	80 2f       	mov	r24, r16
    2e02:	9f 2f       	mov	r25, r31
    2e04:	a0 e0       	ldi	r26, 0x00	; 0
    2e06:	0e 94 db 28 	call	0x51b6	; 0x51b6 <__cmpdi2_s8>
    2e0a:	4c f4       	brge	.+18     	; 0x2e1e <sprintf_+0x438>
    2e0c:	0e 94 62 28 	call	0x50c4	; 0x50c4 <__negdi2>
    2e10:	2f 83       	std	Y+7, r18	; 0x07
    2e12:	38 87       	std	Y+8, r19	; 0x08
    2e14:	94 2e       	mov	r9, r20
    2e16:	b5 2f       	mov	r27, r21
    2e18:	8b 01       	movw	r16, r22
    2e1a:	f8 2f       	mov	r31, r24
    2e1c:	e9 2f       	mov	r30, r25
    2e1e:	bf 92       	push	r11
    2e20:	af 92       	push	r10
    2e22:	7f 92       	push	r7
    2e24:	6f 92       	push	r6
    2e26:	5f 92       	push	r5
    2e28:	4f 92       	push	r4
    2e2a:	a9 84       	ldd	r10, Y+9	; 0x09
    2e2c:	cf 80       	ldd	r12, Y+7	; 0x07
    2e2e:	d8 84       	ldd	r13, Y+8	; 0x08
    2e30:	e9 2c       	mov	r14, r9
    2e32:	fb 2e       	mov	r15, r27
    2e34:	5f cf       	rjmp	.-322    	; 0x2cf4 <sprintf_+0x30e>
    2e36:	d8 01       	movw	r26, r16
    2e38:	12 96       	adiw	r26, 0x02	; 2
    2e3a:	be 83       	std	Y+6, r27	; 0x06
    2e3c:	ad 83       	std	Y+5, r26	; 0x05
c:\users\admin\documents\arduino\libraries\libprintf\extras\printf/printf.c:980
          }
          else {
            const int value = (flags & FLAGS_CHAR) ? (signed char)va_arg(va, int) : (flags & FLAGS_SHORT) ? (short int)va_arg(va, int) : va_arg(va, int);
    2e3e:	d8 01       	movw	r26, r16
    2e40:	a6 fe       	sbrs	r10, 6
    2e42:	2e c0       	rjmp	.+92     	; 0x2ea0 <sprintf_+0x4ba>
    2e44:	ec 91       	ld	r30, X
    2e46:	0e 2e       	mov	r0, r30
    2e48:	00 0c       	add	r0, r0
    2e4a:	ff 0b       	sbc	r31, r31
c:\users\admin\documents\arduino\libraries\libprintf\extras\printf/printf.c:981
            idx = print_integer(out, buffer, idx, maxlen, ABS_FOR_PRINTING(value), value < 0, base, precision, width, flags);
    2e4c:	bf 2f       	mov	r27, r31
    2e4e:	bb 1f       	adc	r27, r27
    2e50:	bb 27       	eor	r27, r27
    2e52:	bb 1f       	adc	r27, r27
    2e54:	b9 83       	std	Y+1, r27	; 0x01
    2e56:	6f 01       	movw	r12, r30
    2e58:	ef 2e       	mov	r14, r31
    2e5a:	ee 0c       	add	r14, r14
    2e5c:	ee 08       	sbc	r14, r14
    2e5e:	fe 2c       	mov	r15, r14
    2e60:	0e 2d       	mov	r16, r14
    2e62:	1e 2d       	mov	r17, r14
    2e64:	9e 2c       	mov	r9, r14
    2e66:	be 2d       	mov	r27, r14
    2e68:	9f 01       	movw	r18, r30
    2e6a:	4e 2d       	mov	r20, r14
    2e6c:	5e 2d       	mov	r21, r14
    2e6e:	6e 2d       	mov	r22, r14
    2e70:	7e 2d       	mov	r23, r14
    2e72:	8e 2d       	mov	r24, r14
    2e74:	9e 2d       	mov	r25, r14
    2e76:	a0 e0       	ldi	r26, 0x00	; 0
    2e78:	0e 94 db 28 	call	0x51b6	; 0x51b6 <__cmpdi2_s8>
    2e7c:	3c f4       	brge	.+14     	; 0x2e8c <sprintf_+0x4a6>
    2e7e:	0e 94 62 28 	call	0x50c4	; 0x50c4 <__negdi2>
    2e82:	69 01       	movw	r12, r18
    2e84:	7a 01       	movw	r14, r20
    2e86:	8b 01       	movw	r16, r22
    2e88:	98 2e       	mov	r9, r24
    2e8a:	b9 2f       	mov	r27, r25
    2e8c:	bf 92       	push	r11
    2e8e:	af 92       	push	r10
    2e90:	7f 92       	push	r7
    2e92:	6f 92       	push	r6
    2e94:	5f 92       	push	r5
    2e96:	4f 92       	push	r4
    2e98:	a9 80       	ldd	r10, Y+1	; 0x01
    2e9a:	29 2d       	mov	r18, r9
    2e9c:	3b 2f       	mov	r19, r27
    2e9e:	2c cf       	rjmp	.-424    	; 0x2cf8 <sprintf_+0x312>
c:\users\admin\documents\arduino\libraries\libprintf\extras\printf/printf.c:980
          else if (flags & FLAGS_LONG) {
            const long value = va_arg(va, long);
            idx = print_integer(out, buffer, idx, maxlen, ABS_FOR_PRINTING(value), value < 0, base, precision, width, flags);
          }
          else {
            const int value = (flags & FLAGS_CHAR) ? (signed char)va_arg(va, int) : (flags & FLAGS_SHORT) ? (short int)va_arg(va, int) : va_arg(va, int);
    2ea0:	ed 91       	ld	r30, X+
    2ea2:	fc 91       	ld	r31, X
    2ea4:	d3 cf       	rjmp	.-90     	; 0x2e4c <sprintf_+0x466>
c:\users\admin\documents\arduino\libraries\libprintf\extras\printf/printf.c:988
        }
        else {
          // unsigned
          if (flags & FLAGS_LONG_LONG) {
#if PRINTF_SUPPORT_LONG_LONG
            idx = print_integer(out, buffer, idx, maxlen, (printf_unsigned_value_t) va_arg(va, unsigned long long), false, base, precision, width, flags);
    2ea6:	f8 01       	movw	r30, r16
c:\users\admin\documents\arduino\libraries\libprintf\extras\printf/printf.c:986
            idx = print_integer(out, buffer, idx, maxlen, ABS_FOR_PRINTING(value), value < 0, base, precision, width, flags);
          }
        }
        else {
          // unsigned
          if (flags & FLAGS_LONG_LONG) {
    2ea8:	23 2b       	or	r18, r19
    2eaa:	19 f1       	breq	.+70     	; 0x2ef2 <sprintf_+0x50c>
c:\users\admin\documents\arduino\libraries\libprintf\extras\printf/printf.c:988
#if PRINTF_SUPPORT_LONG_LONG
            idx = print_integer(out, buffer, idx, maxlen, (printf_unsigned_value_t) va_arg(va, unsigned long long), false, base, precision, width, flags);
    2eac:	38 96       	adiw	r30, 0x08	; 8
    2eae:	fe 83       	std	Y+6, r31	; 0x06
    2eb0:	ed 83       	std	Y+5, r30	; 0x05
    2eb2:	d8 01       	movw	r26, r16
    2eb4:	cc 90       	ld	r12, X
    2eb6:	11 96       	adiw	r26, 0x01	; 1
    2eb8:	dc 90       	ld	r13, X
    2eba:	11 97       	sbiw	r26, 0x01	; 1
    2ebc:	12 96       	adiw	r26, 0x02	; 2
    2ebe:	ec 90       	ld	r14, X
    2ec0:	12 97       	sbiw	r26, 0x02	; 2
    2ec2:	13 96       	adiw	r26, 0x03	; 3
    2ec4:	fc 90       	ld	r15, X
    2ec6:	13 97       	sbiw	r26, 0x03	; 3
    2ec8:	14 96       	adiw	r26, 0x04	; 4
    2eca:	9c 91       	ld	r25, X
    2ecc:	14 97       	sbiw	r26, 0x04	; 4
    2ece:	15 96       	adiw	r26, 0x05	; 5
    2ed0:	8c 91       	ld	r24, X
    2ed2:	15 97       	sbiw	r26, 0x05	; 5
    2ed4:	16 96       	adiw	r26, 0x06	; 6
    2ed6:	2c 91       	ld	r18, X
    2ed8:	16 97       	sbiw	r26, 0x06	; 6
    2eda:	17 96       	adiw	r26, 0x07	; 7
    2edc:	3c 91       	ld	r19, X
    2ede:	bf 92       	push	r11
    2ee0:	af 92       	push	r10
    2ee2:	7f 92       	push	r7
    2ee4:	6f 92       	push	r6
    2ee6:	5f 92       	push	r5
    2ee8:	4f 92       	push	r4
    2eea:	a1 2c       	mov	r10, r1
    2eec:	09 2f       	mov	r16, r25
    2eee:	18 2f       	mov	r17, r24
    2ef0:	03 cf       	rjmp	.-506    	; 0x2cf8 <sprintf_+0x312>
c:\users\admin\documents\arduino\libraries\libprintf\extras\printf/printf.c:991
#endif
          }
          else if (flags & FLAGS_LONG) {
    2ef2:	b0 fe       	sbrs	r11, 0
    2ef4:	16 c0       	rjmp	.+44     	; 0x2f22 <sprintf_+0x53c>
c:\users\admin\documents\arduino\libraries\libprintf\extras\printf/printf.c:992
            idx = print_integer(out, buffer, idx, maxlen, (printf_unsigned_value_t) va_arg(va, unsigned long), false, base, precision, width, flags);
    2ef6:	34 96       	adiw	r30, 0x04	; 4
    2ef8:	fe 83       	std	Y+6, r31	; 0x06
    2efa:	ed 83       	std	Y+5, r30	; 0x05
    2efc:	d8 01       	movw	r26, r16
    2efe:	0d 91       	ld	r16, X+
    2f00:	1d 91       	ld	r17, X+
    2f02:	2d 91       	ld	r18, X+
    2f04:	3c 91       	ld	r19, X
    2f06:	bf 92       	push	r11
    2f08:	af 92       	push	r10
    2f0a:	7f 92       	push	r7
    2f0c:	6f 92       	push	r6
    2f0e:	5f 92       	push	r5
    2f10:	4f 92       	push	r4
    2f12:	a1 2c       	mov	r10, r1
    2f14:	68 01       	movw	r12, r16
    2f16:	79 01       	movw	r14, r18
c:\users\admin\documents\arduino\libraries\libprintf\extras\printf/printf.c:996
          }
          else {
            const unsigned int value = (flags & FLAGS_CHAR) ? (unsigned char)va_arg(va, unsigned int) : (flags & FLAGS_SHORT) ? (unsigned short int)va_arg(va, unsigned int) : va_arg(va, unsigned int);
            idx = print_integer(out, buffer, idx, maxlen, (printf_unsigned_value_t) value, false, base, precision, width, flags);
    2f18:	00 e0       	ldi	r16, 0x00	; 0
    2f1a:	10 e0       	ldi	r17, 0x00	; 0
    2f1c:	20 e0       	ldi	r18, 0x00	; 0
    2f1e:	30 e0       	ldi	r19, 0x00	; 0
    2f20:	eb ce       	rjmp	.-554    	; 0x2cf8 <sprintf_+0x312>
    2f22:	32 96       	adiw	r30, 0x02	; 2
    2f24:	fe 83       	std	Y+6, r31	; 0x06
    2f26:	ed 83       	std	Y+5, r30	; 0x05
    2f28:	d8 01       	movw	r26, r16
    2f2a:	0d 91       	ld	r16, X+
    2f2c:	1c 91       	ld	r17, X
c:\users\admin\documents\arduino\libraries\libprintf\extras\printf/printf.c:995
          }
          else if (flags & FLAGS_LONG) {
            idx = print_integer(out, buffer, idx, maxlen, (printf_unsigned_value_t) va_arg(va, unsigned long), false, base, precision, width, flags);
          }
          else {
            const unsigned int value = (flags & FLAGS_CHAR) ? (unsigned char)va_arg(va, unsigned int) : (flags & FLAGS_SHORT) ? (unsigned short int)va_arg(va, unsigned int) : va_arg(va, unsigned int);
    2f2e:	a6 fc       	sbrc	r10, 6
    2f30:	11 27       	eor	r17, r17
c:\users\admin\documents\arduino\libraries\libprintf\extras\printf/printf.c:996
            idx = print_integer(out, buffer, idx, maxlen, (printf_unsigned_value_t) value, false, base, precision, width, flags);
    2f32:	bf 92       	push	r11
    2f34:	af 92       	push	r10
    2f36:	7f 92       	push	r7
    2f38:	6f 92       	push	r6
    2f3a:	5f 92       	push	r5
    2f3c:	4f 92       	push	r4
    2f3e:	a1 2c       	mov	r10, r1
    2f40:	68 01       	movw	r12, r16
    2f42:	e1 2c       	mov	r14, r1
    2f44:	f1 2c       	mov	r15, r1
    2f46:	e8 cf       	rjmp	.-48     	; 0x2f18 <sprintf_+0x532>
c:\users\admin\documents\arduino\libraries\libprintf\extras\printf/printf.c:1005
        break;
      }
#if PRINTF_SUPPORT_DECIMAL_SPECIFIERS
      case 'f' :
      case 'F' :
        if (*format == 'F') flags |= FLAGS_UPPERCASE;
    2f48:	86 34       	cpi	r24, 0x46	; 70
    2f4a:	11 f4       	brne	.+4      	; 0x2f50 <sprintf_+0x56a>
    2f4c:	68 94       	set
    2f4e:	a5 f8       	bld	r10, 5
c:\users\admin\documents\arduino\libraries\libprintf\extras\printf/printf.c:1006
        idx = print_floating_point(out, buffer, idx, maxlen, va_arg(va, double), precision, width, flags, PRINTF_PREFER_DECIMAL);
    2f50:	f8 01       	movw	r30, r16
    2f52:	34 96       	adiw	r30, 0x04	; 4
    2f54:	fa 83       	std	Y+2, r31	; 0x02
    2f56:	e9 83       	std	Y+1, r30	; 0x01
    2f58:	d8 01       	movw	r26, r16
    2f5a:	0d 91       	ld	r16, X+
    2f5c:	1d 91       	ld	r17, X+
    2f5e:	2d 91       	ld	r18, X+
    2f60:	3c 91       	ld	r19, X
    2f62:	81 2c       	mov	r8, r1
c:\users\admin\documents\arduino\libraries\libprintf\extras\printf/printf.c:1017
      case 'E':
      case 'g':
      case 'G':
        if ((*format == 'g')||(*format == 'G')) flags |= FLAGS_ADAPT_EXP;
        if ((*format == 'E')||(*format == 'G')) flags |= FLAGS_UPPERCASE;
        idx = print_floating_point(out, buffer, idx, maxlen, va_arg(va, double), precision, width, flags, PRINTF_PREFER_EXPONENTIAL);
    2f64:	63 01       	movw	r12, r6
    2f66:	72 01       	movw	r14, r4
    2f68:	a1 01       	movw	r20, r2
    2f6a:	6a a1       	ldd	r22, Y+34	; 0x22
    2f6c:	7b a1       	ldd	r23, Y+35	; 0x23
    2f6e:	8c e2       	ldi	r24, 0x2C	; 44
    2f70:	9a e0       	ldi	r25, 0x0A	; 10
    2f72:	0e 94 92 10 	call	0x2124	; 0x2124 <print_floating_point(void (*)(char, void*, unsigned int, unsigned int), char*, unsigned int, unsigned int, double, unsigned int, unsigned int, unsigned int, bool) [clone .constprop.39]>
    2f76:	1c 01       	movw	r2, r24
    2f78:	09 81       	ldd	r16, Y+1	; 0x01
    2f7a:	1a 81       	ldd	r17, Y+2	; 0x02
    2f7c:	53 cd       	rjmp	.-1370   	; 0x2a24 <sprintf_+0x3e>
c:\users\admin\documents\arduino\libraries\libprintf\extras\printf/printf.c:1015
#if PRINTF_SUPPORT_EXPONENTIAL_SPECIFIERS
      case 'e':
      case 'E':
      case 'g':
      case 'G':
        if ((*format == 'g')||(*format == 'G')) flags |= FLAGS_ADAPT_EXP;
    2f7e:	98 2f       	mov	r25, r24
    2f80:	9f 7d       	andi	r25, 0xDF	; 223
    2f82:	97 34       	cpi	r25, 0x47	; 71
    2f84:	19 f4       	brne	.+6      	; 0x2f8c <sprintf_+0x5a6>
    2f86:	68 94       	set
    2f88:	b3 f8       	bld	r11, 3
c:\users\admin\documents\arduino\libraries\libprintf\extras\printf/printf.c:1016
        if ((*format == 'E')||(*format == 'G')) flags |= FLAGS_UPPERCASE;
    2f8a:	8d 7f       	andi	r24, 0xFD	; 253
    2f8c:	85 34       	cpi	r24, 0x45	; 69
    2f8e:	11 f4       	brne	.+4      	; 0x2f94 <sprintf_+0x5ae>
    2f90:	68 94       	set
    2f92:	a5 f8       	bld	r10, 5
c:\users\admin\documents\arduino\libraries\libprintf\extras\printf/printf.c:1017
        idx = print_floating_point(out, buffer, idx, maxlen, va_arg(va, double), precision, width, flags, PRINTF_PREFER_EXPONENTIAL);
    2f94:	f8 01       	movw	r30, r16
    2f96:	34 96       	adiw	r30, 0x04	; 4
    2f98:	fa 83       	std	Y+2, r31	; 0x02
    2f9a:	e9 83       	std	Y+1, r30	; 0x01
    2f9c:	d8 01       	movw	r26, r16
    2f9e:	0d 91       	ld	r16, X+
    2fa0:	1d 91       	ld	r17, X+
    2fa2:	2d 91       	ld	r18, X+
    2fa4:	3c 91       	ld	r19, X
    2fa6:	88 24       	eor	r8, r8
    2fa8:	83 94       	inc	r8
    2faa:	dc cf       	rjmp	.-72     	; 0x2f64 <sprintf_+0x57e>
c:\users\admin\documents\arduino\libraries\libprintf\extras\printf/printf.c:1024
        break;
#endif  // PRINTF_SUPPORT_EXPONENTIAL_SPECIFIERS
      case 'c' : {
        unsigned int l = 1U;
        // pre padding
        if (!(flags & FLAGS_LEFT)) {
    2fac:	45 01       	movw	r8, r10
    2fae:	b2 e0       	ldi	r27, 0x02	; 2
    2fb0:	8b 22       	and	r8, r27
    2fb2:	99 24       	eor	r9, r9
    2fb4:	a1 01       	movw	r20, r2
sprintf_():
c:\users\admin\documents\arduino\libraries\libprintf\extras\printf/printf.c:1022
        idx = print_floating_point(out, buffer, idx, maxlen, va_arg(va, double), precision, width, flags, PRINTF_PREFER_EXPONENTIAL);
        format++;
        break;
#endif  // PRINTF_SUPPORT_EXPONENTIAL_SPECIFIERS
      case 'c' : {
        unsigned int l = 1U;
    2fb6:	cc 24       	eor	r12, r12
    2fb8:	c3 94       	inc	r12
    2fba:	d1 2c       	mov	r13, r1
_vsnprintf():
c:\users\admin\documents\arduino\libraries\libprintf\extras\printf/printf.c:1024
        // pre padding
        if (!(flags & FLAGS_LEFT)) {
    2fbc:	a1 fc       	sbrc	r10, 1
    2fbe:	17 c0       	rjmp	.+46     	; 0x2fee <sprintf_+0x608>
    2fc0:	f1 2c       	mov	r15, r1
    2fc2:	e1 2c       	mov	r14, r1
    2fc4:	a1 01       	movw	r20, r2
    2fc6:	4e 0d       	add	r20, r14
    2fc8:	5f 1d       	adc	r21, r15
    2fca:	67 01       	movw	r12, r14
    2fcc:	e2 e0       	ldi	r30, 0x02	; 2
    2fce:	ce 0e       	add	r12, r30
    2fd0:	d1 1c       	adc	r13, r1
    2fd2:	ff ef       	ldi	r31, 0xFF	; 255
    2fd4:	ef 1a       	sub	r14, r31
    2fd6:	ff 0a       	sbc	r15, r31
c:\users\admin\documents\arduino\libraries\libprintf\extras\printf/printf.c:1025
          while (l++ < width) {
    2fd8:	e6 14       	cp	r14, r6
    2fda:	f7 04       	cpc	r15, r7
    2fdc:	40 f4       	brcc	.+16     	; 0x2fee <sprintf_+0x608>
c:\users\admin\documents\arduino\libraries\libprintf\extras\printf/printf.c:1026
            out(' ', buffer, idx++, maxlen);
    2fde:	2f ef       	ldi	r18, 0xFF	; 255
    2fe0:	3f ef       	ldi	r19, 0xFF	; 255
    2fe2:	6a a1       	ldd	r22, Y+34	; 0x22
    2fe4:	7b a1       	ldd	r23, Y+35	; 0x23
    2fe6:	80 e2       	ldi	r24, 0x20	; 32
    2fe8:	0e 94 2c 0a 	call	0x1458	; 0x1458 <out_buffer(char, void*, unsigned int, unsigned int)>
    2fec:	eb cf       	rjmp	.-42     	; 0x2fc4 <sprintf_+0x5de>
c:\users\admin\documents\arduino\libraries\libprintf\extras\printf/printf.c:1030
          }
        }
        // char output
        out((char)va_arg(va, int), buffer, idx++, maxlen);
    2fee:	1a 01       	movw	r2, r20
    2ff0:	2f ef       	ldi	r18, 0xFF	; 255
    2ff2:	22 1a       	sub	r2, r18
    2ff4:	32 0a       	sbc	r3, r18
    2ff6:	78 01       	movw	r14, r16
    2ff8:	32 e0       	ldi	r19, 0x02	; 2
    2ffa:	e3 0e       	add	r14, r19
    2ffc:	f1 1c       	adc	r15, r1
    2ffe:	2f ef       	ldi	r18, 0xFF	; 255
    3000:	3f ef       	ldi	r19, 0xFF	; 255
    3002:	6a a1       	ldd	r22, Y+34	; 0x22
    3004:	7b a1       	ldd	r23, Y+35	; 0x23
    3006:	d8 01       	movw	r26, r16
    3008:	8c 91       	ld	r24, X
    300a:	0e 94 2c 0a 	call	0x1458	; 0x1458 <out_buffer(char, void*, unsigned int, unsigned int)>
c:\users\admin\documents\arduino\libraries\libprintf\extras\printf/printf.c:1032
        // post padding
        if (flags & FLAGS_LEFT) {
    300e:	89 28       	or	r8, r9
    3010:	99 f0       	breq	.+38     	; 0x3038 <sprintf_+0x652>
c:\users\admin\documents\arduino\libraries\libprintf\extras\printf/printf.c:1033
          while (l++ < width) {
    3012:	c6 14       	cp	r12, r6
    3014:	d7 04       	cpc	r13, r7
    3016:	80 f4       	brcc	.+32     	; 0x3038 <sprintf_+0x652>
c:\users\admin\documents\arduino\libraries\libprintf\extras\printf/printf.c:1034
            out(' ', buffer, idx++, maxlen);
    3018:	81 01       	movw	r16, r2
    301a:	0f 5f       	subi	r16, 0xFF	; 255
    301c:	1f 4f       	sbci	r17, 0xFF	; 255
    301e:	2f ef       	ldi	r18, 0xFF	; 255
    3020:	3f ef       	ldi	r19, 0xFF	; 255
    3022:	a1 01       	movw	r20, r2
    3024:	6a a1       	ldd	r22, Y+34	; 0x22
    3026:	7b a1       	ldd	r23, Y+35	; 0x23
    3028:	80 e2       	ldi	r24, 0x20	; 32
    302a:	0e 94 2c 0a 	call	0x1458	; 0x1458 <out_buffer(char, void*, unsigned int, unsigned int)>
    302e:	bf ef       	ldi	r27, 0xFF	; 255
    3030:	cb 1a       	sub	r12, r27
    3032:	db 0a       	sbc	r13, r27
sprintf_():
    3034:	18 01       	movw	r2, r16
    3036:	ed cf       	rjmp	.-38     	; 0x3012 <sprintf_+0x62c>
_vsnprintf():
c:\users\admin\documents\arduino\libraries\libprintf\extras\printf/printf.c:1030
          while (l++ < width) {
            out(' ', buffer, idx++, maxlen);
          }
        }
        // char output
        out((char)va_arg(va, int), buffer, idx++, maxlen);
    3038:	87 01       	movw	r16, r14
    303a:	f4 cc       	rjmp	.-1560   	; 0x2a24 <sprintf_+0x3e>
c:\users\admin\documents\arduino\libraries\libprintf\extras\printf/printf.c:1042
        format++;
        break;
      }

      case 's' : {
        const char* p = va_arg(va, char*);
    303c:	f8 01       	movw	r30, r16
    303e:	32 96       	adiw	r30, 0x02	; 2
    3040:	fe 83       	std	Y+6, r31	; 0x06
    3042:	ed 83       	std	Y+5, r30	; 0x05
    3044:	d8 01       	movw	r26, r16
    3046:	0d 91       	ld	r16, X+
    3048:	1c 91       	ld	r17, X
c:\users\admin\documents\arduino\libraries\libprintf\extras\printf/printf.c:1043
        if (p == NULL) {
    304a:	01 15       	cp	r16, r1
    304c:	11 05       	cpc	r17, r1
    304e:	79 f4       	brne	.+30     	; 0x306e <sprintf_+0x688>
c:\users\admin\documents\arduino\libraries\libprintf\extras\printf/printf.c:1044
          idx = out_rev_(out, buffer, idx, maxlen, ")llun(", 6, width, flags);
    3050:	65 01       	movw	r12, r10
    3052:	73 01       	movw	r14, r6
    3054:	06 e0       	ldi	r16, 0x06	; 6
    3056:	10 e0       	ldi	r17, 0x00	; 0
    3058:	22 e7       	ldi	r18, 0x72	; 114
    305a:	32 e0       	ldi	r19, 0x02	; 2
    305c:	a1 01       	movw	r20, r2
    305e:	6a a1       	ldd	r22, Y+34	; 0x22
    3060:	7b a1       	ldd	r23, Y+35	; 0x23
    3062:	8c e2       	ldi	r24, 0x2C	; 44
    3064:	9a e0       	ldi	r25, 0x0A	; 10
    3066:	0e 94 bb 01 	call	0x376	; 0x376 <out_rev_(void (*)(char, void*, unsigned int, unsigned int), char*, unsigned int, unsigned int, char const*, unsigned int, unsigned int, unsigned int) [clone .constprop.46]>
    306a:	1c 01       	movw	r2, r24
    306c:	53 ce       	rjmp	.-858    	; 0x2d14 <sprintf_+0x32e>
c:\users\admin\documents\arduino\libraries\libprintf\extras\printf/printf.c:1047
        }
        else {
          unsigned int l = strnlen_s_(p, precision ? precision : (size_t)-1);
    306e:	92 01       	movw	r18, r4
    3070:	41 14       	cp	r4, r1
    3072:	51 04       	cpc	r5, r1
    3074:	11 f4       	brne	.+4      	; 0x307a <sprintf_+0x694>
sprintf_():
    3076:	2f ef       	ldi	r18, 0xFF	; 255
    3078:	3f ef       	ldi	r19, 0xFF	; 255
    307a:	f8 01       	movw	r30, r16
    307c:	90 e0       	ldi	r25, 0x00	; 0
    307e:	80 e0       	ldi	r24, 0x00	; 0
    3080:	af 01       	movw	r20, r30
    3082:	4f 5f       	subi	r20, 0xFF	; 255
    3084:	5f 4f       	sbci	r21, 0xFF	; 255
strnlen_s_():
c:\users\admin\documents\arduino\libraries\libprintf\extras\printf/printf.c:267
// internal secure strlen
// @return The length of the string (excluding the terminating 0) limited by 'maxsize'
static inline unsigned int strnlen_s_(const char* str, size_t maxsize)
{
  const char* s;
  for (s = str; *s && maxsize--; ++s);
    3086:	60 81       	ld	r22, Z
    3088:	66 23       	and	r22, r22
    308a:	31 f0       	breq	.+12     	; 0x3098 <sprintf_+0x6b2>
    308c:	82 17       	cp	r24, r18
    308e:	93 07       	cpc	r25, r19
    3090:	19 f0       	breq	.+6      	; 0x3098 <sprintf_+0x6b2>
    3092:	01 96       	adiw	r24, 0x01	; 1
    3094:	fa 01       	movw	r30, r20
    3096:	f4 cf       	rjmp	.-24     	; 0x3080 <sprintf_+0x69a>
c:\users\admin\documents\arduino\libraries\libprintf\extras\printf/printf.c:268
  return (unsigned int)(s - str);
    3098:	e0 1b       	sub	r30, r16
    309a:	f1 0b       	sbc	r31, r17
_vsnprintf():
c:\users\admin\documents\arduino\libraries\libprintf\extras\printf/printf.c:1049
          idx = out_rev_(out, buffer, idx, maxlen, ")llun(", 6, width, flags);
        }
        else {
          unsigned int l = strnlen_s_(p, precision ? precision : (size_t)-1);
          // pre padding
          if (flags & FLAGS_PRECISION) {
    309c:	95 01       	movw	r18, r10
    309e:	22 27       	eor	r18, r18
    30a0:	34 70       	andi	r19, 0x04	; 4
    30a2:	3a 83       	std	Y+2, r19	; 0x02
    30a4:	29 83       	std	Y+1, r18	; 0x01
    30a6:	b2 fe       	sbrs	r11, 2
    30a8:	04 c0       	rjmp	.+8      	; 0x30b2 <sprintf_+0x6cc>
    30aa:	4e 16       	cp	r4, r30
    30ac:	5f 06       	cpc	r5, r31
    30ae:	08 f4       	brcc	.+2      	; 0x30b2 <sprintf_+0x6cc>
    30b0:	f2 01       	movw	r30, r4
c:\users\admin\documents\arduino\libraries\libprintf\extras\printf/printf.c:1052
            l = (l < precision ? l : precision);
          }
          if (!(flags & FLAGS_LEFT)) {
    30b2:	45 01       	movw	r8, r10
    30b4:	32 e0       	ldi	r19, 0x02	; 2
    30b6:	83 22       	and	r8, r19
    30b8:	99 24       	eor	r9, r9
    30ba:	7f 01       	movw	r14, r30
    30bc:	a1 01       	movw	r20, r2
    30be:	a1 fc       	sbrc	r10, 1
    30c0:	15 c0       	rjmp	.+42     	; 0x30ec <sprintf_+0x706>
    30c2:	2e 1a       	sub	r2, r30
    30c4:	3f 0a       	sbc	r3, r31
    30c6:	a1 01       	movw	r20, r2
    30c8:	4e 0f       	add	r20, r30
    30ca:	5f 1f       	adc	r21, r31
c:\users\admin\documents\arduino\libraries\libprintf\extras\printf/printf.c:1053
            while (l++ < width) {
    30cc:	7f 01       	movw	r14, r30
    30ce:	8f ef       	ldi	r24, 0xFF	; 255
    30d0:	e8 1a       	sub	r14, r24
    30d2:	f8 0a       	sbc	r15, r24
    30d4:	e6 15       	cp	r30, r6
    30d6:	f7 05       	cpc	r31, r7
    30d8:	48 f4       	brcc	.+18     	; 0x30ec <sprintf_+0x706>
c:\users\admin\documents\arduino\libraries\libprintf\extras\printf/printf.c:1054
              out(' ', buffer, idx++, maxlen);
    30da:	2f ef       	ldi	r18, 0xFF	; 255
    30dc:	3f ef       	ldi	r19, 0xFF	; 255
    30de:	6a a1       	ldd	r22, Y+34	; 0x22
    30e0:	7b a1       	ldd	r23, Y+35	; 0x23
    30e2:	80 e2       	ldi	r24, 0x20	; 32
    30e4:	0e 94 2c 0a 	call	0x1458	; 0x1458 <out_buffer(char, void*, unsigned int, unsigned int)>
c:\users\admin\documents\arduino\libraries\libprintf\extras\printf/printf.c:1053
          // pre padding
          if (flags & FLAGS_PRECISION) {
            l = (l < precision ? l : precision);
          }
          if (!(flags & FLAGS_LEFT)) {
            while (l++ < width) {
    30e8:	f7 01       	movw	r30, r14
    30ea:	ed cf       	rjmp	.-38     	; 0x30c6 <sprintf_+0x6e0>
    30ec:	6a 01       	movw	r12, r20
    30ee:	c0 1a       	sub	r12, r16
    30f0:	d1 0a       	sbc	r13, r17
    30f2:	a6 01       	movw	r20, r12
    30f4:	40 0f       	add	r20, r16
    30f6:	51 1f       	adc	r21, r17
c:\users\admin\documents\arduino\libraries\libprintf\extras\printf/printf.c:1058
              out(' ', buffer, idx++, maxlen);
            }
          }
          // string output
          while ((*p != 0) && (!(flags & FLAGS_PRECISION) || precision--)) {
    30f8:	d8 01       	movw	r26, r16
    30fa:	8d 91       	ld	r24, X+
    30fc:	8d 01       	movw	r16, r26
    30fe:	88 23       	and	r24, r24
    3100:	89 f0       	breq	.+34     	; 0x3124 <sprintf_+0x73e>
    3102:	e9 81       	ldd	r30, Y+1	; 0x01
    3104:	fa 81       	ldd	r31, Y+2	; 0x02
    3106:	ef 2b       	or	r30, r31
    3108:	31 f0       	breq	.+12     	; 0x3116 <sprintf_+0x730>
    310a:	92 01       	movw	r18, r4
    310c:	21 50       	subi	r18, 0x01	; 1
    310e:	31 09       	sbc	r19, r1
    3110:	45 28       	or	r4, r5
    3112:	41 f0       	breq	.+16     	; 0x3124 <sprintf_+0x73e>
    3114:	29 01       	movw	r4, r18
c:\users\admin\documents\arduino\libraries\libprintf\extras\printf/printf.c:1059
            out(*(p++), buffer, idx++, maxlen);
    3116:	2f ef       	ldi	r18, 0xFF	; 255
    3118:	3f ef       	ldi	r19, 0xFF	; 255
    311a:	6a a1       	ldd	r22, Y+34	; 0x22
    311c:	7b a1       	ldd	r23, Y+35	; 0x23
    311e:	0e 94 2c 0a 	call	0x1458	; 0x1458 <out_buffer(char, void*, unsigned int, unsigned int)>
    3122:	e7 cf       	rjmp	.-50     	; 0x30f2 <sprintf_+0x70c>
c:\users\admin\documents\arduino\libraries\libprintf\extras\printf/printf.c:1062
          }
          // post padding
          if (flags & FLAGS_LEFT) {
    3124:	1a 01       	movw	r2, r20
    3126:	89 28       	or	r8, r9
    3128:	09 f4       	brne	.+2      	; 0x312c <sprintf_+0x746>
    312a:	f4 cd       	rjmp	.-1048   	; 0x2d14 <sprintf_+0x32e>
    312c:	e4 1a       	sub	r14, r20
    312e:	f5 0a       	sbc	r15, r21
c:\users\admin\documents\arduino\libraries\libprintf\extras\printf/printf.c:1063
            while (l++ < width) {
    3130:	c7 01       	movw	r24, r14
    3132:	82 0d       	add	r24, r2
    3134:	93 1d       	adc	r25, r3
    3136:	86 15       	cp	r24, r6
    3138:	97 05       	cpc	r25, r7
    313a:	08 f0       	brcs	.+2      	; 0x313e <sprintf_+0x758>
    313c:	eb cd       	rjmp	.-1066   	; 0x2d14 <sprintf_+0x32e>
c:\users\admin\documents\arduino\libraries\libprintf\extras\printf/printf.c:1064
              out(' ', buffer, idx++, maxlen);
    313e:	81 01       	movw	r16, r2
    3140:	0f 5f       	subi	r16, 0xFF	; 255
    3142:	1f 4f       	sbci	r17, 0xFF	; 255
    3144:	2f ef       	ldi	r18, 0xFF	; 255
    3146:	3f ef       	ldi	r19, 0xFF	; 255
    3148:	a1 01       	movw	r20, r2
    314a:	6a a1       	ldd	r22, Y+34	; 0x22
    314c:	7b a1       	ldd	r23, Y+35	; 0x23
    314e:	80 e2       	ldi	r24, 0x20	; 32
    3150:	0e 94 2c 0a 	call	0x1458	; 0x1458 <out_buffer(char, void*, unsigned int, unsigned int)>
sprintf_():
    3154:	18 01       	movw	r2, r16
    3156:	ec cf       	rjmp	.-40     	; 0x3130 <sprintf_+0x74a>
_vsnprintf():
c:\users\admin\documents\arduino\libraries\libprintf\extras\printf/printf.c:1076

      case 'p' : {
        width = sizeof(void*) * 2U + 2; // 2 hex chars per byte + the "0x" prefix
        flags |= FLAGS_ZEROPAD | FLAGS_POINTER;
        uintptr_t value = (uintptr_t)va_arg(va, void*);
        idx = (value == (uintptr_t) NULL) ?
    3158:	df 92       	push	r13
    315a:	cf 92       	push	r12
    315c:	1f 92       	push	r1
    315e:	b6 e0       	ldi	r27, 0x06	; 6
    3160:	bf 93       	push	r27
    3162:	5f 92       	push	r5
    3164:	4f 92       	push	r4
    3166:	30 e1       	ldi	r19, 0x10	; 16
    3168:	83 2e       	mov	r8, r19
    316a:	a1 2c       	mov	r10, r1
    316c:	68 01       	movw	r12, r16
    316e:	e1 2c       	mov	r14, r1
    3170:	f1 2c       	mov	r15, r1
    3172:	00 e0       	ldi	r16, 0x00	; 0
    3174:	10 e0       	ldi	r17, 0x00	; 0
    3176:	20 e0       	ldi	r18, 0x00	; 0
    3178:	30 e0       	ldi	r19, 0x00	; 0
    317a:	a1 01       	movw	r20, r2
    317c:	6a a1       	ldd	r22, Y+34	; 0x22
    317e:	7b a1       	ldd	r23, Y+35	; 0x23
    3180:	8c e2       	ldi	r24, 0x2C	; 44
    3182:	9a e0       	ldi	r25, 0x0A	; 10
    3184:	0e 94 45 02 	call	0x48a	; 0x48a <print_integer(void (*)(char, void*, unsigned int, unsigned int), char*, unsigned int, unsigned int, unsigned long long, bool, unsigned char, unsigned int, unsigned int, unsigned int) [clone .constprop.44]>
    3188:	1c 01       	movw	r2, r24
    318a:	0f 90       	pop	r0
    318c:	0f 90       	pop	r0
    318e:	0f 90       	pop	r0
    3190:	0f 90       	pop	r0
    3192:	0f 90       	pop	r0
    3194:	0f 90       	pop	r0
    3196:	fd cd       	rjmp	.-1030   	; 0x2d92 <sprintf_+0x3ac>
c:\users\admin\documents\arduino\libraries\libprintf\extras\printf/printf.c:1094
      // engineer a write to an arbitrary location, of a value the caller
      // effectively controls - which could be a security concern in some cases.
#if PRINTF_SUPPORT_WRITEBACK_SPECIFIER
      case 'n' : {
        if       (flags & FLAGS_CHAR)      *(va_arg(va, char*))      = (char) idx;
        else if  (flags & FLAGS_SHORT)     *(va_arg(va, short*))     = (short) idx;
    3198:	a7 fe       	sbrs	r10, 7
    319a:	03 c0       	rjmp	.+6      	; 0x31a2 <sprintf_+0x7bc>
c:\users\admin\documents\arduino\libraries\libprintf\extras\printf/printf.c:1099
        else if  (flags & FLAGS_LONG)      *(va_arg(va, long*))      = (long) idx;
#if PRINTF_SUPPORT_LONG_LONG
        else if  (flags & FLAGS_LONG_LONG) *(va_arg(va, long long*)) = (long long int) idx;
#endif // PRINTF_SUPPORT_LONG_LONG
        else                               *(va_arg(va, int*))       = (int) idx;
    319c:	31 82       	std	Z+1, r3	; 0x01
    319e:	20 82       	st	Z, r2
    31a0:	41 cc       	rjmp	.-1918   	; 0x2a24 <sprintf_+0x3e>
c:\users\admin\documents\arduino\libraries\libprintf\extras\printf/printf.c:1095
      // effectively controls - which could be a security concern in some cases.
#if PRINTF_SUPPORT_WRITEBACK_SPECIFIER
      case 'n' : {
        if       (flags & FLAGS_CHAR)      *(va_arg(va, char*))      = (char) idx;
        else if  (flags & FLAGS_SHORT)     *(va_arg(va, short*))     = (short) idx;
        else if  (flags & FLAGS_LONG)      *(va_arg(va, long*))      = (long) idx;
    31a2:	b0 fe       	sbrs	r11, 0
    31a4:	08 c0       	rjmp	.+16     	; 0x31b6 <sprintf_+0x7d0>
    31a6:	c1 01       	movw	r24, r2
    31a8:	b0 e0       	ldi	r27, 0x00	; 0
    31aa:	a0 e0       	ldi	r26, 0x00	; 0
    31ac:	80 83       	st	Z, r24
    31ae:	91 83       	std	Z+1, r25	; 0x01
    31b0:	a2 83       	std	Z+2, r26	; 0x02
    31b2:	b3 83       	std	Z+3, r27	; 0x03
    31b4:	37 cc       	rjmp	.-1938   	; 0x2a24 <sprintf_+0x3e>
c:\users\admin\documents\arduino\libraries\libprintf\extras\printf/printf.c:1097
#if PRINTF_SUPPORT_LONG_LONG
        else if  (flags & FLAGS_LONG_LONG) *(va_arg(va, long long*)) = (long long int) idx;
    31b6:	b1 fe       	sbrs	r11, 1
    31b8:	f1 cf       	rjmp	.-30     	; 0x319c <sprintf_+0x7b6>
    31ba:	41 01       	movw	r8, r2
    31bc:	20 82       	st	Z, r2
    31be:	91 82       	std	Z+1, r9	; 0x01
    31c0:	12 82       	std	Z+2, r1	; 0x02
    31c2:	13 82       	std	Z+3, r1	; 0x03
    31c4:	14 82       	std	Z+4, r1	; 0x04
    31c6:	15 82       	std	Z+5, r1	; 0x05
    31c8:	16 82       	std	Z+6, r1	; 0x06
    31ca:	17 82       	std	Z+7, r1	; 0x07
    31cc:	2b cc       	rjmp	.-1962   	; 0x2a24 <sprintf_+0x3e>
c:\users\admin\documents\arduino\libraries\libprintf\extras\printf/printf.c:1113
        break;
    }
  }

  // termination
  out((char)0, buffer, idx < maxlen ? idx : maxlen - 1U, maxlen);
    31ce:	a1 01       	movw	r20, r2
    31d0:	ef ef       	ldi	r30, 0xFF	; 255
    31d2:	2e 16       	cp	r2, r30
    31d4:	3e 06       	cpc	r3, r30
    31d6:	11 f4       	brne	.+4      	; 0x31dc <sprintf_+0x7f6>
sprintf_():
    31d8:	4e ef       	ldi	r20, 0xFE	; 254
    31da:	5f ef       	ldi	r21, 0xFF	; 255
_vsnprintf():
    31dc:	2f ef       	ldi	r18, 0xFF	; 255
    31de:	3f ef       	ldi	r19, 0xFF	; 255
    31e0:	6a a1       	ldd	r22, Y+34	; 0x22
    31e2:	7b a1       	ldd	r23, Y+35	; 0x23
    31e4:	80 e0       	ldi	r24, 0x00	; 0
    31e6:	0e 94 2c 0a 	call	0x1458	; 0x1458 <out_buffer(char, void*, unsigned int, unsigned int)>
sprintf_():
c:\users\admin\documents\arduino\libraries\libprintf\extras\printf/printf.c:1140
  va_list va;
  va_start(va, format);
  const int ret = _vsnprintf(out_buffer, buffer, (size_t)-1, format, va);
  va_end(va);
  return ret;
}
    31ea:	c1 01       	movw	r24, r2
    31ec:	2c 96       	adiw	r28, 0x0c	; 12
    31ee:	0f b6       	in	r0, 0x3f	; 63
    31f0:	f8 94       	cli
    31f2:	de bf       	out	0x3e, r29	; 62
    31f4:	0f be       	out	0x3f, r0	; 63
    31f6:	cd bf       	out	0x3d, r28	; 61
    31f8:	df 91       	pop	r29
    31fa:	cf 91       	pop	r28
    31fc:	1f 91       	pop	r17
    31fe:	0f 91       	pop	r16
    3200:	ff 90       	pop	r15
    3202:	ef 90       	pop	r14
    3204:	df 90       	pop	r13
    3206:	cf 90       	pop	r12
    3208:	bf 90       	pop	r11
    320a:	af 90       	pop	r10
    320c:	9f 90       	pop	r9
    320e:	8f 90       	pop	r8
    3210:	7f 90       	pop	r7
    3212:	6f 90       	pop	r6
    3214:	5f 90       	pop	r5
    3216:	4f 90       	pop	r4
    3218:	3f 90       	pop	r3
    321a:	2f 90       	pop	r2
    321c:	08 95       	ret
c:\users\admin\documents\arduino\libraries\libprintf\extras\printf/printf.c:942
        numeric_base_t base;
        if (*format == 'x' || *format == 'X') {
          base = BASE_HEX;
        }
        else if (*format == 'o') {
          base =  BASE_OCTAL;
    321e:	28 e0       	ldi	r18, 0x08	; 8
    3220:	82 2e       	mov	r8, r18
    3222:	17 cd       	rjmp	.-1490   	; 0x2c52 <sprintf_+0x26c>
c:\users\admin\documents\arduino\libraries\libprintf\extras\printf/printf.c:945
        }
        else if (*format == 'b') {
          base =  BASE_BINARY;
    3224:	92 e0       	ldi	r25, 0x02	; 2
    3226:	89 2e       	mov	r8, r25
    3228:	14 cd       	rjmp	.-1496   	; 0x2c52 <sprintf_+0x26c>

0000322a <Standby()>:
_Z7Standbyv():
C:\Users\admin\Documents\Github\marketforge\MarketForge_Control/MarketForge_Control.ino:263
  Temperature = (-0.0003099*pow(Temperature,2)) + (1.1137543*Temperature) - 1.2987112;
  Temperature *= Factor_Corr_Temp;

}

void Standby(void) {
    322a:	cf 92       	push	r12
    322c:	df 92       	push	r13
    322e:	ef 92       	push	r14
    3230:	ff 92       	push	r15
    3232:	0f 93       	push	r16
    3234:	1f 93       	push	r17
    3236:	cf 93       	push	r28
    3238:	df 93       	push	r29
    323a:	cd b7       	in	r28, 0x3d	; 61
    323c:	de b7       	in	r29, 0x3e	; 62
    323e:	65 97       	sbiw	r28, 0x15	; 21
    3240:	0f b6       	in	r0, 0x3f	; 63
    3242:	f8 94       	cli
    3244:	de bf       	out	0x3e, r29	; 62
    3246:	0f be       	out	0x3f, r0	; 63
    3248:	cd bf       	out	0x3d, r28	; 61
C:\Users\admin\Documents\Github\marketforge\MarketForge_Control/MarketForge_Control.ino:266
  char txt[21];
  
  sprintf(txt,"Listo              ");
    324a:	8f e7       	ldi	r24, 0x7F	; 127
    324c:	92 e0       	ldi	r25, 0x02	; 2
    324e:	9f 93       	push	r25
    3250:	8f 93       	push	r24
    3252:	8e 01       	movw	r16, r28
    3254:	0f 5f       	subi	r16, 0xFF	; 255
    3256:	1f 4f       	sbci	r17, 0xFF	; 255
    3258:	1f 93       	push	r17
    325a:	0f 93       	push	r16
    325c:	0e 94 f3 14 	call	0x29e6	; 0x29e6 <sprintf_>
C:\Users\admin\Documents\Github\marketforge\MarketForge_Control/MarketForge_Control.ino:267
  vfd.Print(txt,0);
    3260:	60 e0       	ldi	r22, 0x00	; 0
    3262:	c8 01       	movw	r24, r16
    3264:	0e 94 99 14 	call	0x2932	; 0x2932 <VFD_NEC_FC20X2::Print(char*, unsigned char) [clone .constprop.51]>
C:\Users\admin\Documents\Github\marketforge\MarketForge_Control/MarketForge_Control.ino:269

  sprintf(txt,"%1.1f C  ", Temperature);
    3268:	80 91 26 05 	lds	r24, 0x0526	; 0x800526 <Temperature+0x3>
    326c:	8f 93       	push	r24
    326e:	80 91 25 05 	lds	r24, 0x0525	; 0x800525 <Temperature+0x2>
    3272:	8f 93       	push	r24
    3274:	80 91 24 05 	lds	r24, 0x0524	; 0x800524 <Temperature+0x1>
    3278:	8f 93       	push	r24
    327a:	80 91 23 05 	lds	r24, 0x0523	; 0x800523 <Temperature>
    327e:	8f 93       	push	r24
    3280:	83 e9       	ldi	r24, 0x93	; 147
    3282:	92 e0       	ldi	r25, 0x02	; 2
    3284:	9f 93       	push	r25
    3286:	8f 93       	push	r24
    3288:	1f 93       	push	r17
    328a:	0f 93       	push	r16
    328c:	0e 94 f3 14 	call	0x29e6	; 0x29e6 <sprintf_>
C:\Users\admin\Documents\Github\marketforge\MarketForge_Control/MarketForge_Control.ino:270
  vfd.Print(txt,20);
    3290:	64 e1       	ldi	r22, 0x14	; 20
    3292:	c8 01       	movw	r24, r16
    3294:	0e 94 99 14 	call	0x2932	; 0x2932 <VFD_NEC_FC20X2::Print(char*, unsigned char) [clone .constprop.51]>
C:\Users\admin\Documents\Github\marketforge\MarketForge_Control/MarketForge_Control.ino:274
  // Pos_VFD(20);
  // Serial1.print(txt);

  if (Pressure >= -0.4 && Pressure <= 0.4) {
    3298:	f0 90 96 03 	lds	r15, 0x0396	; 0x800396 <Pressure>
    329c:	e0 90 97 03 	lds	r14, 0x0397	; 0x800397 <Pressure+0x1>
    32a0:	d0 90 98 03 	lds	r13, 0x0398	; 0x800398 <Pressure+0x2>
    32a4:	c0 90 99 03 	lds	r12, 0x0399	; 0x800399 <Pressure+0x3>
    32a8:	0f b6       	in	r0, 0x3f	; 63
    32aa:	f8 94       	cli
    32ac:	de bf       	out	0x3e, r29	; 62
    32ae:	0f be       	out	0x3f, r0	; 63
    32b0:	cd bf       	out	0x3d, r28	; 61
    32b2:	2d ec       	ldi	r18, 0xCD	; 205
    32b4:	3c ec       	ldi	r19, 0xCC	; 204
    32b6:	4c ec       	ldi	r20, 0xCC	; 204
    32b8:	5e eb       	ldi	r21, 0xBE	; 190
    32ba:	d7 01       	movw	r26, r14
    32bc:	f6 01       	movw	r30, r12
    32be:	6b 2f       	mov	r22, r27
    32c0:	7a 2f       	mov	r23, r26
    32c2:	8f 2f       	mov	r24, r31
    32c4:	9e 2f       	mov	r25, r30
    32c6:	0e 94 c7 26 	call	0x4d8e	; 0x4d8e <__gesf2>
    32ca:	87 fd       	sbrc	r24, 7
    32cc:	3c c0       	rjmp	.+120    	; 0x3346 <Standby()+0x11c>
    32ce:	2d ec       	ldi	r18, 0xCD	; 205
    32d0:	3c ec       	ldi	r19, 0xCC	; 204
    32d2:	4c ec       	ldi	r20, 0xCC	; 204
    32d4:	5e e3       	ldi	r21, 0x3E	; 62
    32d6:	d7 01       	movw	r26, r14
    32d8:	f6 01       	movw	r30, r12
    32da:	6b 2f       	mov	r22, r27
    32dc:	7a 2f       	mov	r23, r26
    32de:	8f 2f       	mov	r24, r31
    32e0:	9e 2f       	mov	r25, r30
    32e2:	0e 94 d8 24 	call	0x49b0	; 0x49b0 <__cmpsf2>
    32e6:	18 16       	cp	r1, r24
    32e8:	74 f1       	brlt	.+92     	; 0x3346 <Standby()+0x11c>
C:\Users\admin\Documents\Github\marketforge\MarketForge_Control/MarketForge_Control.ino:275
    sprintf(txt," %1.1f Psi", 0.0);
    32ea:	1f 92       	push	r1
    32ec:	1f 92       	push	r1
    32ee:	1f 92       	push	r1
    32f0:	1f 92       	push	r1
C:\Users\admin\Documents\Github\marketforge\MarketForge_Control/MarketForge_Control.ino:278
    vfd.Print(txt,40-strlen(txt)+0);
  } else {
    sprintf(txt," %1.1f Psi", Pressure);
    32f2:	8d e9       	ldi	r24, 0x9D	; 157
    32f4:	92 e0       	ldi	r25, 0x02	; 2
    32f6:	9f 93       	push	r25
    32f8:	8f 93       	push	r24
    32fa:	1f 93       	push	r17
    32fc:	0f 93       	push	r16
    32fe:	0e 94 f3 14 	call	0x29e6	; 0x29e6 <sprintf_>
C:\Users\admin\Documents\Github\marketforge\MarketForge_Control/MarketForge_Control.ino:279
    vfd.Print(txt,40-strlen(txt)+0);
    3302:	f8 01       	movw	r30, r16
    3304:	01 90       	ld	r0, Z+
    3306:	00 20       	and	r0, r0
    3308:	e9 f7       	brne	.-6      	; 0x3304 <Standby()+0xda>
    330a:	60 2f       	mov	r22, r16
    330c:	6e 1b       	sub	r22, r30
    330e:	67 5d       	subi	r22, 0xD7	; 215
    3310:	c8 01       	movw	r24, r16
    3312:	0e 94 99 14 	call	0x2932	; 0x2932 <VFD_NEC_FC20X2::Print(char*, unsigned char) [clone .constprop.51]>
    3316:	0f b6       	in	r0, 0x3f	; 63
    3318:	f8 94       	cli
    331a:	de bf       	out	0x3e, r29	; 62
    331c:	0f be       	out	0x3f, r0	; 63
    331e:	cd bf       	out	0x3d, r28	; 61
C:\Users\admin\Documents\Github\marketforge\MarketForge_Control/MarketForge_Control.ino:282
  }

  digitalWrite(VENT_SOLENOID,VALVE_OPEN);
    3320:	61 e0       	ldi	r22, 0x01	; 1
    3322:	88 e1       	ldi	r24, 0x18	; 24
    3324:	0e 94 2d 06 	call	0xc5a	; 0xc5a <digitalWrite>
C:\Users\admin\Documents\Github\marketforge\MarketForge_Control/MarketForge_Control.ino:284
// PrintRTDStatus(rtd.getStatus());
}
    3328:	65 96       	adiw	r28, 0x15	; 21
    332a:	0f b6       	in	r0, 0x3f	; 63
    332c:	f8 94       	cli
    332e:	de bf       	out	0x3e, r29	; 62
    3330:	0f be       	out	0x3f, r0	; 63
    3332:	cd bf       	out	0x3d, r28	; 61
    3334:	df 91       	pop	r29
    3336:	cf 91       	pop	r28
    3338:	1f 91       	pop	r17
    333a:	0f 91       	pop	r16
    333c:	ff 90       	pop	r15
    333e:	ef 90       	pop	r14
    3340:	df 90       	pop	r13
    3342:	cf 90       	pop	r12
    3344:	08 95       	ret
C:\Users\admin\Documents\Github\marketforge\MarketForge_Control/MarketForge_Control.ino:278

  if (Pressure >= -0.4 && Pressure <= 0.4) {
    sprintf(txt," %1.1f Psi", 0.0);
    vfd.Print(txt,40-strlen(txt)+0);
  } else {
    sprintf(txt," %1.1f Psi", Pressure);
    3346:	cf 92       	push	r12
    3348:	df 92       	push	r13
    334a:	ef 92       	push	r14
    334c:	ff 92       	push	r15
    334e:	d1 cf       	rjmp	.-94     	; 0x32f2 <Standby()+0xc8>

00003350 <__vector_23>:
__vector_23():
C:\Users\admin\AppData\Local\Arduino15\packages\MegaCore\hardware\avr\3.0.0\cores\MCUdude_corefiles/wiring.c:159
#if defined(__AVR_ATtiny24__) || defined(__AVR_ATtiny44__) || defined(__AVR_ATtiny84__)
ISR(TIM0_OVF_vect)
#else
ISR(TIMER0_OVF_vect)
#endif
{
    3350:	1f 92       	push	r1
    3352:	0f 92       	push	r0
    3354:	0f b6       	in	r0, 0x3f	; 63
    3356:	0f 92       	push	r0
    3358:	11 24       	eor	r1, r1
    335a:	2f 93       	push	r18
    335c:	3f 93       	push	r19
    335e:	8f 93       	push	r24
    3360:	9f 93       	push	r25
    3362:	af 93       	push	r26
    3364:	bf 93       	push	r27
C:\Users\admin\AppData\Local\Arduino15\packages\MegaCore\hardware\avr\3.0.0\cores\MCUdude_corefiles/wiring.c:167
  static unsigned char timer0_exact = 0;
#endif

  // copy these to local variables so they can be stored in registers
  // (volatile variables must be read from memory on every access, so this saves time)
  unsigned long m = timer0_millis;
    3366:	80 91 a1 03 	lds	r24, 0x03A1	; 0x8003a1 <timer0_millis>
    336a:	90 91 a2 03 	lds	r25, 0x03A2	; 0x8003a2 <timer0_millis+0x1>
    336e:	a0 91 a3 03 	lds	r26, 0x03A3	; 0x8003a3 <timer0_millis+0x2>
    3372:	b0 91 a4 03 	lds	r27, 0x03A4	; 0x8003a4 <timer0_millis+0x3>
C:\Users\admin\AppData\Local\Arduino15\packages\MegaCore\hardware\avr\3.0.0\cores\MCUdude_corefiles/wiring.c:168
  unsigned char f = timer0_fract;
    3376:	30 91 a0 03 	lds	r19, 0x03A0	; 0x8003a0 <timer0_fract>
C:\Users\admin\AppData\Local\Arduino15\packages\MegaCore\hardware\avr\3.0.0\cores\MCUdude_corefiles/wiring.c:170

  f += FRACT_INC FRACT_INC_PLUS;
    337a:	23 e0       	ldi	r18, 0x03	; 3
    337c:	23 0f       	add	r18, r19
C:\Users\admin\AppData\Local\Arduino15\packages\MegaCore\hardware\avr\3.0.0\cores\MCUdude_corefiles/wiring.c:200
    ++f;
  }
#endif
#endif // CORRECT_EXACT_MILLIS

  if (f >= FRACT_MAX) {
    337e:	2d 37       	cpi	r18, 0x7D	; 125
    3380:	68 f1       	brcs	.+90     	; 0x33dc <__vector_23+0x8c>
C:\Users\admin\AppData\Local\Arduino15\packages\MegaCore\hardware\avr\3.0.0\cores\MCUdude_corefiles/wiring.c:201
    f -= FRACT_MAX;
    3382:	26 e8       	ldi	r18, 0x86	; 134
    3384:	23 0f       	add	r18, r19
C:\Users\admin\AppData\Local\Arduino15\packages\MegaCore\hardware\avr\3.0.0\cores\MCUdude_corefiles/wiring.c:202
    m += MILLIS_INC + 1;
    3386:	02 96       	adiw	r24, 0x02	; 2
    3388:	a1 1d       	adc	r26, r1
    338a:	b1 1d       	adc	r27, r1
C:\Users\admin\AppData\Local\Arduino15\packages\MegaCore\hardware\avr\3.0.0\cores\MCUdude_corefiles/wiring.c:208
  }
  else {
    m += MILLIS_INC;
  }

  timer0_fract = f;
    338c:	20 93 a0 03 	sts	0x03A0, r18	; 0x8003a0 <timer0_fract>
C:\Users\admin\AppData\Local\Arduino15\packages\MegaCore\hardware\avr\3.0.0\cores\MCUdude_corefiles/wiring.c:209
  timer0_millis = m;
    3390:	80 93 a1 03 	sts	0x03A1, r24	; 0x8003a1 <timer0_millis>
    3394:	90 93 a2 03 	sts	0x03A2, r25	; 0x8003a2 <timer0_millis+0x1>
    3398:	a0 93 a3 03 	sts	0x03A3, r26	; 0x8003a3 <timer0_millis+0x2>
    339c:	b0 93 a4 03 	sts	0x03A4, r27	; 0x8003a4 <timer0_millis+0x3>
C:\Users\admin\AppData\Local\Arduino15\packages\MegaCore\hardware\avr\3.0.0\cores\MCUdude_corefiles/wiring.c:211
#ifndef CORRECT_EXACT_MICROS
  timer0_overflow_count++;
    33a0:	80 91 a5 03 	lds	r24, 0x03A5	; 0x8003a5 <timer0_overflow_count>
    33a4:	90 91 a6 03 	lds	r25, 0x03A6	; 0x8003a6 <timer0_overflow_count+0x1>
    33a8:	a0 91 a7 03 	lds	r26, 0x03A7	; 0x8003a7 <timer0_overflow_count+0x2>
    33ac:	b0 91 a8 03 	lds	r27, 0x03A8	; 0x8003a8 <timer0_overflow_count+0x3>
    33b0:	01 96       	adiw	r24, 0x01	; 1
    33b2:	a1 1d       	adc	r26, r1
    33b4:	b1 1d       	adc	r27, r1
    33b6:	80 93 a5 03 	sts	0x03A5, r24	; 0x8003a5 <timer0_overflow_count>
    33ba:	90 93 a6 03 	sts	0x03A6, r25	; 0x8003a6 <timer0_overflow_count+0x1>
    33be:	a0 93 a7 03 	sts	0x03A7, r26	; 0x8003a7 <timer0_overflow_count+0x2>
    33c2:	b0 93 a8 03 	sts	0x03A8, r27	; 0x8003a8 <timer0_overflow_count+0x3>
C:\Users\admin\AppData\Local\Arduino15\packages\MegaCore\hardware\avr\3.0.0\cores\MCUdude_corefiles/wiring.c:213
#endif
}
    33c6:	bf 91       	pop	r27
    33c8:	af 91       	pop	r26
    33ca:	9f 91       	pop	r25
    33cc:	8f 91       	pop	r24
    33ce:	3f 91       	pop	r19
    33d0:	2f 91       	pop	r18
    33d2:	0f 90       	pop	r0
    33d4:	0f be       	out	0x3f, r0	; 63
    33d6:	0f 90       	pop	r0
    33d8:	1f 90       	pop	r1
    33da:	18 95       	reti
C:\Users\admin\AppData\Local\Arduino15\packages\MegaCore\hardware\avr\3.0.0\cores\MCUdude_corefiles/wiring.c:205
  if (f >= FRACT_MAX) {
    f -= FRACT_MAX;
    m += MILLIS_INC + 1;
  }
  else {
    m += MILLIS_INC;
    33dc:	01 96       	adiw	r24, 0x01	; 1
    33de:	a1 1d       	adc	r26, r1
    33e0:	b1 1d       	adc	r27, r1
    33e2:	d4 cf       	rjmp	.-88     	; 0x338c <__vector_23+0x3c>

000033e4 <__vector_55>:
__vector_55():
C:\Users\admin\AppData\Local\Arduino15\packages\MegaCore\hardware\avr\3.0.0\cores\MCUdude_corefiles/HardwareSerial3.cpp:45
{
  Serial3._rx_complete_irq();
}

ISR(USART3_UDRE_vect)
{
    33e4:	1f 92       	push	r1
    33e6:	0f 92       	push	r0
    33e8:	0f b6       	in	r0, 0x3f	; 63
    33ea:	0f 92       	push	r0
    33ec:	11 24       	eor	r1, r1
    33ee:	0b b6       	in	r0, 0x3b	; 59
    33f0:	0f 92       	push	r0
    33f2:	2f 93       	push	r18
    33f4:	3f 93       	push	r19
    33f6:	4f 93       	push	r20
    33f8:	5f 93       	push	r21
    33fa:	6f 93       	push	r22
    33fc:	7f 93       	push	r23
    33fe:	8f 93       	push	r24
    3400:	9f 93       	push	r25
    3402:	af 93       	push	r26
    3404:	bf 93       	push	r27
    3406:	ef 93       	push	r30
    3408:	ff 93       	push	r31
C:\Users\admin\AppData\Local\Arduino15\packages\MegaCore\hardware\avr\3.0.0\cores\MCUdude_corefiles/HardwareSerial3.cpp:46
  Serial3._tx_udr_empty_irq();
    340a:	8b ea       	ldi	r24, 0xAB	; 171
    340c:	93 e0       	ldi	r25, 0x03	; 3
    340e:	0e 94 12 09 	call	0x1224	; 0x1224 <HardwareSerial::_tx_udr_empty_irq()>
C:\Users\admin\AppData\Local\Arduino15\packages\MegaCore\hardware\avr\3.0.0\cores\MCUdude_corefiles/HardwareSerial3.cpp:47
}
    3412:	ff 91       	pop	r31
    3414:	ef 91       	pop	r30
    3416:	bf 91       	pop	r27
    3418:	af 91       	pop	r26
    341a:	9f 91       	pop	r25
    341c:	8f 91       	pop	r24
    341e:	7f 91       	pop	r23
    3420:	6f 91       	pop	r22
    3422:	5f 91       	pop	r21
    3424:	4f 91       	pop	r20
    3426:	3f 91       	pop	r19
    3428:	2f 91       	pop	r18
    342a:	0f 90       	pop	r0
    342c:	0b be       	out	0x3b, r0	; 59
    342e:	0f 90       	pop	r0
    3430:	0f be       	out	0x3f, r0	; 63
    3432:	0f 90       	pop	r0
    3434:	1f 90       	pop	r1
    3436:	18 95       	reti

00003438 <__vector_54>:
__vector_54():
C:\Users\admin\AppData\Local\Arduino15\packages\MegaCore\hardware\avr\3.0.0\cores\MCUdude_corefiles/HardwareSerial3.cpp:40
// first place.

#if defined(HAVE_HWSERIAL3)

ISR(USART3_RX_vect)
{
    3438:	1f 92       	push	r1
    343a:	0f 92       	push	r0
    343c:	0f b6       	in	r0, 0x3f	; 63
    343e:	0f 92       	push	r0
    3440:	11 24       	eor	r1, r1
    3442:	0b b6       	in	r0, 0x3b	; 59
    3444:	0f 92       	push	r0
    3446:	2f 93       	push	r18
    3448:	8f 93       	push	r24
    344a:	9f 93       	push	r25
    344c:	ef 93       	push	r30
    344e:	ff 93       	push	r31
_rx_complete_irq():
C:\Users\admin\AppData\Local\Arduino15\packages\MegaCore\hardware\avr\3.0.0\cores\MCUdude_corefiles/HardwareSerial_private.h:100

// Actual interrupt handlers //////////////////////////////////////////////////////////////

void HardwareSerial::_rx_complete_irq(void)
{
  if (bit_is_clear(*_ucsra, UPE0)) {
    3450:	e0 91 bb 03 	lds	r30, 0x03BB	; 0x8003bb <Serial3+0x10>
    3454:	f0 91 bc 03 	lds	r31, 0x03BC	; 0x8003bc <Serial3+0x11>
    3458:	80 81       	ld	r24, Z
    345a:	e0 91 c1 03 	lds	r30, 0x03C1	; 0x8003c1 <Serial3+0x16>
    345e:	f0 91 c2 03 	lds	r31, 0x03C2	; 0x8003c2 <Serial3+0x17>
    3462:	82 fd       	sbrc	r24, 2
    3464:	1d c0       	rjmp	.+58     	; 0x34a0 <__vector_54+0x68>
C:\Users\admin\AppData\Local\Arduino15\packages\MegaCore\hardware\avr\3.0.0\cores\MCUdude_corefiles/HardwareSerial_private.h:103
    // No Parity error, read byte and store it in the buffer if there is
    // room
    unsigned char c = *_udr;
    3466:	90 81       	ld	r25, Z
C:\Users\admin\AppData\Local\Arduino15\packages\MegaCore\hardware\avr\3.0.0\cores\MCUdude_corefiles/HardwareSerial_private.h:104
    rx_buffer_index_t i = (unsigned int)(_rx_buffer_head + 1) % SERIAL_RX_BUFFER_SIZE;
    3468:	80 91 c4 03 	lds	r24, 0x03C4	; 0x8003c4 <Serial3+0x19>
    346c:	8f 5f       	subi	r24, 0xFF	; 255
    346e:	8f 73       	andi	r24, 0x3F	; 63
C:\Users\admin\AppData\Local\Arduino15\packages\MegaCore\hardware\avr\3.0.0\cores\MCUdude_corefiles/HardwareSerial_private.h:110

    // if we should be storing the received character into the location
    // just before the tail (meaning that the head would advance to the
    // current location of the tail), we're about to overflow the buffer
    // and so we don't write the character or advance the head.
    if (i != _rx_buffer_tail) {
    3470:	20 91 c5 03 	lds	r18, 0x03C5	; 0x8003c5 <Serial3+0x1a>
    3474:	82 17       	cp	r24, r18
    3476:	41 f0       	breq	.+16     	; 0x3488 <__vector_54+0x50>
C:\Users\admin\AppData\Local\Arduino15\packages\MegaCore\hardware\avr\3.0.0\cores\MCUdude_corefiles/HardwareSerial_private.h:111
      _rx_buffer[_rx_buffer_head] = c;
    3478:	e0 91 c4 03 	lds	r30, 0x03C4	; 0x8003c4 <Serial3+0x19>
    347c:	f0 e0       	ldi	r31, 0x00	; 0
    347e:	e5 55       	subi	r30, 0x55	; 85
    3480:	fc 4f       	sbci	r31, 0xFC	; 252
    3482:	95 8f       	std	Z+29, r25	; 0x1d
C:\Users\admin\AppData\Local\Arduino15\packages\MegaCore\hardware\avr\3.0.0\cores\MCUdude_corefiles/HardwareSerial_private.h:112
      _rx_buffer_head = i;
    3484:	80 93 c4 03 	sts	0x03C4, r24	; 0x8003c4 <Serial3+0x19>
__vector_54():
C:\Users\admin\AppData\Local\Arduino15\packages\MegaCore\hardware\avr\3.0.0\cores\MCUdude_corefiles/HardwareSerial3.cpp:42
  Serial3._rx_complete_irq();
}
    3488:	ff 91       	pop	r31
    348a:	ef 91       	pop	r30
    348c:	9f 91       	pop	r25
    348e:	8f 91       	pop	r24
    3490:	2f 91       	pop	r18
    3492:	0f 90       	pop	r0
    3494:	0b be       	out	0x3b, r0	; 59
    3496:	0f 90       	pop	r0
    3498:	0f be       	out	0x3f, r0	; 63
    349a:	0f 90       	pop	r0
    349c:	1f 90       	pop	r1
    349e:	18 95       	reti
_rx_complete_irq():
C:\Users\admin\AppData\Local\Arduino15\packages\MegaCore\hardware\avr\3.0.0\cores\MCUdude_corefiles/HardwareSerial_private.h:116
    }
  } else {
    // Parity error, read byte but discard it
    *_udr;
    34a0:	80 81       	ld	r24, Z
    34a2:	f2 cf       	rjmp	.-28     	; 0x3488 <__vector_54+0x50>

000034a4 <__vector_26>:
__vector_26():
C:\Users\admin\AppData\Local\Arduino15\packages\MegaCore\hardware\avr\3.0.0\cores\MCUdude_corefiles/HardwareSerial0.cpp:63
#elif defined(USART0_UDRE_vect)
ISR(USART0_UDRE_vect)
#else
  #error "Don't know what the Data Register Empty vector is called for Serial"
#endif
{
    34a4:	1f 92       	push	r1
    34a6:	0f 92       	push	r0
    34a8:	0f b6       	in	r0, 0x3f	; 63
    34aa:	0f 92       	push	r0
    34ac:	11 24       	eor	r1, r1
    34ae:	0b b6       	in	r0, 0x3b	; 59
    34b0:	0f 92       	push	r0
    34b2:	2f 93       	push	r18
    34b4:	3f 93       	push	r19
    34b6:	4f 93       	push	r20
    34b8:	5f 93       	push	r21
    34ba:	6f 93       	push	r22
    34bc:	7f 93       	push	r23
    34be:	8f 93       	push	r24
    34c0:	9f 93       	push	r25
    34c2:	af 93       	push	r26
    34c4:	bf 93       	push	r27
    34c6:	ef 93       	push	r30
    34c8:	ff 93       	push	r31
C:\Users\admin\AppData\Local\Arduino15\packages\MegaCore\hardware\avr\3.0.0\cores\MCUdude_corefiles/HardwareSerial0.cpp:64
  Serial._tx_udr_empty_irq();
    34ca:	88 e4       	ldi	r24, 0x48	; 72
    34cc:	94 e0       	ldi	r25, 0x04	; 4
    34ce:	0e 94 12 09 	call	0x1224	; 0x1224 <HardwareSerial::_tx_udr_empty_irq()>
C:\Users\admin\AppData\Local\Arduino15\packages\MegaCore\hardware\avr\3.0.0\cores\MCUdude_corefiles/HardwareSerial0.cpp:65
}
    34d2:	ff 91       	pop	r31
    34d4:	ef 91       	pop	r30
    34d6:	bf 91       	pop	r27
    34d8:	af 91       	pop	r26
    34da:	9f 91       	pop	r25
    34dc:	8f 91       	pop	r24
    34de:	7f 91       	pop	r23
    34e0:	6f 91       	pop	r22
    34e2:	5f 91       	pop	r21
    34e4:	4f 91       	pop	r20
    34e6:	3f 91       	pop	r19
    34e8:	2f 91       	pop	r18
    34ea:	0f 90       	pop	r0
    34ec:	0b be       	out	0x3b, r0	; 59
    34ee:	0f 90       	pop	r0
    34f0:	0f be       	out	0x3f, r0	; 63
    34f2:	0f 90       	pop	r0
    34f4:	1f 90       	pop	r1
    34f6:	18 95       	reti

000034f8 <__vector_25>:
__vector_25():
C:\Users\admin\AppData\Local\Arduino15\packages\MegaCore\hardware\avr\3.0.0\cores\MCUdude_corefiles/HardwareSerial0.cpp:50
#elif defined(USART_RX_vect)
  ISR(USART_RX_vect)
#else
  #error "Don't know what the Data Received vector is called for Serial"
#endif
  {
    34f8:	1f 92       	push	r1
    34fa:	0f 92       	push	r0
    34fc:	0f b6       	in	r0, 0x3f	; 63
    34fe:	0f 92       	push	r0
    3500:	11 24       	eor	r1, r1
    3502:	0b b6       	in	r0, 0x3b	; 59
    3504:	0f 92       	push	r0
    3506:	2f 93       	push	r18
    3508:	8f 93       	push	r24
    350a:	9f 93       	push	r25
    350c:	ef 93       	push	r30
    350e:	ff 93       	push	r31
_rx_complete_irq():
C:\Users\admin\AppData\Local\Arduino15\packages\MegaCore\hardware\avr\3.0.0\cores\MCUdude_corefiles/HardwareSerial_private.h:100

// Actual interrupt handlers //////////////////////////////////////////////////////////////

void HardwareSerial::_rx_complete_irq(void)
{
  if (bit_is_clear(*_ucsra, UPE0)) {
    3510:	e0 91 58 04 	lds	r30, 0x0458	; 0x800458 <Serial+0x10>
    3514:	f0 91 59 04 	lds	r31, 0x0459	; 0x800459 <Serial+0x11>
    3518:	80 81       	ld	r24, Z
    351a:	e0 91 5e 04 	lds	r30, 0x045E	; 0x80045e <Serial+0x16>
    351e:	f0 91 5f 04 	lds	r31, 0x045F	; 0x80045f <Serial+0x17>
    3522:	82 fd       	sbrc	r24, 2
    3524:	1d c0       	rjmp	.+58     	; 0x3560 <__vector_25+0x68>
C:\Users\admin\AppData\Local\Arduino15\packages\MegaCore\hardware\avr\3.0.0\cores\MCUdude_corefiles/HardwareSerial_private.h:103
    // No Parity error, read byte and store it in the buffer if there is
    // room
    unsigned char c = *_udr;
    3526:	90 81       	ld	r25, Z
C:\Users\admin\AppData\Local\Arduino15\packages\MegaCore\hardware\avr\3.0.0\cores\MCUdude_corefiles/HardwareSerial_private.h:104
    rx_buffer_index_t i = (unsigned int)(_rx_buffer_head + 1) % SERIAL_RX_BUFFER_SIZE;
    3528:	80 91 61 04 	lds	r24, 0x0461	; 0x800461 <Serial+0x19>
    352c:	8f 5f       	subi	r24, 0xFF	; 255
    352e:	8f 73       	andi	r24, 0x3F	; 63
C:\Users\admin\AppData\Local\Arduino15\packages\MegaCore\hardware\avr\3.0.0\cores\MCUdude_corefiles/HardwareSerial_private.h:110

    // if we should be storing the received character into the location
    // just before the tail (meaning that the head would advance to the
    // current location of the tail), we're about to overflow the buffer
    // and so we don't write the character or advance the head.
    if (i != _rx_buffer_tail) {
    3530:	20 91 62 04 	lds	r18, 0x0462	; 0x800462 <Serial+0x1a>
    3534:	82 17       	cp	r24, r18
    3536:	41 f0       	breq	.+16     	; 0x3548 <__vector_25+0x50>
C:\Users\admin\AppData\Local\Arduino15\packages\MegaCore\hardware\avr\3.0.0\cores\MCUdude_corefiles/HardwareSerial_private.h:111
      _rx_buffer[_rx_buffer_head] = c;
    3538:	e0 91 61 04 	lds	r30, 0x0461	; 0x800461 <Serial+0x19>
    353c:	f0 e0       	ldi	r31, 0x00	; 0
    353e:	e8 5b       	subi	r30, 0xB8	; 184
    3540:	fb 4f       	sbci	r31, 0xFB	; 251
    3542:	95 8f       	std	Z+29, r25	; 0x1d
C:\Users\admin\AppData\Local\Arduino15\packages\MegaCore\hardware\avr\3.0.0\cores\MCUdude_corefiles/HardwareSerial_private.h:112
      _rx_buffer_head = i;
    3544:	80 93 61 04 	sts	0x0461, r24	; 0x800461 <Serial+0x19>
__vector_25():
C:\Users\admin\AppData\Local\Arduino15\packages\MegaCore\hardware\avr\3.0.0\cores\MCUdude_corefiles/HardwareSerial0.cpp:52
    Serial._rx_complete_irq();
  }
    3548:	ff 91       	pop	r31
    354a:	ef 91       	pop	r30
    354c:	9f 91       	pop	r25
    354e:	8f 91       	pop	r24
    3550:	2f 91       	pop	r18
    3552:	0f 90       	pop	r0
    3554:	0b be       	out	0x3b, r0	; 59
    3556:	0f 90       	pop	r0
    3558:	0f be       	out	0x3f, r0	; 63
    355a:	0f 90       	pop	r0
    355c:	1f 90       	pop	r1
    355e:	18 95       	reti
_rx_complete_irq():
C:\Users\admin\AppData\Local\Arduino15\packages\MegaCore\hardware\avr\3.0.0\cores\MCUdude_corefiles/HardwareSerial_private.h:116
    }
  } else {
    // Parity error, read byte but discard it
    *_udr;
    3560:	80 81       	ld	r24, Z
    3562:	f2 cf       	rjmp	.-28     	; 0x3548 <__vector_25+0x50>

00003564 <__vector_39>:
__vector_39():
C:\Users\admin\AppData\Local\Arduino15\packages\MegaCore\hardware\avr\3.0.0\libraries\Wire\src\TwoWire\utility/twi.c:528
  }
  return(flag);
}

ISR(TWI_vect)
{
    3564:	1f 92       	push	r1
    3566:	0f 92       	push	r0
    3568:	0f b6       	in	r0, 0x3f	; 63
    356a:	0f 92       	push	r0
    356c:	11 24       	eor	r1, r1
    356e:	0b b6       	in	r0, 0x3b	; 59
    3570:	0f 92       	push	r0
    3572:	2f 93       	push	r18
    3574:	3f 93       	push	r19
    3576:	4f 93       	push	r20
    3578:	5f 93       	push	r21
    357a:	6f 93       	push	r22
    357c:	7f 93       	push	r23
    357e:	8f 93       	push	r24
    3580:	9f 93       	push	r25
    3582:	af 93       	push	r26
    3584:	bf 93       	push	r27
    3586:	ef 93       	push	r30
    3588:	ff 93       	push	r31
C:\Users\admin\AppData\Local\Arduino15\packages\MegaCore\hardware\avr\3.0.0\libraries\Wire\src\TwoWire\utility/twi.c:529
  switch(TW_STATUS){
    358a:	80 91 b9 00 	lds	r24, 0x00B9	; 0x8000b9 <__TEXT_REGION_LENGTH__+0x7000b9>
    358e:	88 7f       	andi	r24, 0xF8	; 248
    3590:	80 36       	cpi	r24, 0x60	; 96
    3592:	09 f4       	brne	.+2      	; 0x3596 <__vector_39+0x32>
    3594:	4d c0       	rjmp	.+154    	; 0x3630 <__vector_39+0xcc>
    3596:	08 f0       	brcs	.+2      	; 0x359a <__vector_39+0x36>
    3598:	40 c0       	rjmp	.+128    	; 0x361a <__vector_39+0xb6>
    359a:	88 32       	cpi	r24, 0x28	; 40
    359c:	09 f4       	brne	.+2      	; 0x35a0 <__vector_39+0x3c>
    359e:	a7 c0       	rjmp	.+334    	; 0x36ee <__vector_39+0x18a>
    35a0:	28 f5       	brcc	.+74     	; 0x35ec <__vector_39+0x88>
    35a2:	80 31       	cpi	r24, 0x10	; 16
    35a4:	09 f4       	brne	.+2      	; 0x35a8 <__vector_39+0x44>
    35a6:	9b c0       	rjmp	.+310    	; 0x36de <__vector_39+0x17a>
    35a8:	c8 f4       	brcc	.+50     	; 0x35dc <__vector_39+0x78>
    35aa:	88 23       	and	r24, r24
    35ac:	09 f4       	brne	.+2      	; 0x35b0 <__vector_39+0x4c>
    35ae:	f1 c0       	rjmp	.+482    	; 0x3792 <__vector_39+0x22e>
    35b0:	88 30       	cpi	r24, 0x08	; 8
    35b2:	09 f4       	brne	.+2      	; 0x35b6 <__vector_39+0x52>
    35b4:	94 c0       	rjmp	.+296    	; 0x36de <__vector_39+0x17a>
C:\Users\admin\AppData\Local\Arduino15\packages\MegaCore\hardware\avr\3.0.0\libraries\Wire\src\TwoWire\utility/twi.c:690
    case TW_BUS_ERROR: // bus error, illegal stop/start
      twi_error = TW_BUS_ERROR;
      twi_stop();
      break;
  }
}
    35b6:	ff 91       	pop	r31
    35b8:	ef 91       	pop	r30
    35ba:	bf 91       	pop	r27
    35bc:	af 91       	pop	r26
    35be:	9f 91       	pop	r25
    35c0:	8f 91       	pop	r24
    35c2:	7f 91       	pop	r23
    35c4:	6f 91       	pop	r22
    35c6:	5f 91       	pop	r21
    35c8:	4f 91       	pop	r20
    35ca:	3f 91       	pop	r19
    35cc:	2f 91       	pop	r18
    35ce:	0f 90       	pop	r0
    35d0:	0b be       	out	0x3b, r0	; 59
    35d2:	0f 90       	pop	r0
    35d4:	0f be       	out	0x3f, r0	; 63
    35d6:	0f 90       	pop	r0
    35d8:	1f 90       	pop	r1
    35da:	18 95       	reti
C:\Users\admin\AppData\Local\Arduino15\packages\MegaCore\hardware\avr\3.0.0\libraries\Wire\src\TwoWire\utility/twi.c:529
  return(flag);
}

ISR(TWI_vect)
{
  switch(TW_STATUS){
    35dc:	88 31       	cpi	r24, 0x18	; 24
    35de:	09 f4       	brne	.+2      	; 0x35e2 <__vector_39+0x7e>
    35e0:	86 c0       	rjmp	.+268    	; 0x36ee <__vector_39+0x18a>
    35e2:	80 32       	cpi	r24, 0x20	; 32
    35e4:	41 f7       	brne	.-48     	; 0x35b6 <__vector_39+0x52>
C:\Users\admin\AppData\Local\Arduino15\packages\MegaCore\hardware\avr\3.0.0\libraries\Wire\src\TwoWire\utility/twi.c:564
    case TW_MT_SLA_NACK:  // address sent, nack received
      twi_error = TW_MT_SLA_NACK;
      twi_stop();
      break;
    case TW_MT_DATA_NACK: // data sent, nack received
      twi_error = TW_MT_DATA_NACK;
    35e6:	80 93 69 03 	sts	0x0369, r24	; 0x800369 <twi_error>
    35ea:	14 c0       	rjmp	.+40     	; 0x3614 <__vector_39+0xb0>
C:\Users\admin\AppData\Local\Arduino15\packages\MegaCore\hardware\avr\3.0.0\libraries\Wire\src\TwoWire\utility/twi.c:529
  return(flag);
}

ISR(TWI_vect)
{
  switch(TW_STATUS){
    35ec:	80 34       	cpi	r24, 0x40	; 64
    35ee:	09 f4       	brne	.+2      	; 0x35f2 <__vector_39+0x8e>
    35f0:	97 c0       	rjmp	.+302    	; 0x3720 <__vector_39+0x1bc>
    35f2:	40 f4       	brcc	.+16     	; 0x3604 <__vector_39+0xa0>
    35f4:	80 33       	cpi	r24, 0x30	; 48
    35f6:	b9 f3       	breq	.-18     	; 0x35e6 <__vector_39+0x82>
    35f8:	88 33       	cpi	r24, 0x38	; 56
    35fa:	e9 f6       	brne	.-70     	; 0x35b6 <__vector_39+0x52>
C:\Users\admin\AppData\Local\Arduino15\packages\MegaCore\hardware\avr\3.0.0\libraries\Wire\src\TwoWire\utility/twi.c:568
    case TW_MT_DATA_NACK: // data sent, nack received
      twi_error = TW_MT_DATA_NACK;
      twi_stop();
      break;
    case TW_MT_ARB_LOST: // lost bus arbitration
      twi_error = TW_MT_ARB_LOST;
    35fc:	80 93 69 03 	sts	0x0369, r24	; 0x800369 <twi_error>
twi_reply():
C:\Users\admin\AppData\Local\Arduino15\packages\MegaCore\hardware\avr\3.0.0\libraries\Wire\src\TwoWire\utility/twi.c:415
 */
void twi_reply(uint8_t ack)
{
  // transmit master read ready signal, with or without ack
  if(ack){
    TWCR = _BV(TWEN) | _BV(TWIE) | _BV(TWINT) | _BV(TWEA);
    3600:	85 ec       	ldi	r24, 0xC5	; 197
    3602:	a8 c0       	rjmp	.+336    	; 0x3754 <__vector_39+0x1f0>
__vector_39():
C:\Users\admin\AppData\Local\Arduino15\packages\MegaCore\hardware\avr\3.0.0\libraries\Wire\src\TwoWire\utility/twi.c:529
  return(flag);
}

ISR(TWI_vect)
{
  switch(TW_STATUS){
    3604:	80 35       	cpi	r24, 0x50	; 80
    3606:	09 f4       	brne	.+2      	; 0x360a <__vector_39+0xa6>
    3608:	81 c0       	rjmp	.+258    	; 0x370c <__vector_39+0x1a8>
    360a:	88 35       	cpi	r24, 0x58	; 88
    360c:	09 f4       	brne	.+2      	; 0x3610 <__vector_39+0xac>
    360e:	90 c0       	rjmp	.+288    	; 0x3730 <__vector_39+0x1cc>
    3610:	88 34       	cpi	r24, 0x48	; 72
    3612:	89 f6       	brne	.-94     	; 0x35b6 <__vector_39+0x52>
C:\Users\admin\AppData\Local\Arduino15\packages\MegaCore\hardware\avr\3.0.0\libraries\Wire\src\TwoWire\utility/twi.c:687
    // All
    case TW_NO_INFO:   // no state information
      break;
    case TW_BUS_ERROR: // bus error, illegal stop/start
      twi_error = TW_BUS_ERROR;
      twi_stop();
    3614:	0e 94 ce 09 	call	0x139c	; 0x139c <twi_stop>
    3618:	ce cf       	rjmp	.-100    	; 0x35b6 <__vector_39+0x52>
C:\Users\admin\AppData\Local\Arduino15\packages\MegaCore\hardware\avr\3.0.0\libraries\Wire\src\TwoWire\utility/twi.c:529
  return(flag);
}

ISR(TWI_vect)
{
  switch(TW_STATUS){
    361a:	88 39       	cpi	r24, 0x98	; 152
    361c:	09 f4       	brne	.+2      	; 0x3620 <__vector_39+0xbc>
    361e:	86 c0       	rjmp	.+268    	; 0x372c <__vector_39+0x1c8>
    3620:	38 f5       	brcc	.+78     	; 0x3670 <__vector_39+0x10c>
    3622:	88 37       	cpi	r24, 0x78	; 120
    3624:	29 f0       	breq	.+10     	; 0x3630 <__vector_39+0xcc>
    3626:	50 f4       	brcc	.+20     	; 0x363c <__vector_39+0xd8>
    3628:	88 36       	cpi	r24, 0x68	; 104
    362a:	11 f0       	breq	.+4      	; 0x3630 <__vector_39+0xcc>
    362c:	80 37       	cpi	r24, 0x70	; 112
    362e:	19 f6       	brne	.-122    	; 0x35b6 <__vector_39+0x52>
C:\Users\admin\AppData\Local\Arduino15\packages\MegaCore\hardware\avr\3.0.0\libraries\Wire\src\TwoWire\utility/twi.c:610
    case TW_SR_SLA_ACK:   // addressed, returned ack
    case TW_SR_GCALL_ACK: // addressed generally, returned ack
    case TW_SR_ARB_LOST_SLA_ACK:   // lost arbitration, returned ack
    case TW_SR_ARB_LOST_GCALL_ACK: // lost arbitration, returned ack
      // enter slave receiver mode
      twi_state = TWI_SRX;
    3630:	83 e0       	ldi	r24, 0x03	; 3
    3632:	80 93 6a 03 	sts	0x036A, r24	; 0x80036a <twi_state>
C:\Users\admin\AppData\Local\Arduino15\packages\MegaCore\hardware\avr\3.0.0\libraries\Wire\src\TwoWire\utility/twi.c:612
      // indicate that rx buffer can be overwritten and ack
      twi_rxBufferIndex = 0;
    3636:	10 92 68 03 	sts	0x0368, r1	; 0x800368 <twi_rxBufferIndex>
    363a:	55 c0       	rjmp	.+170    	; 0x36e6 <__vector_39+0x182>
C:\Users\admin\AppData\Local\Arduino15\packages\MegaCore\hardware\avr\3.0.0\libraries\Wire\src\TwoWire\utility/twi.c:529
  return(flag);
}

ISR(TWI_vect)
{
  switch(TW_STATUS){
    363c:	88 38       	cpi	r24, 0x88	; 136
    363e:	09 f4       	brne	.+2      	; 0x3642 <__vector_39+0xde>
    3640:	75 c0       	rjmp	.+234    	; 0x372c <__vector_39+0x1c8>
    3642:	80 39       	cpi	r24, 0x90	; 144
    3644:	19 f0       	breq	.+6      	; 0x364c <__vector_39+0xe8>
    3646:	80 38       	cpi	r24, 0x80	; 128
    3648:	09 f0       	breq	.+2      	; 0x364c <__vector_39+0xe8>
    364a:	b5 cf       	rjmp	.-150    	; 0x35b6 <__vector_39+0x52>
C:\Users\admin\AppData\Local\Arduino15\packages\MegaCore\hardware\avr\3.0.0\libraries\Wire\src\TwoWire\utility/twi.c:618
      twi_reply(1);
      break;
    case TW_SR_DATA_ACK:       // data received, returned ack
    case TW_SR_GCALL_DATA_ACK: // data received generally, returned ack
      // if there is still room in the rx buffer
      if(twi_rxBufferIndex < TWI_BUFFER_SIZE){
    364c:	80 91 68 03 	lds	r24, 0x0368	; 0x800368 <twi_rxBufferIndex>
    3650:	80 32       	cpi	r24, 0x20	; 32
    3652:	08 f0       	brcs	.+2      	; 0x3656 <__vector_39+0xf2>
    3654:	6b c0       	rjmp	.+214    	; 0x372c <__vector_39+0x1c8>
C:\Users\admin\AppData\Local\Arduino15\packages\MegaCore\hardware\avr\3.0.0\libraries\Wire\src\TwoWire\utility/twi.c:620
        // put byte in buffer and ack
        twi_rxBuffer[twi_rxBufferIndex++] = TWDR;
    3656:	e0 91 68 03 	lds	r30, 0x0368	; 0x800368 <twi_rxBufferIndex>
    365a:	81 e0       	ldi	r24, 0x01	; 1
    365c:	8e 0f       	add	r24, r30
    365e:	80 93 68 03 	sts	0x0368, r24	; 0x800368 <twi_rxBufferIndex>
    3662:	80 91 bb 00 	lds	r24, 0x00BB	; 0x8000bb <__TEXT_REGION_LENGTH__+0x7000bb>
    3666:	f0 e0       	ldi	r31, 0x00	; 0
    3668:	e8 5b       	subi	r30, 0xB8	; 184
    366a:	fc 4f       	sbci	r31, 0xFC	; 252
    366c:	80 83       	st	Z, r24
    366e:	3b c0       	rjmp	.+118    	; 0x36e6 <__vector_39+0x182>
C:\Users\admin\AppData\Local\Arduino15\packages\MegaCore\hardware\avr\3.0.0\libraries\Wire\src\TwoWire\utility/twi.c:529
  return(flag);
}

ISR(TWI_vect)
{
  switch(TW_STATUS){
    3670:	80 3b       	cpi	r24, 0xB0	; 176
    3672:	39 f0       	breq	.+14     	; 0x3682 <__vector_39+0x11e>
    3674:	d0 f4       	brcc	.+52     	; 0x36aa <__vector_39+0x146>
    3676:	80 3a       	cpi	r24, 0xA0	; 160
    3678:	09 f4       	brne	.+2      	; 0x367c <__vector_39+0x118>
    367a:	71 c0       	rjmp	.+226    	; 0x375e <__vector_39+0x1fa>
    367c:	88 3a       	cpi	r24, 0xA8	; 168
    367e:	09 f0       	breq	.+2      	; 0x3682 <__vector_39+0x11e>
    3680:	9a cf       	rjmp	.-204    	; 0x35b6 <__vector_39+0x52>
C:\Users\admin\AppData\Local\Arduino15\packages\MegaCore\hardware\avr\3.0.0\libraries\Wire\src\TwoWire\utility/twi.c:649

    // Slave Transmitter
    case TW_ST_SLA_ACK:          // addressed, returned ack
    case TW_ST_ARB_LOST_SLA_ACK: // arbitration lost, returned ack
      // enter slave transmitter mode
      twi_state = TWI_STX;
    3682:	84 e0       	ldi	r24, 0x04	; 4
    3684:	80 93 6a 03 	sts	0x036A, r24	; 0x80036a <twi_state>
C:\Users\admin\AppData\Local\Arduino15\packages\MegaCore\hardware\avr\3.0.0\libraries\Wire\src\TwoWire\utility/twi.c:651
      // ready the tx buffer index for iteration
      twi_txBufferIndex = 0;
    3688:	10 92 47 03 	sts	0x0347, r1	; 0x800347 <twi_txBufferIndex>
C:\Users\admin\AppData\Local\Arduino15\packages\MegaCore\hardware\avr\3.0.0\libraries\Wire\src\TwoWire\utility/twi.c:653
      // set tx buffer length to be zero, to verify if user changes it
      twi_txBufferLength = 0;
    368c:	10 92 46 03 	sts	0x0346, r1	; 0x800346 <twi_txBufferLength>
C:\Users\admin\AppData\Local\Arduino15\packages\MegaCore\hardware\avr\3.0.0\libraries\Wire\src\TwoWire\utility/twi.c:656
      // request for txBuffer to be filled and length to be set
      // note: user must call twi_transmit(bytes, length) to do this
      twi_onSlaveTransmit();
    3690:	f0 e0       	ldi	r31, 0x00	; 0
    3692:	e0 e0       	ldi	r30, 0x00	; 0
    3694:	19 95       	eicall
C:\Users\admin\AppData\Local\Arduino15\packages\MegaCore\hardware\avr\3.0.0\libraries\Wire\src\TwoWire\utility/twi.c:658
      // if they didn't change buffer & length, initialize it
      if(0 == twi_txBufferLength){
    3696:	80 91 46 03 	lds	r24, 0x0346	; 0x800346 <twi_txBufferLength>
    369a:	81 11       	cpse	r24, r1
    369c:	0f c0       	rjmp	.+30     	; 0x36bc <__vector_39+0x158>
C:\Users\admin\AppData\Local\Arduino15\packages\MegaCore\hardware\avr\3.0.0\libraries\Wire\src\TwoWire\utility/twi.c:659
        twi_txBufferLength = 1;
    369e:	81 e0       	ldi	r24, 0x01	; 1
    36a0:	80 93 46 03 	sts	0x0346, r24	; 0x800346 <twi_txBufferLength>
C:\Users\admin\AppData\Local\Arduino15\packages\MegaCore\hardware\avr\3.0.0\libraries\Wire\src\TwoWire\utility/twi.c:660
        twi_txBuffer[0] = 0x00;
    36a4:	10 92 26 03 	sts	0x0326, r1	; 0x800326 <twi_txBuffer>
    36a8:	09 c0       	rjmp	.+18     	; 0x36bc <__vector_39+0x158>
C:\Users\admin\AppData\Local\Arduino15\packages\MegaCore\hardware\avr\3.0.0\libraries\Wire\src\TwoWire\utility/twi.c:529
  return(flag);
}

ISR(TWI_vect)
{
  switch(TW_STATUS){
    36aa:	80 3c       	cpi	r24, 0xC0	; 192
    36ac:	09 f4       	brne	.+2      	; 0x36b0 <__vector_39+0x14c>
    36ae:	a8 cf       	rjmp	.-176    	; 0x3600 <__vector_39+0x9c>
    36b0:	88 3c       	cpi	r24, 0xC8	; 200
    36b2:	09 f4       	brne	.+2      	; 0x36b6 <__vector_39+0x152>
    36b4:	a5 cf       	rjmp	.-182    	; 0x3600 <__vector_39+0x9c>
    36b6:	88 3b       	cpi	r24, 0xB8	; 184
    36b8:	09 f0       	breq	.+2      	; 0x36bc <__vector_39+0x158>
    36ba:	7d cf       	rjmp	.-262    	; 0x35b6 <__vector_39+0x52>
C:\Users\admin\AppData\Local\Arduino15\packages\MegaCore\hardware\avr\3.0.0\libraries\Wire\src\TwoWire\utility/twi.c:666
      }
      // transmit first byte from buffer, fall
      /* fall through */
    case TW_ST_DATA_ACK: // byte sent, ack returned
      // copy data to output register
      TWDR = twi_txBuffer[twi_txBufferIndex++];
    36bc:	e0 91 47 03 	lds	r30, 0x0347	; 0x800347 <twi_txBufferIndex>
    36c0:	81 e0       	ldi	r24, 0x01	; 1
    36c2:	8e 0f       	add	r24, r30
    36c4:	80 93 47 03 	sts	0x0347, r24	; 0x800347 <twi_txBufferIndex>
    36c8:	f0 e0       	ldi	r31, 0x00	; 0
    36ca:	ea 5d       	subi	r30, 0xDA	; 218
    36cc:	fc 4f       	sbci	r31, 0xFC	; 252
    36ce:	80 81       	ld	r24, Z
    36d0:	80 93 bb 00 	sts	0x00BB, r24	; 0x8000bb <__TEXT_REGION_LENGTH__+0x7000bb>
C:\Users\admin\AppData\Local\Arduino15\packages\MegaCore\hardware\avr\3.0.0\libraries\Wire\src\TwoWire\utility/twi.c:668
      // if there is more to send, ack, otherwise nack
      if(twi_txBufferIndex < twi_txBufferLength){
    36d4:	90 91 47 03 	lds	r25, 0x0347	; 0x800347 <twi_txBufferIndex>
    36d8:	80 91 46 03 	lds	r24, 0x0346	; 0x800346 <twi_txBufferLength>
    36dc:	25 c0       	rjmp	.+74     	; 0x3728 <__vector_39+0x1c4>
C:\Users\admin\AppData\Local\Arduino15\packages\MegaCore\hardware\avr\3.0.0\libraries\Wire\src\TwoWire\utility/twi.c:534
  switch(TW_STATUS){
    // All Master
    case TW_START:     // sent start condition
    case TW_REP_START: // sent repeated start condition
      // copy device address and r/w bit to output register and ack
      TWDR = twi_slarw;
    36de:	80 91 6f 03 	lds	r24, 0x036F	; 0x80036f <twi_slarw>
C:\Users\admin\AppData\Local\Arduino15\packages\MegaCore\hardware\avr\3.0.0\libraries\Wire\src\TwoWire\utility/twi.c:544
    case TW_MT_SLA_ACK:  // slave receiver acked address
    case TW_MT_DATA_ACK: // slave receiver acked data
      // if there is data to send, send it, otherwise stop
      if(twi_masterBufferIndex < twi_masterBufferLength){
        // copy data to output register and ack
        TWDR = twi_masterBuffer[twi_masterBufferIndex++];
    36e2:	80 93 bb 00 	sts	0x00BB, r24	; 0x8000bb <__TEXT_REGION_LENGTH__+0x7000bb>
twi_reply():
C:\Users\admin\AppData\Local\Arduino15\packages\MegaCore\hardware\avr\3.0.0\libraries\Wire\src\TwoWire\utility/twi.c:415
 */
void twi_reply(uint8_t ack)
{
  // transmit master read ready signal, with or without ack
  if(ack){
    TWCR = _BV(TWEN) | _BV(TWIE) | _BV(TWINT) | _BV(TWEA);
    36e6:	85 ec       	ldi	r24, 0xC5	; 197
C:\Users\admin\AppData\Local\Arduino15\packages\MegaCore\hardware\avr\3.0.0\libraries\Wire\src\TwoWire\utility/twi.c:417
  }else{
    TWCR = _BV(TWEN) | _BV(TWIE) | _BV(TWINT);
    36e8:	80 93 bc 00 	sts	0x00BC, r24	; 0x8000bc <__TEXT_REGION_LENGTH__+0x7000bc>
    36ec:	64 cf       	rjmp	.-312    	; 0x35b6 <__vector_39+0x52>
__vector_39():
C:\Users\admin\AppData\Local\Arduino15\packages\MegaCore\hardware\avr\3.0.0\libraries\Wire\src\TwoWire\utility/twi.c:542

    // Master Transmitter
    case TW_MT_SLA_ACK:  // slave receiver acked address
    case TW_MT_DATA_ACK: // slave receiver acked data
      // if there is data to send, send it, otherwise stop
      if(twi_masterBufferIndex < twi_masterBufferLength){
    36ee:	90 91 6e 03 	lds	r25, 0x036E	; 0x80036e <twi_masterBufferIndex>
    36f2:	80 91 6d 03 	lds	r24, 0x036D	; 0x80036d <twi_masterBufferLength>
    36f6:	98 17       	cp	r25, r24
    36f8:	28 f5       	brcc	.+74     	; 0x3744 <__vector_39+0x1e0>
C:\Users\admin\AppData\Local\Arduino15\packages\MegaCore\hardware\avr\3.0.0\libraries\Wire\src\TwoWire\utility/twi.c:544
        // copy data to output register and ack
        TWDR = twi_masterBuffer[twi_masterBufferIndex++];
    36fa:	e0 91 6e 03 	lds	r30, 0x036E	; 0x80036e <twi_masterBufferIndex>
    36fe:	81 e0       	ldi	r24, 0x01	; 1
    3700:	8e 0f       	add	r24, r30
    3702:	80 93 6e 03 	sts	0x036E, r24	; 0x80036e <twi_masterBufferIndex>
    3706:	f0 e0       	ldi	r31, 0x00	; 0
    3708:	80 81       	ld	r24, Z
    370a:	eb cf       	rjmp	.-42     	; 0x36e2 <__vector_39+0x17e>
C:\Users\admin\AppData\Local\Arduino15\packages\MegaCore\hardware\avr\3.0.0\libraries\Wire\src\TwoWire\utility/twi.c:575
      break;

    // Master Receiver
    case TW_MR_DATA_ACK: // data received, ack sent
      // put byte into buffer
      twi_masterBuffer[twi_masterBufferIndex++] = TWDR;
    370c:	e0 91 6e 03 	lds	r30, 0x036E	; 0x80036e <twi_masterBufferIndex>
    3710:	81 e0       	ldi	r24, 0x01	; 1
    3712:	8e 0f       	add	r24, r30
    3714:	80 93 6e 03 	sts	0x036E, r24	; 0x80036e <twi_masterBufferIndex>
    3718:	80 91 bb 00 	lds	r24, 0x00BB	; 0x8000bb <__TEXT_REGION_LENGTH__+0x7000bb>
    371c:	f0 e0       	ldi	r31, 0x00	; 0
    371e:	80 83       	st	Z, r24
C:\Users\admin\AppData\Local\Arduino15\packages\MegaCore\hardware\avr\3.0.0\libraries\Wire\src\TwoWire\utility/twi.c:579
      /* fall through */
    case TW_MR_SLA_ACK:  // address sent, ack received
      // ack if more bytes are expected, otherwise nack
      if(twi_masterBufferIndex < twi_masterBufferLength){
    3720:	90 91 6e 03 	lds	r25, 0x036E	; 0x80036e <twi_masterBufferIndex>
    3724:	80 91 6d 03 	lds	r24, 0x036D	; 0x80036d <twi_masterBufferLength>
C:\Users\admin\AppData\Local\Arduino15\packages\MegaCore\hardware\avr\3.0.0\libraries\Wire\src\TwoWire\utility/twi.c:668
      /* fall through */
    case TW_ST_DATA_ACK: // byte sent, ack returned
      // copy data to output register
      TWDR = twi_txBuffer[twi_txBufferIndex++];
      // if there is more to send, ack, otherwise nack
      if(twi_txBufferIndex < twi_txBufferLength){
    3728:	98 17       	cp	r25, r24
    372a:	e8 f2       	brcs	.-70     	; 0x36e6 <__vector_39+0x182>
twi_reply():
C:\Users\admin\AppData\Local\Arduino15\packages\MegaCore\hardware\avr\3.0.0\libraries\Wire\src\TwoWire\utility/twi.c:417
{
  // transmit master read ready signal, with or without ack
  if(ack){
    TWCR = _BV(TWEN) | _BV(TWIE) | _BV(TWINT) | _BV(TWEA);
  }else{
    TWCR = _BV(TWEN) | _BV(TWIE) | _BV(TWINT);
    372c:	85 e8       	ldi	r24, 0x85	; 133
    372e:	dc cf       	rjmp	.-72     	; 0x36e8 <__vector_39+0x184>
__vector_39():
C:\Users\admin\AppData\Local\Arduino15\packages\MegaCore\hardware\avr\3.0.0\libraries\Wire\src\TwoWire\utility/twi.c:587
        twi_reply(0);
      }
      break;
    case TW_MR_DATA_NACK: // data received, nack sent
      // put final byte into buffer
      twi_masterBuffer[twi_masterBufferIndex++] = TWDR;
    3730:	e0 91 6e 03 	lds	r30, 0x036E	; 0x80036e <twi_masterBufferIndex>
    3734:	81 e0       	ldi	r24, 0x01	; 1
    3736:	8e 0f       	add	r24, r30
    3738:	80 93 6e 03 	sts	0x036E, r24	; 0x80036e <twi_masterBufferIndex>
    373c:	80 91 bb 00 	lds	r24, 0x00BB	; 0x8000bb <__TEXT_REGION_LENGTH__+0x7000bb>
    3740:	f0 e0       	ldi	r31, 0x00	; 0
    3742:	80 83       	st	Z, r24
C:\Users\admin\AppData\Local\Arduino15\packages\MegaCore\hardware\avr\3.0.0\libraries\Wire\src\TwoWire\utility/twi.c:588
  if (twi_sendStop)
    3744:	80 91 6c 03 	lds	r24, 0x036C	; 0x80036c <twi_sendStop>
    3748:	81 11       	cpse	r24, r1
    374a:	64 cf       	rjmp	.-312    	; 0x3614 <__vector_39+0xb0>
C:\Users\admin\AppData\Local\Arduino15\packages\MegaCore\hardware\avr\3.0.0\libraries\Wire\src\TwoWire\utility/twi.c:591
          twi_stop();
  else {
    twi_inRepStart = true;  // we're going to send the START
    374c:	81 e0       	ldi	r24, 0x01	; 1
    374e:	80 93 6b 03 	sts	0x036B, r24	; 0x80036b <twi_inRepStart>
C:\Users\admin\AppData\Local\Arduino15\packages\MegaCore\hardware\avr\3.0.0\libraries\Wire\src\TwoWire\utility/twi.c:595
    // don't enable the interrupt. We'll generate the start, but we
    // avoid handling the interrupt until we're in the next transaction,
    // at the point where we would normally issue the start.
    TWCR = _BV(TWINT) | _BV(TWSTA)| _BV(TWEN) ;
    3752:	84 ea       	ldi	r24, 0xA4	; 164
twi_reply():
C:\Users\admin\AppData\Local\Arduino15\packages\MegaCore\hardware\avr\3.0.0\libraries\Wire\src\TwoWire\utility/twi.c:415
 */
void twi_reply(uint8_t ack)
{
  // transmit master read ready signal, with or without ack
  if(ack){
    TWCR = _BV(TWEN) | _BV(TWIE) | _BV(TWINT) | _BV(TWEA);
    3754:	80 93 bc 00 	sts	0x00BC, r24	; 0x8000bc <__TEXT_REGION_LENGTH__+0x7000bc>
__vector_39():
C:\Users\admin\AppData\Local\Arduino15\packages\MegaCore\hardware\avr\3.0.0\libraries\Wire\src\TwoWire\utility/twi.c:679
    case TW_ST_DATA_NACK: // received nack, we are done
    case TW_ST_LAST_DATA: // received ack, but we are done already!
      // ack future responses
      twi_reply(1);
      // leave slave receiver state
      twi_state = TWI_READY;
    3758:	10 92 6a 03 	sts	0x036A, r1	; 0x80036a <twi_state>
    375c:	2c cf       	rjmp	.-424    	; 0x35b6 <__vector_39+0x52>
twi_releaseBus():
C:\Users\admin\AppData\Local\Arduino15\packages\MegaCore\hardware\avr\3.0.0\libraries\Wire\src\TwoWire\utility/twi.c:468
 * Output   none
 */
void twi_releaseBus(void)
{
  // release bus
  TWCR = _BV(TWEN) | _BV(TWIE) | _BV(TWEA) | _BV(TWINT);
    375e:	85 ec       	ldi	r24, 0xC5	; 197
    3760:	80 93 bc 00 	sts	0x00BC, r24	; 0x8000bc <__TEXT_REGION_LENGTH__+0x7000bc>
C:\Users\admin\AppData\Local\Arduino15\packages\MegaCore\hardware\avr\3.0.0\libraries\Wire\src\TwoWire\utility/twi.c:471

  // update twi state
  twi_state = TWI_READY;
    3764:	10 92 6a 03 	sts	0x036A, r1	; 0x80036a <twi_state>
__vector_39():
C:\Users\admin\AppData\Local\Arduino15\packages\MegaCore\hardware\avr\3.0.0\libraries\Wire\src\TwoWire\utility/twi.c:631
      break;
    case TW_SR_STOP: // stop or repeated start condition received
      // ack future responses and leave slave receiver state
      twi_releaseBus();
      // put a null char after data if there's room
      if(twi_rxBufferIndex < TWI_BUFFER_SIZE){
    3768:	80 91 68 03 	lds	r24, 0x0368	; 0x800368 <twi_rxBufferIndex>
    376c:	80 32       	cpi	r24, 0x20	; 32
    376e:	30 f4       	brcc	.+12     	; 0x377c <__vector_39+0x218>
C:\Users\admin\AppData\Local\Arduino15\packages\MegaCore\hardware\avr\3.0.0\libraries\Wire\src\TwoWire\utility/twi.c:632
        twi_rxBuffer[twi_rxBufferIndex] = '\0';
    3770:	e0 91 68 03 	lds	r30, 0x0368	; 0x800368 <twi_rxBufferIndex>
    3774:	f0 e0       	ldi	r31, 0x00	; 0
    3776:	e8 5b       	subi	r30, 0xB8	; 184
    3778:	fc 4f       	sbci	r31, 0xFC	; 252
    377a:	10 82       	st	Z, r1
C:\Users\admin\AppData\Local\Arduino15\packages\MegaCore\hardware\avr\3.0.0\libraries\Wire\src\TwoWire\utility/twi.c:635
      }
      // callback to user defined callback
      twi_onSlaveReceive(twi_rxBuffer, twi_rxBufferIndex);
    377c:	60 91 68 03 	lds	r22, 0x0368	; 0x800368 <twi_rxBufferIndex>
    3780:	70 e0       	ldi	r23, 0x00	; 0
    3782:	88 e4       	ldi	r24, 0x48	; 72
    3784:	93 e0       	ldi	r25, 0x03	; 3
    3786:	f0 e0       	ldi	r31, 0x00	; 0
    3788:	e0 e0       	ldi	r30, 0x00	; 0
    378a:	19 95       	eicall
C:\Users\admin\AppData\Local\Arduino15\packages\MegaCore\hardware\avr\3.0.0\libraries\Wire\src\TwoWire\utility/twi.c:637
      // since we submit rx buffer to "wire" library, we can reset it
      twi_rxBufferIndex = 0;
    378c:	10 92 68 03 	sts	0x0368, r1	; 0x800368 <twi_rxBufferIndex>
    3790:	12 cf       	rjmp	.-476    	; 0x35b6 <__vector_39+0x52>
C:\Users\admin\AppData\Local\Arduino15\packages\MegaCore\hardware\avr\3.0.0\libraries\Wire\src\TwoWire\utility/twi.c:686

    // All
    case TW_NO_INFO:   // no state information
      break;
    case TW_BUS_ERROR: // bus error, illegal stop/start
      twi_error = TW_BUS_ERROR;
    3792:	10 92 69 03 	sts	0x0369, r1	; 0x800369 <twi_error>
    3796:	3e cf       	rjmp	.-388    	; 0x3614 <__vector_39+0xb0>

00003798 <global constructors keyed to 65535_0_MarketForge_Control.ino.cpp.o.2926>:
_GLOBAL__I_65535_0_MarketForge_Control.ino.cpp.o.2926():
    3798:	cf 92       	push	r12
    379a:	df 92       	push	r13
    379c:	ef 92       	push	r14
    379e:	ff 92       	push	r15
    37a0:	0f 93       	push	r16
    37a2:	1f 93       	push	r17
    37a4:	10 92 ae 03 	sts	0x03AE, r1	; 0x8003ae <Serial3+0x3>
    37a8:	10 92 ad 03 	sts	0x03AD, r1	; 0x8003ad <Serial3+0x2>
    37ac:	48 ee       	ldi	r20, 0xE8	; 232
    37ae:	53 e0       	ldi	r21, 0x03	; 3
    37b0:	60 e0       	ldi	r22, 0x00	; 0
    37b2:	70 e0       	ldi	r23, 0x00	; 0
    37b4:	40 93 af 03 	sts	0x03AF, r20	; 0x8003af <Serial3+0x4>
    37b8:	50 93 b0 03 	sts	0x03B0, r21	; 0x8003b0 <Serial3+0x5>
    37bc:	60 93 b1 03 	sts	0x03B1, r22	; 0x8003b1 <Serial3+0x6>
    37c0:	70 93 b2 03 	sts	0x03B2, r23	; 0x8003b2 <Serial3+0x7>
    37c4:	82 e5       	ldi	r24, 0x52	; 82
    37c6:	92 e0       	ldi	r25, 0x02	; 2
    37c8:	90 93 ac 03 	sts	0x03AC, r25	; 0x8003ac <Serial3+0x1>
    37cc:	80 93 ab 03 	sts	0x03AB, r24	; 0x8003ab <Serial3>
    37d0:	25 e3       	ldi	r18, 0x35	; 53
    37d2:	31 e0       	ldi	r19, 0x01	; 1
    37d4:	30 93 b8 03 	sts	0x03B8, r19	; 0x8003b8 <Serial3+0xd>
    37d8:	20 93 b7 03 	sts	0x03B7, r18	; 0x8003b7 <Serial3+0xc>
    37dc:	24 e3       	ldi	r18, 0x34	; 52
    37de:	31 e0       	ldi	r19, 0x01	; 1
    37e0:	30 93 ba 03 	sts	0x03BA, r19	; 0x8003ba <Serial3+0xf>
    37e4:	20 93 b9 03 	sts	0x03B9, r18	; 0x8003b9 <Serial3+0xe>
    37e8:	20 e3       	ldi	r18, 0x30	; 48
    37ea:	31 e0       	ldi	r19, 0x01	; 1
    37ec:	30 93 bc 03 	sts	0x03BC, r19	; 0x8003bc <Serial3+0x11>
    37f0:	20 93 bb 03 	sts	0x03BB, r18	; 0x8003bb <Serial3+0x10>
    37f4:	21 e3       	ldi	r18, 0x31	; 49
    37f6:	31 e0       	ldi	r19, 0x01	; 1
    37f8:	30 93 be 03 	sts	0x03BE, r19	; 0x8003be <Serial3+0x13>
    37fc:	20 93 bd 03 	sts	0x03BD, r18	; 0x8003bd <Serial3+0x12>
    3800:	22 e3       	ldi	r18, 0x32	; 50
    3802:	31 e0       	ldi	r19, 0x01	; 1
    3804:	30 93 c0 03 	sts	0x03C0, r19	; 0x8003c0 <Serial3+0x15>
    3808:	20 93 bf 03 	sts	0x03BF, r18	; 0x8003bf <Serial3+0x14>
    380c:	26 e3       	ldi	r18, 0x36	; 54
    380e:	31 e0       	ldi	r19, 0x01	; 1
    3810:	30 93 c2 03 	sts	0x03C2, r19	; 0x8003c2 <Serial3+0x17>
    3814:	20 93 c1 03 	sts	0x03C1, r18	; 0x8003c1 <Serial3+0x16>
    3818:	10 92 c4 03 	sts	0x03C4, r1	; 0x8003c4 <Serial3+0x19>
    381c:	10 92 c5 03 	sts	0x03C5, r1	; 0x8003c5 <Serial3+0x1a>
    3820:	10 92 c6 03 	sts	0x03C6, r1	; 0x8003c6 <Serial3+0x1b>
    3824:	10 92 c7 03 	sts	0x03C7, r1	; 0x8003c7 <Serial3+0x1c>
    3828:	10 92 4b 04 	sts	0x044B, r1	; 0x80044b <Serial+0x3>
    382c:	10 92 4a 04 	sts	0x044A, r1	; 0x80044a <Serial+0x2>
    3830:	40 93 4c 04 	sts	0x044C, r20	; 0x80044c <Serial+0x4>
    3834:	50 93 4d 04 	sts	0x044D, r21	; 0x80044d <Serial+0x5>
    3838:	60 93 4e 04 	sts	0x044E, r22	; 0x80044e <Serial+0x6>
    383c:	70 93 4f 04 	sts	0x044F, r23	; 0x80044f <Serial+0x7>
    3840:	90 93 49 04 	sts	0x0449, r25	; 0x800449 <Serial+0x1>
    3844:	80 93 48 04 	sts	0x0448, r24	; 0x800448 <Serial>
    3848:	85 ec       	ldi	r24, 0xC5	; 197
    384a:	90 e0       	ldi	r25, 0x00	; 0
    384c:	90 93 55 04 	sts	0x0455, r25	; 0x800455 <Serial+0xd>
    3850:	80 93 54 04 	sts	0x0454, r24	; 0x800454 <Serial+0xc>
    3854:	84 ec       	ldi	r24, 0xC4	; 196
    3856:	90 e0       	ldi	r25, 0x00	; 0
    3858:	90 93 57 04 	sts	0x0457, r25	; 0x800457 <Serial+0xf>
    385c:	80 93 56 04 	sts	0x0456, r24	; 0x800456 <Serial+0xe>
    3860:	80 ec       	ldi	r24, 0xC0	; 192
    3862:	90 e0       	ldi	r25, 0x00	; 0
    3864:	90 93 59 04 	sts	0x0459, r25	; 0x800459 <Serial+0x11>
    3868:	80 93 58 04 	sts	0x0458, r24	; 0x800458 <Serial+0x10>
    386c:	81 ec       	ldi	r24, 0xC1	; 193
    386e:	90 e0       	ldi	r25, 0x00	; 0
    3870:	90 93 5b 04 	sts	0x045B, r25	; 0x80045b <Serial+0x13>
    3874:	80 93 5a 04 	sts	0x045A, r24	; 0x80045a <Serial+0x12>
    3878:	82 ec       	ldi	r24, 0xC2	; 194
    387a:	90 e0       	ldi	r25, 0x00	; 0
    387c:	90 93 5d 04 	sts	0x045D, r25	; 0x80045d <Serial+0x15>
    3880:	80 93 5c 04 	sts	0x045C, r24	; 0x80045c <Serial+0x14>
    3884:	86 ec       	ldi	r24, 0xC6	; 198
    3886:	90 e0       	ldi	r25, 0x00	; 0
    3888:	90 93 5f 04 	sts	0x045F, r25	; 0x80045f <Serial+0x17>
    388c:	80 93 5e 04 	sts	0x045E, r24	; 0x80045e <Serial+0x16>
    3890:	10 92 61 04 	sts	0x0461, r1	; 0x800461 <Serial+0x19>
    3894:	10 92 62 04 	sts	0x0462, r1	; 0x800462 <Serial+0x1a>
    3898:	10 92 63 04 	sts	0x0463, r1	; 0x800463 <Serial+0x1b>
    389c:	10 92 64 04 	sts	0x0464, r1	; 0x800464 <Serial+0x1c>
    38a0:	10 92 81 05 	sts	0x0581, r1	; 0x800581 <tempSensor+0x1>
    38a4:	10 92 80 05 	sts	0x0580, r1	; 0x800580 <tempSensor>
    38a8:	10 92 83 05 	sts	0x0583, r1	; 0x800583 <tempSensor+0x3>
    38ac:	10 92 82 05 	sts	0x0582, r1	; 0x800582 <tempSensor+0x2>
    38b0:	80 e2       	ldi	r24, 0x20	; 32
    38b2:	80 93 8b 05 	sts	0x058B, r24	; 0x80058b <tempSensor+0xb>
    38b6:	87 e1       	ldi	r24, 0x17	; 23
    38b8:	80 93 8c 05 	sts	0x058C, r24	; 0x80058c <tempSensor+0xc>
    38bc:	8f e1       	ldi	r24, 0x1F	; 31
    38be:	80 93 8e 05 	sts	0x058E, r24	; 0x80058e <tempSensor+0xe>
    38c2:	8e e1       	ldi	r24, 0x1E	; 30
    38c4:	80 93 8d 05 	sts	0x058D, r24	; 0x80058d <tempSensor+0xd>
    38c8:	e6 e7       	ldi	r30, 0x76	; 118
    38ca:	f2 e0       	ldi	r31, 0x02	; 2
    38cc:	e4 91       	lpm	r30, Z
    38ce:	f0 e0       	ldi	r31, 0x00	; 0
    38d0:	ee 0f       	add	r30, r30
    38d2:	ff 1f       	adc	r31, r31
    38d4:	e4 5c       	subi	r30, 0xC4	; 196
    38d6:	fd 4f       	sbci	r31, 0xFD	; 253
    38d8:	85 91       	lpm	r24, Z+
    38da:	94 91       	lpm	r25, Z
    38dc:	90 93 96 05 	sts	0x0596, r25	; 0x800596 <tempSensor+0x16>
    38e0:	80 93 95 05 	sts	0x0595, r24	; 0x800595 <tempSensor+0x15>
    38e4:	e6 e0       	ldi	r30, 0x06	; 6
    38e6:	f2 e0       	ldi	r31, 0x02	; 2
    38e8:	e4 91       	lpm	r30, Z
    38ea:	e0 93 9a 05 	sts	0x059A, r30	; 0x80059a <tempSensor+0x1a>
    38ee:	e4 e7       	ldi	r30, 0x74	; 116
    38f0:	f2 e0       	ldi	r31, 0x02	; 2
    38f2:	e4 91       	lpm	r30, Z
    38f4:	f0 e0       	ldi	r31, 0x00	; 0
    38f6:	ee 0f       	add	r30, r30
    38f8:	ff 1f       	adc	r31, r31
    38fa:	e4 5c       	subi	r30, 0xC4	; 196
    38fc:	fd 4f       	sbci	r31, 0xFD	; 253
    38fe:	85 91       	lpm	r24, Z+
    3900:	94 91       	lpm	r25, Z
    3902:	90 93 90 05 	sts	0x0590, r25	; 0x800590 <tempSensor+0x10>
    3906:	80 93 8f 05 	sts	0x058F, r24	; 0x80058f <tempSensor+0xf>
    390a:	e4 e0       	ldi	r30, 0x04	; 4
    390c:	f2 e0       	ldi	r31, 0x02	; 2
    390e:	e4 91       	lpm	r30, Z
    3910:	e0 93 97 05 	sts	0x0597, r30	; 0x800597 <tempSensor+0x17>
    3914:	e5 e7       	ldi	r30, 0x75	; 117
    3916:	f2 e0       	ldi	r31, 0x02	; 2
    3918:	e4 91       	lpm	r30, Z
    391a:	f0 e0       	ldi	r31, 0x00	; 0
    391c:	ee 0f       	add	r30, r30
    391e:	ff 1f       	adc	r31, r31
    3920:	e4 53       	subi	r30, 0x34	; 52
    3922:	fe 4f       	sbci	r31, 0xFE	; 254
    3924:	85 91       	lpm	r24, Z+
    3926:	94 91       	lpm	r25, Z
    3928:	90 93 94 05 	sts	0x0594, r25	; 0x800594 <tempSensor+0x14>
    392c:	80 93 93 05 	sts	0x0593, r24	; 0x800593 <tempSensor+0x13>
    3930:	e5 e0       	ldi	r30, 0x05	; 5
    3932:	f2 e0       	ldi	r31, 0x02	; 2
    3934:	e4 91       	lpm	r30, Z
    3936:	e0 93 98 05 	sts	0x0598, r30	; 0x800598 <tempSensor+0x18>
    393a:	ed e6       	ldi	r30, 0x6D	; 109
    393c:	f2 e0       	ldi	r31, 0x02	; 2
    393e:	e4 91       	lpm	r30, Z
    3940:	f0 e0       	ldi	r31, 0x00	; 0
    3942:	ee 0f       	add	r30, r30
    3944:	ff 1f       	adc	r31, r31
    3946:	e4 5c       	subi	r30, 0xC4	; 196
    3948:	fd 4f       	sbci	r31, 0xFD	; 253
    394a:	85 91       	lpm	r24, Z+
    394c:	94 91       	lpm	r25, Z
    394e:	90 93 92 05 	sts	0x0592, r25	; 0x800592 <tempSensor+0x12>
    3952:	80 93 91 05 	sts	0x0591, r24	; 0x800591 <tempSensor+0x11>
    3956:	ed ef       	ldi	r30, 0xFD	; 253
    3958:	f1 e0       	ldi	r31, 0x01	; 1
    395a:	e4 91       	lpm	r30, Z
    395c:	e0 93 99 05 	sts	0x0599, r30	; 0x800599 <tempSensor+0x19>
    3960:	80 e4       	ldi	r24, 0x40	; 64
    3962:	92 e4       	ldi	r25, 0x42	; 66
    3964:	af e0       	ldi	r26, 0x0F	; 15
    3966:	b0 e0       	ldi	r27, 0x00	; 0
    3968:	80 93 84 05 	sts	0x0584, r24	; 0x800584 <tempSensor+0x4>
    396c:	90 93 85 05 	sts	0x0585, r25	; 0x800585 <tempSensor+0x5>
    3970:	a0 93 86 05 	sts	0x0586, r26	; 0x800586 <tempSensor+0x6>
    3974:	b0 93 87 05 	sts	0x0587, r27	; 0x800587 <tempSensor+0x7>
    3978:	81 e0       	ldi	r24, 0x01	; 1
    397a:	90 e0       	ldi	r25, 0x00	; 0
    397c:	90 93 89 05 	sts	0x0589, r25	; 0x800589 <tempSensor+0x9>
    3980:	80 93 88 05 	sts	0x0588, r24	; 0x800588 <tempSensor+0x8>
    3984:	84 e0       	ldi	r24, 0x04	; 4
    3986:	80 93 8a 05 	sts	0x058A, r24	; 0x80058a <tempSensor+0xa>
    398a:	10 92 9b 05 	sts	0x059B, r1	; 0x80059b <tempSensor+0x1b>
    398e:	89 e0       	ldi	r24, 0x09	; 9
    3990:	80 93 7f 05 	sts	0x057F, r24	; 0x80057f <avgTemp+0x8>
    3994:	84 e2       	ldi	r24, 0x24	; 36
    3996:	90 e0       	ldi	r25, 0x00	; 0
    3998:	0e 94 e7 28 	call	0x51ce	; 0x51ce <malloc>
    399c:	80 93 77 05 	sts	0x0577, r24	; 0x800577 <avgTemp>
    39a0:	90 93 78 05 	sts	0x0578, r25	; 0x800578 <avgTemp+0x1>
    39a4:	fc 01       	movw	r30, r24
    39a6:	84 96       	adiw	r24, 0x24	; 36
    39a8:	11 92       	st	Z+, r1
    39aa:	11 92       	st	Z+, r1
    39ac:	11 92       	st	Z+, r1
    39ae:	11 92       	st	Z+, r1
    39b0:	8e 17       	cp	r24, r30
    39b2:	9f 07       	cpc	r25, r31
    39b4:	c9 f7       	brne	.-14     	; 0x39a8 <global constructors keyed to 65535_0_MarketForge_Control.ino.cpp.o.2926+0x210>
    39b6:	10 92 79 05 	sts	0x0579, r1	; 0x800579 <avgTemp+0x2>
    39ba:	10 92 7a 05 	sts	0x057A, r1	; 0x80057a <avgTemp+0x3>
    39be:	10 92 7b 05 	sts	0x057B, r1	; 0x80057b <avgTemp+0x4>
    39c2:	10 92 7c 05 	sts	0x057C, r1	; 0x80057c <avgTemp+0x5>
    39c6:	8d e1       	ldi	r24, 0x1D	; 29
    39c8:	80 93 76 05 	sts	0x0576, r24	; 0x800576 <avgVolts+0x8>
    39cc:	84 e7       	ldi	r24, 0x74	; 116
    39ce:	90 e0       	ldi	r25, 0x00	; 0
    39d0:	0e 94 e7 28 	call	0x51ce	; 0x51ce <malloc>
    39d4:	80 93 6e 05 	sts	0x056E, r24	; 0x80056e <avgVolts>
    39d8:	90 93 6f 05 	sts	0x056F, r25	; 0x80056f <avgVolts+0x1>
    39dc:	fc 01       	movw	r30, r24
    39de:	8c 58       	subi	r24, 0x8C	; 140
    39e0:	9f 4f       	sbci	r25, 0xFF	; 255
    39e2:	11 92       	st	Z+, r1
    39e4:	11 92       	st	Z+, r1
    39e6:	11 92       	st	Z+, r1
    39e8:	11 92       	st	Z+, r1
    39ea:	e8 17       	cp	r30, r24
    39ec:	f9 07       	cpc	r31, r25
    39ee:	c9 f7       	brne	.-14     	; 0x39e2 <global constructors keyed to 65535_0_MarketForge_Control.ino.cpp.o.2926+0x24a>
    39f0:	10 92 70 05 	sts	0x0570, r1	; 0x800570 <avgVolts+0x2>
    39f4:	10 92 71 05 	sts	0x0571, r1	; 0x800571 <avgVolts+0x3>
    39f8:	10 92 72 05 	sts	0x0572, r1	; 0x800572 <avgVolts+0x4>
    39fc:	10 92 73 05 	sts	0x0573, r1	; 0x800573 <avgVolts+0x5>
    3a00:	80 91 6a 05 	lds	r24, 0x056A	; 0x80056a <Kd>
    3a04:	90 91 6b 05 	lds	r25, 0x056B	; 0x80056b <Kd+0x1>
    3a08:	a0 91 6c 05 	lds	r26, 0x056C	; 0x80056c <Kd+0x2>
    3a0c:	b0 91 6d 05 	lds	r27, 0x056D	; 0x80056d <Kd+0x3>
    3a10:	40 91 66 05 	lds	r20, 0x0566	; 0x800566 <Ki>
    3a14:	50 91 67 05 	lds	r21, 0x0567	; 0x800567 <Ki+0x1>
    3a18:	60 91 68 05 	lds	r22, 0x0568	; 0x800568 <Ki+0x2>
    3a1c:	70 91 69 05 	lds	r23, 0x0569	; 0x800569 <Ki+0x3>
    3a20:	00 91 62 05 	lds	r16, 0x0562	; 0x800562 <Kp>
    3a24:	10 91 63 05 	lds	r17, 0x0563	; 0x800563 <Kp+0x1>
    3a28:	20 91 64 05 	lds	r18, 0x0564	; 0x800564 <Kp+0x2>
    3a2c:	30 91 65 05 	lds	r19, 0x0565	; 0x800565 <Kp+0x3>
    3a30:	e3 e2       	ldi	r30, 0x23	; 35
    3a32:	f5 e0       	ldi	r31, 0x05	; 5
    3a34:	f0 93 44 05 	sts	0x0544, r31	; 0x800544 <pid+0x1d>
    3a38:	e0 93 43 05 	sts	0x0543, r30	; 0x800543 <pid+0x1c>
    3a3c:	ef e1       	ldi	r30, 0x1F	; 31
    3a3e:	f5 e0       	ldi	r31, 0x05	; 5
    3a40:	f0 93 46 05 	sts	0x0546, r31	; 0x800546 <pid+0x1f>
    3a44:	e0 93 45 05 	sts	0x0545, r30	; 0x800545 <pid+0x1e>
    3a48:	eb e1       	ldi	r30, 0x1B	; 27
    3a4a:	f5 e0       	ldi	r31, 0x05	; 5
    3a4c:	f0 93 48 05 	sts	0x0548, r31	; 0x800548 <pid+0x21>
    3a50:	e0 93 47 05 	sts	0x0547, r30	; 0x800547 <pid+0x20>
    3a54:	10 92 49 05 	sts	0x0549, r1	; 0x800549 <pid+0x22>
    3a58:	10 92 4a 05 	sts	0x054A, r1	; 0x80054a <pid+0x23>
    3a5c:	10 92 4b 05 	sts	0x054B, r1	; 0x80054b <pid+0x24>
    3a60:	10 92 4c 05 	sts	0x054C, r1	; 0x80054c <pid+0x25>
    3a64:	c1 2c       	mov	r12, r1
    3a66:	d1 2c       	mov	r13, r1
    3a68:	e8 ec       	ldi	r30, 0xC8	; 200
    3a6a:	ee 2e       	mov	r14, r30
    3a6c:	e2 e4       	ldi	r30, 0x42	; 66
    3a6e:	fe 2e       	mov	r15, r30
    3a70:	c0 92 4d 05 	sts	0x054D, r12	; 0x80054d <pid+0x26>
    3a74:	d0 92 4e 05 	sts	0x054E, r13	; 0x80054e <pid+0x27>
    3a78:	e0 92 4f 05 	sts	0x054F, r14	; 0x80054f <pid+0x28>
    3a7c:	f0 92 50 05 	sts	0x0550, r15	; 0x800550 <pid+0x29>
    3a80:	00 93 27 05 	sts	0x0527, r16	; 0x800527 <pid>
    3a84:	10 93 28 05 	sts	0x0528, r17	; 0x800528 <pid+0x1>
    3a88:	20 93 29 05 	sts	0x0529, r18	; 0x800529 <pid+0x2>
    3a8c:	30 93 2a 05 	sts	0x052A, r19	; 0x80052a <pid+0x3>
    3a90:	40 93 2b 05 	sts	0x052B, r20	; 0x80052b <pid+0x4>
    3a94:	50 93 2c 05 	sts	0x052C, r21	; 0x80052c <pid+0x5>
    3a98:	60 93 2d 05 	sts	0x052D, r22	; 0x80052d <pid+0x6>
    3a9c:	70 93 2e 05 	sts	0x052E, r23	; 0x80052e <pid+0x7>
    3aa0:	80 93 2f 05 	sts	0x052F, r24	; 0x80052f <pid+0x8>
    3aa4:	90 93 30 05 	sts	0x0530, r25	; 0x800530 <pid+0x9>
    3aa8:	a0 93 31 05 	sts	0x0531, r26	; 0x800531 <pid+0xa>
    3aac:	b0 93 32 05 	sts	0x0532, r27	; 0x800532 <pid+0xb>
    3ab0:	48 ee       	ldi	r20, 0xE8	; 232
    3ab2:	53 e0       	ldi	r21, 0x03	; 3
    3ab4:	60 e0       	ldi	r22, 0x00	; 0
    3ab6:	70 e0       	ldi	r23, 0x00	; 0
    3ab8:	40 93 51 05 	sts	0x0551, r20	; 0x800551 <pid+0x2a>
    3abc:	50 93 52 05 	sts	0x0552, r21	; 0x800552 <pid+0x2b>
    3ac0:	60 93 53 05 	sts	0x0553, r22	; 0x800553 <pid+0x2c>
    3ac4:	70 93 54 05 	sts	0x0554, r23	; 0x800554 <pid+0x2d>
    3ac8:	81 e0       	ldi	r24, 0x01	; 1
    3aca:	90 e0       	ldi	r25, 0x00	; 0
    3acc:	90 93 0a 05 	sts	0x050A, r25	; 0x80050a <timer1Sec+0xa>
    3ad0:	80 93 09 05 	sts	0x0509, r24	; 0x800509 <timer1Sec+0x9>
    3ad4:	40 93 01 05 	sts	0x0501, r20	; 0x800501 <timer1Sec+0x1>
    3ad8:	50 93 02 05 	sts	0x0502, r21	; 0x800502 <timer1Sec+0x2>
    3adc:	60 93 03 05 	sts	0x0503, r22	; 0x800503 <timer1Sec+0x3>
    3ae0:	70 93 04 05 	sts	0x0504, r23	; 0x800504 <timer1Sec+0x4>
    3ae4:	10 92 05 05 	sts	0x0505, r1	; 0x800505 <timer1Sec+0x5>
    3ae8:	10 92 06 05 	sts	0x0506, r1	; 0x800506 <timer1Sec+0x6>
    3aec:	10 92 07 05 	sts	0x0507, r1	; 0x800507 <timer1Sec+0x7>
    3af0:	10 92 08 05 	sts	0x0508, r1	; 0x800508 <timer1Sec+0x8>
    3af4:	2c e7       	ldi	r18, 0x7C	; 124
    3af6:	32 e1       	ldi	r19, 0x12	; 18
    3af8:	30 93 12 05 	sts	0x0512, r19	; 0x800512 <timer1Sec+0x12>
    3afc:	20 93 11 05 	sts	0x0511, r18	; 0x800511 <timer1Sec+0x11>
    3b00:	10 92 00 05 	sts	0x0500, r1	; 0x800500 <timer1Sec>
    3b04:	10 92 13 05 	sts	0x0513, r1	; 0x800513 <timer1Sec+0x13>
    3b08:	10 92 14 05 	sts	0x0514, r1	; 0x800514 <timer1Sec+0x14>
    3b0c:	10 92 15 05 	sts	0x0515, r1	; 0x800515 <timer1Sec+0x15>
    3b10:	10 92 16 05 	sts	0x0516, r1	; 0x800516 <timer1Sec+0x16>
    3b14:	10 92 0b 05 	sts	0x050B, r1	; 0x80050b <timer1Sec+0xb>
    3b18:	10 92 0c 05 	sts	0x050C, r1	; 0x80050c <timer1Sec+0xc>
    3b1c:	10 92 0d 05 	sts	0x050D, r1	; 0x80050d <timer1Sec+0xd>
    3b20:	10 92 0e 05 	sts	0x050E, r1	; 0x80050e <timer1Sec+0xe>
    3b24:	90 93 ef 04 	sts	0x04EF, r25	; 0x8004ef <timer50mSec+0xa>
    3b28:	80 93 ee 04 	sts	0x04EE, r24	; 0x8004ee <timer50mSec+0x9>
    3b2c:	82 e3       	ldi	r24, 0x32	; 50
    3b2e:	90 e0       	ldi	r25, 0x00	; 0
    3b30:	a0 e0       	ldi	r26, 0x00	; 0
    3b32:	b0 e0       	ldi	r27, 0x00	; 0
    3b34:	80 93 e6 04 	sts	0x04E6, r24	; 0x8004e6 <timer50mSec+0x1>
    3b38:	90 93 e7 04 	sts	0x04E7, r25	; 0x8004e7 <timer50mSec+0x2>
    3b3c:	a0 93 e8 04 	sts	0x04E8, r26	; 0x8004e8 <timer50mSec+0x3>
    3b40:	b0 93 e9 04 	sts	0x04E9, r27	; 0x8004e9 <timer50mSec+0x4>
    3b44:	10 92 ea 04 	sts	0x04EA, r1	; 0x8004ea <timer50mSec+0x5>
    3b48:	10 92 eb 04 	sts	0x04EB, r1	; 0x8004eb <timer50mSec+0x6>
    3b4c:	10 92 ec 04 	sts	0x04EC, r1	; 0x8004ec <timer50mSec+0x7>
    3b50:	10 92 ed 04 	sts	0x04ED, r1	; 0x8004ed <timer50mSec+0x8>
    3b54:	85 e9       	ldi	r24, 0x95	; 149
    3b56:	92 e1       	ldi	r25, 0x12	; 18
    3b58:	90 93 f7 04 	sts	0x04F7, r25	; 0x8004f7 <timer50mSec+0x12>
    3b5c:	80 93 f6 04 	sts	0x04F6, r24	; 0x8004f6 <timer50mSec+0x11>
    3b60:	10 92 e5 04 	sts	0x04E5, r1	; 0x8004e5 <timer50mSec>
    3b64:	10 92 f8 04 	sts	0x04F8, r1	; 0x8004f8 <timer50mSec+0x13>
    3b68:	10 92 f9 04 	sts	0x04F9, r1	; 0x8004f9 <timer50mSec+0x14>
    3b6c:	10 92 fa 04 	sts	0x04FA, r1	; 0x8004fa <timer50mSec+0x15>
    3b70:	10 92 fb 04 	sts	0x04FB, r1	; 0x8004fb <timer50mSec+0x16>
    3b74:	10 92 f0 04 	sts	0x04F0, r1	; 0x8004f0 <timer50mSec+0xb>
    3b78:	10 92 f1 04 	sts	0x04F1, r1	; 0x8004f1 <timer50mSec+0xc>
    3b7c:	10 92 f2 04 	sts	0x04F2, r1	; 0x8004f2 <timer50mSec+0xd>
    3b80:	10 92 f3 04 	sts	0x04F3, r1	; 0x8004f3 <timer50mSec+0xe>
    3b84:	1f 91       	pop	r17
    3b86:	0f 91       	pop	r16
    3b88:	ff 90       	pop	r15
    3b8a:	ef 90       	pop	r14
    3b8c:	df 90       	pop	r13
    3b8e:	cf 90       	pop	r12
    3b90:	08 95       	ret

00003b92 <main>:
main():
C:\Users\admin\AppData\Local\Arduino15\packages\MegaCore\hardware\avr\3.0.0\cores\MCUdude_corefiles/main.cpp:34

//void setupUSB() __attribute__((weak));
//void setupUSB() { }

int main(void)
{
    3b92:	cf 93       	push	r28
    3b94:	df 93       	push	r29
    3b96:	cd b7       	in	r28, 0x3d	; 61
    3b98:	de b7       	in	r29, 0x3e	; 62
    3b9a:	64 97       	sbiw	r28, 0x14	; 20
    3b9c:	0f b6       	in	r0, 0x3f	; 63
    3b9e:	f8 94       	cli
    3ba0:	de bf       	out	0x3e, r29	; 62
    3ba2:	0f be       	out	0x3f, r0	; 63
    3ba4:	cd bf       	out	0x3d, r28	; 61
init():
C:\Users\admin\AppData\Local\Arduino15\packages\MegaCore\hardware\avr\3.0.0\cores\MCUdude_corefiles/wiring.c:945

void init()
{
  // this needs to be called before setup() or some functions won't
  // work there
  sei();
    3ba6:	78 94       	sei
C:\Users\admin\AppData\Local\Arduino15\packages\MegaCore\hardware\avr\3.0.0\cores\MCUdude_corefiles/wiring.c:957

  // On the ATmega168, timer 0 is also used for fast hardware pwm
  // (using phase-correct PWM would mean that timer 0 overflowed half as often
  // resulting in different millis() behavior on the ATmega8 and ATmega168)
#if defined(TCCR0A) && defined(WGM01)
  TCCR0A |= _BV(WGM01) | _BV(WGM00);
    3ba8:	84 b5       	in	r24, 0x24	; 36
    3baa:	83 60       	ori	r24, 0x03	; 3
    3bac:	84 bd       	out	0x24, r24	; 36
C:\Users\admin\AppData\Local\Arduino15\packages\MegaCore\hardware\avr\3.0.0\cores\MCUdude_corefiles/wiring.c:972
  #if defined(WGM00) && defined(WGM01) // The ATmega8 doesn't have WGM00 and WGM01
    TCCR0 |= _BV(WGM01) | _BV(WGM00);
  #endif
#elif defined(TCCR0B) && defined(CS01) && defined(CS00)
  // This combination is for the standard 168/328/640/1280/1281/2560/2561
  TCCR0B |= _BV(CS01) | _BV(CS00);
    3bae:	85 b5       	in	r24, 0x25	; 37
    3bb0:	83 60       	ori	r24, 0x03	; 3
    3bb2:	85 bd       	out	0x25, r24	; 37
C:\Users\admin\AppData\Local\Arduino15\packages\MegaCore\hardware\avr\3.0.0\cores\MCUdude_corefiles/wiring.c:984

// Enable timer 0 overflow interrupt
#if defined(TIMSK) && defined(TOIE0)
  TIMSK |= _BV(TOIE0);
#elif defined(TIMSK0) && defined(TOIE0)
  TIMSK0 |= _BV(TOIE0);
    3bb4:	80 91 6e 00 	lds	r24, 0x006E	; 0x80006e <__TEXT_REGION_LENGTH__+0x70006e>
    3bb8:	81 60       	ori	r24, 0x01	; 1
    3bba:	80 93 6e 00 	sts	0x006E, r24	; 0x80006e <__TEXT_REGION_LENGTH__+0x70006e>
C:\Users\admin\AppData\Local\Arduino15\packages\MegaCore\hardware\avr\3.0.0\cores\MCUdude_corefiles/wiring.c:995
// this is better for motors as it ensures an even waveform
// note, however, that fast pwm mode can achieve a frequency of up
// 8 MHz (with a 16 MHz clock) at 50% duty cycle

#if defined(TCCR1B) && defined(CS11) && defined(CS10)
  TCCR1B = _BV(CS11); // Set timer 1 prescale factor to 64
    3bbe:	82 e0       	ldi	r24, 0x02	; 2
    3bc0:	80 93 81 00 	sts	0x0081, r24	; 0x800081 <__TEXT_REGION_LENGTH__+0x700081>
C:\Users\admin\AppData\Local\Arduino15\packages\MegaCore\hardware\avr\3.0.0\cores\MCUdude_corefiles/wiring.c:997
#if F_CPU >= 8000000L
  TCCR1B |= _BV(CS10);
    3bc4:	80 91 81 00 	lds	r24, 0x0081	; 0x800081 <__TEXT_REGION_LENGTH__+0x700081>
    3bc8:	81 60       	ori	r24, 0x01	; 1
    3bca:	80 93 81 00 	sts	0x0081, r24	; 0x800081 <__TEXT_REGION_LENGTH__+0x700081>
C:\Users\admin\AppData\Local\Arduino15\packages\MegaCore\hardware\avr\3.0.0\cores\MCUdude_corefiles/wiring.c:1006
#if F_CPU >= 8000000L
  TCCR1 |= _BV(CS10);
#endif
#endif
#if defined(TCCR1A) && defined(WGM10)
  TCCR1A |= _BV(WGM10); // Put timer 1 in 8-bit phase correct pwm mode
    3bce:	80 91 80 00 	lds	r24, 0x0080	; 0x800080 <__TEXT_REGION_LENGTH__+0x700080>
    3bd2:	81 60       	ori	r24, 0x01	; 1
    3bd4:	80 93 80 00 	sts	0x0080, r24	; 0x800080 <__TEXT_REGION_LENGTH__+0x700080>
C:\Users\admin\AppData\Local\Arduino15\packages\MegaCore\hardware\avr\3.0.0\cores\MCUdude_corefiles/wiring.c:1013

// Set timer 2 prescale factor to 64
#if defined(TCCR2) && defined(CS22)
  TCCR2 |= _BV(CS22);
#elif defined(TCCR2B) && defined(CS22)
  TCCR2B |= _BV(CS22);
    3bd8:	80 91 b1 00 	lds	r24, 0x00B1	; 0x8000b1 <__TEXT_REGION_LENGTH__+0x7000b1>
    3bdc:	84 60       	ori	r24, 0x04	; 4
    3bde:	80 93 b1 00 	sts	0x00B1, r24	; 0x8000b1 <__TEXT_REGION_LENGTH__+0x7000b1>
C:\Users\admin\AppData\Local\Arduino15\packages\MegaCore\hardware\avr\3.0.0\cores\MCUdude_corefiles/wiring.c:1022

// Configure timer 2 for phase correct pwm (8-bit)
#if defined(TCCR2) && defined(WGM20)
  TCCR2 |= _BV(WGM20);
#elif defined(TCCR2A) && defined(WGM20)
  TCCR2A |= _BV(WGM20);
    3be2:	80 91 b0 00 	lds	r24, 0x00B0	; 0x8000b0 <__TEXT_REGION_LENGTH__+0x7000b0>
    3be6:	81 60       	ori	r24, 0x01	; 1
    3be8:	80 93 b0 00 	sts	0x00B0, r24	; 0x8000b0 <__TEXT_REGION_LENGTH__+0x7000b0>
C:\Users\admin\AppData\Local\Arduino15\packages\MegaCore\hardware\avr\3.0.0\cores\MCUdude_corefiles/wiring.c:1028
//#else
  // Timer 2 not finished (may not be present on this CPU)
#endif

#if defined(TCCR3B) && defined(CS31) && defined(WGM30)
  TCCR3B |= _BV(CS31) | _BV(CS30); // Set timer 3 prescale factor to 64
    3bec:	80 91 91 00 	lds	r24, 0x0091	; 0x800091 <__TEXT_REGION_LENGTH__+0x700091>
    3bf0:	83 60       	ori	r24, 0x03	; 3
    3bf2:	80 93 91 00 	sts	0x0091, r24	; 0x800091 <__TEXT_REGION_LENGTH__+0x700091>
C:\Users\admin\AppData\Local\Arduino15\packages\MegaCore\hardware\avr\3.0.0\cores\MCUdude_corefiles/wiring.c:1029
  TCCR3A |= _BV(WGM30);            // Put timer 3 in 8-bit phase correct pwm mode
    3bf6:	80 91 90 00 	lds	r24, 0x0090	; 0x800090 <__TEXT_REGION_LENGTH__+0x700090>
    3bfa:	81 60       	ori	r24, 0x01	; 1
    3bfc:	80 93 90 00 	sts	0x0090, r24	; 0x800090 <__TEXT_REGION_LENGTH__+0x700090>
C:\Users\admin\AppData\Local\Arduino15\packages\MegaCore\hardware\avr\3.0.0\cores\MCUdude_corefiles/wiring.c:1038
  TCCR4B |= _BV(CS42) | _BV(CS41) | _BV(CS40); // Set timer 4 prescale factor to 64
  TCCR4D |= _BV(WGM40);                        // Put timer 4 in phase- and frequency-correct PWM mode
  TCCR4A |= _BV(PWM4A);                        // Enable PWM mode for comparator OCR4A
  TCCR4C |= _BV(PWM4D);                        // Enable PWM mode for comparator OCR4D
#elif defined(TCCR4B) && defined(CS41) && defined(WGM40)
  TCCR4B |= _BV(CS41) | _BV(CS40); // Set timer 4 prescale factor to 64
    3c00:	80 91 a1 00 	lds	r24, 0x00A1	; 0x8000a1 <__TEXT_REGION_LENGTH__+0x7000a1>
    3c04:	83 60       	ori	r24, 0x03	; 3
    3c06:	80 93 a1 00 	sts	0x00A1, r24	; 0x8000a1 <__TEXT_REGION_LENGTH__+0x7000a1>
C:\Users\admin\AppData\Local\Arduino15\packages\MegaCore\hardware\avr\3.0.0\cores\MCUdude_corefiles/wiring.c:1039
  TCCR4A |= _BV(WGM40);            // Put timer 4 in 8-bit phase correct pwm mode
    3c0a:	80 91 a0 00 	lds	r24, 0x00A0	; 0x8000a0 <__TEXT_REGION_LENGTH__+0x7000a0>
    3c0e:	81 60       	ori	r24, 0x01	; 1
    3c10:	80 93 a0 00 	sts	0x00A0, r24	; 0x8000a0 <__TEXT_REGION_LENGTH__+0x7000a0>
C:\Users\admin\AppData\Local\Arduino15\packages\MegaCore\hardware\avr\3.0.0\cores\MCUdude_corefiles/wiring.c:1043
#endif

#if defined(TCCR5B) && defined(CS51) && defined(WGM50)
  TCCR5B |= _BV(CS51) | _BV(CS50); // Set timer 5 prescale factor to 64
    3c14:	80 91 21 01 	lds	r24, 0x0121	; 0x800121 <__TEXT_REGION_LENGTH__+0x700121>
    3c18:	83 60       	ori	r24, 0x03	; 3
    3c1a:	80 93 21 01 	sts	0x0121, r24	; 0x800121 <__TEXT_REGION_LENGTH__+0x700121>
C:\Users\admin\AppData\Local\Arduino15\packages\MegaCore\hardware\avr\3.0.0\cores\MCUdude_corefiles/wiring.c:1044
  TCCR5A |= _BV(WGM50);            // Put timer 5 in 8-bit phase correct pwm mode
    3c1e:	80 91 20 01 	lds	r24, 0x0120	; 0x800120 <__TEXT_REGION_LENGTH__+0x700120>
    3c22:	81 60       	ori	r24, 0x01	; 1
    3c24:	80 93 20 01 	sts	0x0120, r24	; 0x800120 <__TEXT_REGION_LENGTH__+0x700120>
C:\Users\admin\AppData\Local\Arduino15\packages\MegaCore\hardware\avr\3.0.0\cores\MCUdude_corefiles/wiring.c:1050
#endif

#if defined(ADCSRA)
  // set a2d prescaler so we are inside the desired 50-200 KHz range.
  #if F_CPU >= 16000000 // 16 MHz / 128 = 125 KHz
    ADCSRA = _BV(ADPS2) | _BV(ADPS1) | _BV(ADPS0) | _BV(ADEN);
    3c28:	87 e8       	ldi	r24, 0x87	; 135
    3c2a:	80 93 7a 00 	sts	0x007A, r24	; 0x80007a <__TEXT_REGION_LENGTH__+0x70007a>
C:\Users\admin\AppData\Local\Arduino15\packages\MegaCore\hardware\avr\3.0.0\cores\MCUdude_corefiles/wiring.c:1070
  // here so they can be used as normal digital i/o; they will be
  // reconnected in Serial.begin()
#if defined(UCSRB)
  UCSRB = 0;
#elif defined(UCSR0B)
  UCSR0B = 0;
    3c2e:	10 92 c1 00 	sts	0x00C1, r1	; 0x8000c1 <__TEXT_REGION_LENGTH__+0x7000c1>
setup():
C:\Users\admin\Documents\Github\marketforge\MarketForge_Control/MarketForge_Control.ino:422
Ticker  timer50mSec(&tickHeater, 50, 0, MILLIS);


void setup() {
  // put your setup code here, to run once:
    state = ready;
    3c32:	10 92 9f 03 	sts	0x039F, r1	; 0x80039f <state>
begin():
c:\Users\admin\Documents\Arduino\libraries\Adafruit_BusIO/Adafruit_SPIDevice.cpp:93
 *    @brief  Initializes SPI bus and sets CS pin high
 *    @return Always returns true because there's no way to test success of SPI
 * init
 */
bool Adafruit_SPIDevice::begin(void) {
  if (_cs != -1) {
    3c36:	80 91 8b 05 	lds	r24, 0x058B	; 0x80058b <tempSensor+0xb>
    3c3a:	8f 3f       	cpi	r24, 0xFF	; 255
    3c3c:	41 f0       	breq	.+16     	; 0x3c4e <main+0xbc>
c:\Users\admin\Documents\Arduino\libraries\Adafruit_BusIO/Adafruit_SPIDevice.cpp:94
    pinMode(_cs, OUTPUT);
    3c3e:	61 e0       	ldi	r22, 0x01	; 1
    3c40:	0e 94 79 06 	call	0xcf2	; 0xcf2 <pinMode>
c:\Users\admin\Documents\Arduino\libraries\Adafruit_BusIO/Adafruit_SPIDevice.cpp:95
    digitalWrite(_cs, HIGH);
    3c44:	61 e0       	ldi	r22, 0x01	; 1
    3c46:	80 91 8b 05 	lds	r24, 0x058B	; 0x80058b <tempSensor+0xb>
    3c4a:	0e 94 2d 06 	call	0xc5a	; 0xc5a <digitalWrite>
c:\Users\admin\Documents\Arduino\libraries\Adafruit_BusIO/Adafruit_SPIDevice.cpp:98
  }

  if (_spi) { // hardware SPI
    3c4e:	80 91 80 05 	lds	r24, 0x0580	; 0x800580 <tempSensor>
    3c52:	90 91 81 05 	lds	r25, 0x0581	; 0x800581 <tempSensor+0x1>
    3c56:	89 2b       	or	r24, r25
    3c58:	09 f4       	brne	.+2      	; 0x3c5c <main+0xca>
    3c5a:	3a c4       	rjmp	.+2164   	; 0x44d0 <main+0x93e>
C:\Users\admin\AppData\Local\Arduino15\packages\MegaCore\hardware\avr\3.0.0\libraries\SPI\src/SPI.cpp:28
uint8_t SPIClass::inTransactionFlag = 0;
#endif

void SPIClass::begin()
{
  uint8_t sreg = SREG;
    3c5c:	1f b7       	in	r17, 0x3f	; 63
C:\Users\admin\AppData\Local\Arduino15\packages\MegaCore\hardware\avr\3.0.0\libraries\SPI\src/SPI.cpp:29
  noInterrupts(); // Protect from a scheduler and prevent transactionBegin
    3c5e:	f8 94       	cli
C:\Users\admin\AppData\Local\Arduino15\packages\MegaCore\hardware\avr\3.0.0\libraries\SPI\src/SPI.cpp:30
  if (!initialized) {
    3c60:	80 91 70 03 	lds	r24, 0x0370	; 0x800370 <SPIClass::initialized>
    3c64:	81 11       	cpse	r24, r1
    3c66:	27 c0       	rjmp	.+78     	; 0x3cb6 <main+0x124>
C:\Users\admin\AppData\Local\Arduino15\packages\MegaCore\hardware\avr\3.0.0\libraries\SPI\src/SPI.cpp:32
    // Set SS to high so a connected chip will be "deselected" by default
    uint8_t port = digitalPinToPort(SS);
    3c68:	eb e8       	ldi	r30, 0x8B	; 139
    3c6a:	f2 e0       	ldi	r31, 0x02	; 2
    3c6c:	84 91       	lpm	r24, Z
C:\Users\admin\AppData\Local\Arduino15\packages\MegaCore\hardware\avr\3.0.0\libraries\SPI\src/SPI.cpp:33
    uint8_t bit = digitalPinToBitMask(SS);
    3c6e:	eb e1       	ldi	r30, 0x1B	; 27
    3c70:	f2 e0       	ldi	r31, 0x02	; 2
    3c72:	94 91       	lpm	r25, Z
C:\Users\admin\AppData\Local\Arduino15\packages\MegaCore\hardware\avr\3.0.0\libraries\SPI\src/SPI.cpp:34
    volatile uint8_t *reg = portModeRegister(port);
    3c74:	e8 2f       	mov	r30, r24
    3c76:	f0 e0       	ldi	r31, 0x00	; 0
    3c78:	ee 0f       	add	r30, r30
    3c7a:	ff 1f       	adc	r31, r31
    3c7c:	e4 5a       	subi	r30, 0xA4	; 164
    3c7e:	fe 4f       	sbci	r31, 0xFE	; 254
    3c80:	a5 91       	lpm	r26, Z+
    3c82:	b4 91       	lpm	r27, Z
C:\Users\admin\AppData\Local\Arduino15\packages\MegaCore\hardware\avr\3.0.0\libraries\SPI\src/SPI.cpp:38

    // if the SS pin is not already configured as an output
    // then set it high (to enable the internal pull-up resistor)
    if(!(*reg & bit)){
    3c84:	ec 91       	ld	r30, X
    3c86:	e9 23       	and	r30, r25
    3c88:	21 f4       	brne	.+8      	; 0x3c92 <main+0x100>
C:\Users\admin\AppData\Local\Arduino15\packages\MegaCore\hardware\avr\3.0.0\libraries\SPI\src/SPI.cpp:39
      digitalWrite(SS, HIGH);
    3c8a:	61 e0       	ldi	r22, 0x01	; 1
    3c8c:	85 e3       	ldi	r24, 0x35	; 53
    3c8e:	0e 94 2d 06 	call	0xc5a	; 0xc5a <digitalWrite>
C:\Users\admin\AppData\Local\Arduino15\packages\MegaCore\hardware\avr\3.0.0\libraries\SPI\src/SPI.cpp:45
    }

    // When the SS pin is set as OUTPUT, it can be used as
    // a general purpose output port (it doesn't influence
    // SPI operations).
    pinMode(SS, OUTPUT);
    3c92:	61 e0       	ldi	r22, 0x01	; 1
    3c94:	85 e3       	ldi	r24, 0x35	; 53
    3c96:	0e 94 79 06 	call	0xcf2	; 0xcf2 <pinMode>
C:\Users\admin\AppData\Local\Arduino15\packages\MegaCore\hardware\avr\3.0.0\libraries\SPI\src/SPI.cpp:50

    // Warning: if the SS pin ever becomes a LOW INPUT then SPI
    // automatically switches to Slave, so the data direction of
    // the SS pin MUST be kept as OUTPUT.
    SPCR |= _BV(MSTR);
    3c9a:	8c b5       	in	r24, 0x2c	; 44
    3c9c:	80 61       	ori	r24, 0x10	; 16
    3c9e:	8c bd       	out	0x2c, r24	; 44
C:\Users\admin\AppData\Local\Arduino15\packages\MegaCore\hardware\avr\3.0.0\libraries\SPI\src/SPI.cpp:51
    SPCR |= _BV(SPE);
    3ca0:	8c b5       	in	r24, 0x2c	; 44
    3ca2:	80 64       	ori	r24, 0x40	; 64
    3ca4:	8c bd       	out	0x2c, r24	; 44
C:\Users\admin\AppData\Local\Arduino15\packages\MegaCore\hardware\avr\3.0.0\libraries\SPI\src/SPI.cpp:59
    // MISO pin automatically overrides to INPUT.
    // By doing this AFTER enabling SPI, we avoid accidentally
    // clocking in a single bit since the lines go directly
    // from "input" to SPI control.
    // http://code.google.com/p/arduino/issues/detail?id=888
    pinMode(SCK, OUTPUT);
    3ca6:	61 e0       	ldi	r22, 0x01	; 1
    3ca8:	84 e3       	ldi	r24, 0x34	; 52
    3caa:	0e 94 79 06 	call	0xcf2	; 0xcf2 <pinMode>
C:\Users\admin\AppData\Local\Arduino15\packages\MegaCore\hardware\avr\3.0.0\libraries\SPI\src/SPI.cpp:60
    pinMode(MOSI, OUTPUT);
    3cae:	61 e0       	ldi	r22, 0x01	; 1
    3cb0:	83 e3       	ldi	r24, 0x33	; 51
    3cb2:	0e 94 79 06 	call	0xcf2	; 0xcf2 <pinMode>
C:\Users\admin\AppData\Local\Arduino15\packages\MegaCore\hardware\avr\3.0.0\libraries\SPI\src/SPI.cpp:62
  }
  initialized++; // reference count
    3cb6:	80 91 70 03 	lds	r24, 0x0370	; 0x800370 <SPIClass::initialized>
    3cba:	8f 5f       	subi	r24, 0xFF	; 255
    3cbc:	80 93 70 03 	sts	0x0370, r24	; 0x800370 <SPIClass::initialized>
C:\Users\admin\AppData\Local\Arduino15\packages\MegaCore\hardware\avr\3.0.0\libraries\SPI\src/SPI.cpp:63
  SREG = sreg;
    3cc0:	1f bf       	out	0x3f, r17	; 63
c:\Users\admin\Documents\Arduino\libraries\Adafruit_BusIO/Adafruit_SPIDevice.cpp:121
    if (_miso != -1) {
      pinMode(_miso, INPUT);
    }
  }

  _begun = true;
    3cc2:	81 e0       	ldi	r24, 0x01	; 1
    3cc4:	80 93 9b 05 	sts	0x059B, r24	; 0x80059b <tempSensor+0x1b>
setWires():
c:\Users\admin\Documents\Arduino\libraries\Adafruit_MAX31865_library/Adafruit_MAX31865.cpp:209
    MAX31865_3WIRE, or MAX31865_4WIRE
    @param wires The number of wires in enum format
*/
/**************************************************************************/
void Adafruit_MAX31865::setWires(max31865_numwires_t wires) {
  uint8_t t = readRegister8(MAX31865_CONFIG_REG);
    3cc8:	0e 94 c5 07 	call	0xf8a	; 0xf8a <Adafruit_MAX31865::readRegister8(unsigned char) [clone .constprop.23]>
c:\Users\admin\Documents\Arduino\libraries\Adafruit_MAX31865_library/Adafruit_MAX31865.cpp:214
  if (wires == MAX31865_3WIRE) {
    t |= MAX31865_CONFIG_3WIRE;
  } else {
    // 2 or 4 wire
    t &= ~MAX31865_CONFIG_3WIRE;
    3ccc:	68 2f       	mov	r22, r24
    3cce:	6f 7e       	andi	r22, 0xEF	; 239
c:\Users\admin\Documents\Arduino\libraries\Adafruit_MAX31865_library/Adafruit_MAX31865.cpp:216
  }
  writeRegister8(MAX31865_CONFIG_REG, t);
    3cd0:	80 e0       	ldi	r24, 0x00	; 0
    3cd2:	0e 94 91 07 	call	0xf22	; 0xf22 <Adafruit_MAX31865::writeRegister8(unsigned char, unsigned char) [clone .constprop.26]>
begin():
c:\Users\admin\Documents\Arduino\libraries\Adafruit_MAX31865_library/Adafruit_MAX31865.cpp:63
/**************************************************************************/
bool Adafruit_MAX31865::begin(max31865_numwires_t wires) {
  spi_dev.begin();

  setWires(wires);
  enableBias(false);
    3cd6:	80 e0       	ldi	r24, 0x00	; 0
    3cd8:	0e 94 e4 07 	call	0xfc8	; 0xfc8 <Adafruit_MAX31865::enableBias(bool) [clone .constprop.19]>
autoConvert():
c:\Users\admin\Documents\Arduino\libraries\Adafruit_MAX31865_library/Adafruit_MAX31865.cpp:140
    @brief Whether we want to have continuous conversions (50/60 Hz)
    @param b If true, auto conversion is enabled
*/
/**************************************************************************/
void Adafruit_MAX31865::autoConvert(bool b) {
  uint8_t t = readRegister8(MAX31865_CONFIG_REG);
    3cdc:	0e 94 c5 07 	call	0xf8a	; 0xf8a <Adafruit_MAX31865::readRegister8(unsigned char) [clone .constprop.23]>
c:\Users\admin\Documents\Arduino\libraries\Adafruit_MAX31865_library/Adafruit_MAX31865.cpp:144
  if (b) {
    t |= MAX31865_CONFIG_MODEAUTO; // enable autoconvert
  } else {
    t &= ~MAX31865_CONFIG_MODEAUTO; // disable autoconvert
    3ce0:	68 2f       	mov	r22, r24
    3ce2:	6f 7b       	andi	r22, 0xBF	; 191
c:\Users\admin\Documents\Arduino\libraries\Adafruit_MAX31865_library/Adafruit_MAX31865.cpp:146
  }
  writeRegister8(MAX31865_CONFIG_REG, t);
    3ce4:	80 e0       	ldi	r24, 0x00	; 0
    3ce6:	0e 94 91 07 	call	0xf22	; 0xf22 <Adafruit_MAX31865::writeRegister8(unsigned char, unsigned char) [clone .constprop.26]>
setThresholds():
c:\Users\admin\Documents\Arduino\libraries\Adafruit_MAX31865_library/Adafruit_MAX31865.cpp:175
    @param lower raw lower threshold
    @param upper raw upper threshold
*/
/**************************************************************************/
void Adafruit_MAX31865::setThresholds(uint16_t lower, uint16_t upper) {
  writeRegister8(MAX31865_LFAULTLSB_REG, lower & 0xFF);
    3cea:	60 e0       	ldi	r22, 0x00	; 0
    3cec:	86 e0       	ldi	r24, 0x06	; 6
    3cee:	0e 94 91 07 	call	0xf22	; 0xf22 <Adafruit_MAX31865::writeRegister8(unsigned char, unsigned char) [clone .constprop.26]>
c:\Users\admin\Documents\Arduino\libraries\Adafruit_MAX31865_library/Adafruit_MAX31865.cpp:176
  writeRegister8(MAX31865_LFAULTMSB_REG, lower >> 8);
    3cf2:	60 e0       	ldi	r22, 0x00	; 0
    3cf4:	85 e0       	ldi	r24, 0x05	; 5
    3cf6:	0e 94 91 07 	call	0xf22	; 0xf22 <Adafruit_MAX31865::writeRegister8(unsigned char, unsigned char) [clone .constprop.26]>
c:\Users\admin\Documents\Arduino\libraries\Adafruit_MAX31865_library/Adafruit_MAX31865.cpp:177
  writeRegister8(MAX31865_HFAULTLSB_REG, upper & 0xFF);
    3cfa:	6f ef       	ldi	r22, 0xFF	; 255
    3cfc:	84 e0       	ldi	r24, 0x04	; 4
    3cfe:	0e 94 91 07 	call	0xf22	; 0xf22 <Adafruit_MAX31865::writeRegister8(unsigned char, unsigned char) [clone .constprop.26]>
c:\Users\admin\Documents\Arduino\libraries\Adafruit_MAX31865_library/Adafruit_MAX31865.cpp:178
  writeRegister8(MAX31865_HFAULTMSB_REG, upper >> 8);
    3d02:	6f ef       	ldi	r22, 0xFF	; 255
    3d04:	83 e0       	ldi	r24, 0x03	; 3
    3d06:	0e 94 91 07 	call	0xf22	; 0xf22 <Adafruit_MAX31865::writeRegister8(unsigned char, unsigned char) [clone .constprop.26]>
begin():
c:\Users\admin\Documents\Arduino\libraries\Adafruit_MAX31865_library/Adafruit_MAX31865.cpp:66

  setWires(wires);
  enableBias(false);
  autoConvert(false);
  setThresholds(0, 0xFFFF);
  clearFault();
    3d0a:	0e 94 dc 07 	call	0xfb8	; 0xfb8 <Adafruit_MAX31865::clearFault() [clone .constprop.22]>
C:\Users\admin\AppData\Local\Arduino15\packages\MegaCore\hardware\avr\3.0.0\cores\MCUdude_corefiles/HardwareSerial.cpp:121

void HardwareSerial::begin(unsigned long baud, byte config)
{
  // Try u2x mode first
  uint16_t baud_setting = (F_CPU / 4 / baud - 1) / 2;
  *_ucsra = 1 << U2X0;
    3d0e:	e0 91 bb 03 	lds	r30, 0x03BB	; 0x8003bb <Serial3+0x10>
    3d12:	f0 91 bc 03 	lds	r31, 0x03BC	; 0x8003bc <Serial3+0x11>
    3d16:	82 e0       	ldi	r24, 0x02	; 2
    3d18:	80 83       	st	Z, r24
C:\Users\admin\AppData\Local\Arduino15\packages\MegaCore\hardware\avr\3.0.0\cores\MCUdude_corefiles/HardwareSerial.cpp:135
    *_ucsra = 0;
    baud_setting = (F_CPU / 8 / baud - 1) / 2;
  }

  // assign the baud_setting, a.k.a. ubrr (USART Baud Rate Register)
  *_ubrrh = baud_setting >> 8;
    3d1a:	e0 91 b7 03 	lds	r30, 0x03B7	; 0x8003b7 <Serial3+0xc>
    3d1e:	f0 91 b8 03 	lds	r31, 0x03B8	; 0x8003b8 <Serial3+0xd>
    3d22:	10 82       	st	Z, r1
C:\Users\admin\AppData\Local\Arduino15\packages\MegaCore\hardware\avr\3.0.0\cores\MCUdude_corefiles/HardwareSerial.cpp:136
  *_ubrrl = baud_setting;
    3d24:	e0 91 b9 03 	lds	r30, 0x03B9	; 0x8003b9 <Serial3+0xe>
    3d28:	f0 91 ba 03 	lds	r31, 0x03BA	; 0x8003ba <Serial3+0xf>
    3d2c:	8f ec       	ldi	r24, 0xCF	; 207
    3d2e:	80 83       	st	Z, r24
C:\Users\admin\AppData\Local\Arduino15\packages\MegaCore\hardware\avr\3.0.0\cores\MCUdude_corefiles/HardwareSerial.cpp:138

  _written = false;
    3d30:	10 92 c3 03 	sts	0x03C3, r1	; 0x8003c3 <Serial3+0x18>
C:\Users\admin\AppData\Local\Arduino15\packages\MegaCore\hardware\avr\3.0.0\cores\MCUdude_corefiles/HardwareSerial.cpp:146
#if defined(__AVR_ATmega8__) || defined(__AVR_ATmega8515__) || defined(__AVR_ATmega162__) \
|| defined(__AVR_ATmega8535__) || defined(__AVR_ATmega16__)|| defined(__AVR_ATmega32__)   \
|| defined(__AVR_ATmega162__)
  config |= 0x80; // select UCSRC register (shared with UBRRH)
#endif
  *_ucsrc = config;
    3d34:	e0 91 bf 03 	lds	r30, 0x03BF	; 0x8003bf <Serial3+0x14>
    3d38:	f0 91 c0 03 	lds	r31, 0x03C0	; 0x8003c0 <Serial3+0x15>
    3d3c:	86 e0       	ldi	r24, 0x06	; 6
    3d3e:	80 83       	st	Z, r24
C:\Users\admin\AppData\Local\Arduino15\packages\MegaCore\hardware\avr\3.0.0\cores\MCUdude_corefiles/HardwareSerial.cpp:148
  
  *_ucsrb |= _BV(RXEN0) | _BV(TXEN0) | _BV(RXCIE0);
    3d40:	e0 91 bd 03 	lds	r30, 0x03BD	; 0x8003bd <Serial3+0x12>
    3d44:	f0 91 be 03 	lds	r31, 0x03BE	; 0x8003be <Serial3+0x13>
    3d48:	80 81       	ld	r24, Z
    3d4a:	88 69       	ori	r24, 0x98	; 152
    3d4c:	80 83       	st	Z, r24
C:\Users\admin\AppData\Local\Arduino15\packages\MegaCore\hardware\avr\3.0.0\cores\MCUdude_corefiles/HardwareSerial.cpp:149
  *_ucsrb &= ~_BV(UDRIE0);
    3d4e:	e0 91 bd 03 	lds	r30, 0x03BD	; 0x8003bd <Serial3+0x12>
    3d52:	f0 91 be 03 	lds	r31, 0x03BE	; 0x8003be <Serial3+0x13>
    3d56:	80 81       	ld	r24, Z
    3d58:	8f 7d       	andi	r24, 0xDF	; 223
    3d5a:	80 83       	st	Z, r24
_ZN14VFD_NEC_FC20X213setSerialPortEP6Stream():
c:\Users\admin\Documents\Arduino\libraries\VFD_NEC_FC20X2/vfd_nec_fc20x2.h:29
#define ESCAPE              0x1B    //Used to position the cursor at specific pos.

class VFD_NEC_FC20X2 {
    public:
        void setSerialPort(Stream * streamObject) {
            _serPort = streamObject;
    3d5c:	8b ea       	ldi	r24, 0xAB	; 171
    3d5e:	93 e0       	ldi	r25, 0x03	; 3
    3d60:	90 93 aa 03 	sts	0x03AA, r25	; 0x8003aa <vfd+0x1>
    3d64:	80 93 a9 03 	sts	0x03A9, r24	; 0x8003a9 <vfd>
setup():
C:\Users\admin\Documents\Github\marketforge\MarketForge_Control/MarketForge_Control.ino:428

  bool res = tempSensor.begin(MAX31865_4WIRE);
  Serial3.begin(9600);
  // Serial3.print(("Test"));
  vfd.setSerialPort(&Serial3);
  vfd.Init();
    3d68:	0e 94 8b 01 	call	0x316	; 0x316 <VFD_NEC_FC20X2::Init() [clone .constprop.52]>
C:\Users\admin\Documents\Github\marketforge\MarketForge_Control/MarketForge_Control.ino:432

  //LED
  //Initialize LEDS
  pinMode(LED0, OUTPUT);
    3d6c:	61 e0       	ldi	r22, 0x01	; 1
    3d6e:	81 e3       	ldi	r24, 0x31	; 49
    3d70:	0e 94 79 06 	call	0xcf2	; 0xcf2 <pinMode>
C:\Users\admin\Documents\Github\marketforge\MarketForge_Control/MarketForge_Control.ino:433
  pinMode(LED1, OUTPUT);
    3d74:	61 e0       	ldi	r22, 0x01	; 1
    3d76:	80 e3       	ldi	r24, 0x30	; 48
    3d78:	0e 94 79 06 	call	0xcf2	; 0xcf2 <pinMode>
C:\Users\admin\Documents\Github\marketforge\MarketForge_Control/MarketForge_Control.ino:434
  pinMode(LED2, OUTPUT);
    3d7c:	61 e0       	ldi	r22, 0x01	; 1
    3d7e:	8f e2       	ldi	r24, 0x2F	; 47
    3d80:	0e 94 79 06 	call	0xcf2	; 0xcf2 <pinMode>
C:\Users\admin\Documents\Github\marketforge\MarketForge_Control/MarketForge_Control.ino:435
  pinMode(LED3, OUTPUT);
    3d84:	61 e0       	ldi	r22, 0x01	; 1
    3d86:	8e e2       	ldi	r24, 0x2E	; 46
    3d88:	0e 94 79 06 	call	0xcf2	; 0xcf2 <pinMode>
C:\Users\admin\Documents\Github\marketforge\MarketForge_Control/MarketForge_Control.ino:436
  pinMode(LED4, OUTPUT);
    3d8c:	61 e0       	ldi	r22, 0x01	; 1
    3d8e:	8d e2       	ldi	r24, 0x2D	; 45
    3d90:	0e 94 79 06 	call	0xcf2	; 0xcf2 <pinMode>
C:\Users\admin\Documents\Github\marketforge\MarketForge_Control/MarketForge_Control.ino:437
  pinMode(LED5, OUTPUT);
    3d94:	61 e0       	ldi	r22, 0x01	; 1
    3d96:	8c e2       	ldi	r24, 0x2C	; 44
    3d98:	0e 94 79 06 	call	0xcf2	; 0xcf2 <pinMode>
C:\Users\admin\Documents\Github\marketforge\MarketForge_Control/MarketForge_Control.ino:438
  pinMode(LED6, OUTPUT);
    3d9c:	61 e0       	ldi	r22, 0x01	; 1
    3d9e:	8b e2       	ldi	r24, 0x2B	; 43
    3da0:	0e 94 79 06 	call	0xcf2	; 0xcf2 <pinMode>
C:\Users\admin\Documents\Github\marketforge\MarketForge_Control/MarketForge_Control.ino:439
  pinMode(LED7, OUTPUT);
    3da4:	61 e0       	ldi	r22, 0x01	; 1
    3da6:	8a e2       	ldi	r24, 0x2A	; 42
    3da8:	0e 94 79 06 	call	0xcf2	; 0xcf2 <pinMode>
C:\Users\admin\Documents\Github\marketforge\MarketForge_Control/MarketForge_Control.ino:440
  pinMode(LED_OC, OUTPUT);
    3dac:	61 e0       	ldi	r22, 0x01	; 1
    3dae:	8a e2       	ldi	r24, 0x2A	; 42
    3db0:	0e 94 79 06 	call	0xcf2	; 0xcf2 <pinMode>
C:\Users\admin\Documents\Github\marketforge\MarketForge_Control/MarketForge_Control.ino:441
  digitalWrite(LED0, LED_OFF);
    3db4:	60 e0       	ldi	r22, 0x00	; 0
    3db6:	81 e3       	ldi	r24, 0x31	; 49
    3db8:	0e 94 2d 06 	call	0xc5a	; 0xc5a <digitalWrite>
C:\Users\admin\Documents\Github\marketforge\MarketForge_Control/MarketForge_Control.ino:442
  digitalWrite(LED1, LED_OFF);
    3dbc:	60 e0       	ldi	r22, 0x00	; 0
    3dbe:	80 e3       	ldi	r24, 0x30	; 48
    3dc0:	0e 94 2d 06 	call	0xc5a	; 0xc5a <digitalWrite>
C:\Users\admin\Documents\Github\marketforge\MarketForge_Control/MarketForge_Control.ino:443
  digitalWrite(LED2, LED_OFF);
    3dc4:	60 e0       	ldi	r22, 0x00	; 0
    3dc6:	8f e2       	ldi	r24, 0x2F	; 47
    3dc8:	0e 94 2d 06 	call	0xc5a	; 0xc5a <digitalWrite>
C:\Users\admin\Documents\Github\marketforge\MarketForge_Control/MarketForge_Control.ino:444
  digitalWrite(LED3, LED_OFF);
    3dcc:	60 e0       	ldi	r22, 0x00	; 0
    3dce:	8e e2       	ldi	r24, 0x2E	; 46
    3dd0:	0e 94 2d 06 	call	0xc5a	; 0xc5a <digitalWrite>
C:\Users\admin\Documents\Github\marketforge\MarketForge_Control/MarketForge_Control.ino:445
  digitalWrite(LED4, LED_OFF);
    3dd4:	60 e0       	ldi	r22, 0x00	; 0
    3dd6:	8d e2       	ldi	r24, 0x2D	; 45
    3dd8:	0e 94 2d 06 	call	0xc5a	; 0xc5a <digitalWrite>
C:\Users\admin\Documents\Github\marketforge\MarketForge_Control/MarketForge_Control.ino:446
  digitalWrite(LED5, LED_OFF);
    3ddc:	60 e0       	ldi	r22, 0x00	; 0
    3dde:	8c e2       	ldi	r24, 0x2C	; 44
    3de0:	0e 94 2d 06 	call	0xc5a	; 0xc5a <digitalWrite>
C:\Users\admin\Documents\Github\marketforge\MarketForge_Control/MarketForge_Control.ino:447
  digitalWrite(LED6, LED_OFF);
    3de4:	60 e0       	ldi	r22, 0x00	; 0
    3de6:	8b e2       	ldi	r24, 0x2B	; 43
    3de8:	0e 94 2d 06 	call	0xc5a	; 0xc5a <digitalWrite>
C:\Users\admin\Documents\Github\marketforge\MarketForge_Control/MarketForge_Control.ino:448
  digitalWrite(LED7, LED_OFF);
    3dec:	60 e0       	ldi	r22, 0x00	; 0
    3dee:	8a e2       	ldi	r24, 0x2A	; 42
    3df0:	0e 94 2d 06 	call	0xc5a	; 0xc5a <digitalWrite>
C:\Users\admin\Documents\Github\marketforge\MarketForge_Control/MarketForge_Control.ino:451

  //Initialize Vent Solenoid
  pinMode(VENT_SOLENOID,OUTPUT);
    3df4:	61 e0       	ldi	r22, 0x01	; 1
    3df6:	88 e1       	ldi	r24, 0x18	; 24
    3df8:	0e 94 79 06 	call	0xcf2	; 0xcf2 <pinMode>
C:\Users\admin\Documents\Github\marketforge\MarketForge_Control/MarketForge_Control.ino:452
  digitalWrite(VENT_SOLENOID,VALVE_OPEN);
    3dfc:	61 e0       	ldi	r22, 0x01	; 1
    3dfe:	88 e1       	ldi	r24, 0x18	; 24
    3e00:	0e 94 2d 06 	call	0xc5a	; 0xc5a <digitalWrite>
C:\Users\admin\Documents\Github\marketforge\MarketForge_Control/MarketForge_Control.ino:455

  //Initialize Start ans Stop buttons
  pinMode(BTN_START, INPUT);
    3e04:	60 e0       	ldi	r22, 0x00	; 0
    3e06:	89 e1       	ldi	r24, 0x19	; 25
    3e08:	0e 94 79 06 	call	0xcf2	; 0xcf2 <pinMode>
C:\Users\admin\Documents\Github\marketforge\MarketForge_Control/MarketForge_Control.ino:456
  pinMode(BTN_STOP, INPUT);
    3e0c:	60 e0       	ldi	r22, 0x00	; 0
    3e0e:	8b e1       	ldi	r24, 0x1B	; 27
    3e10:	0e 94 79 06 	call	0xcf2	; 0xcf2 <pinMode>
C:\Users\admin\Documents\Github\marketforge\MarketForge_Control/MarketForge_Control.ino:457
  digitalWrite(BTN_START,1);
    3e14:	61 e0       	ldi	r22, 0x01	; 1
    3e16:	89 e1       	ldi	r24, 0x19	; 25
    3e18:	0e 94 2d 06 	call	0xc5a	; 0xc5a <digitalWrite>
C:\Users\admin\Documents\Github\marketforge\MarketForge_Control/MarketForge_Control.ino:458
  digitalWrite(BTN_STOP,1);
    3e1c:	61 e0       	ldi	r22, 0x01	; 1
    3e1e:	8b e1       	ldi	r24, 0x1B	; 27
    3e20:	0e 94 2d 06 	call	0xc5a	; 0xc5a <digitalWrite>
C:\Users\admin\Documents\Github\marketforge\MarketForge_Control/MarketForge_Control.ino:460

  pinMode(HEATER1,OUTPUT);
    3e24:	61 e0       	ldi	r22, 0x01	; 1
    3e26:	8a e1       	ldi	r24, 0x1A	; 26
    3e28:	0e 94 79 06 	call	0xcf2	; 0xcf2 <pinMode>
C:\Users\admin\Documents\Github\marketforge\MarketForge_Control/MarketForge_Control.ino:463
  // pinMode(HEATER2,OUTPUT);
  // pinMode(HEATER3,OUTPUT);
  pinMode(HEATER_ENABLE,OUTPUT);
    3e2c:	61 e0       	ldi	r22, 0x01	; 1
    3e2e:	8c e1       	ldi	r24, 0x1C	; 28
    3e30:	0e 94 79 06 	call	0xcf2	; 0xcf2 <pinMode>
C:\Users\admin\Documents\Github\marketforge\MarketForge_Control/MarketForge_Control.ino:464
  digitalWrite(HEATER1, HEATER_OFF);
    3e34:	60 e0       	ldi	r22, 0x00	; 0
    3e36:	8a e1       	ldi	r24, 0x1A	; 26
    3e38:	0e 94 2d 06 	call	0xc5a	; 0xc5a <digitalWrite>
C:\Users\admin\Documents\Github\marketforge\MarketForge_Control/MarketForge_Control.ino:467
  // digitalWrite(HEATER2, HEATER_OFF);
  // digitalWrite(HEATER3, HEATER_OFF);
  digitalWrite(HEATER_ENABLE, HEATER_OFF);
    3e3c:	60 e0       	ldi	r22, 0x00	; 0
    3e3e:	8c e1       	ldi	r24, 0x1C	; 28
    3e40:	0e 94 2d 06 	call	0xc5a	; 0xc5a <digitalWrite>
Read_EEPROM():
C:\Users\admin\Documents\Github\marketforge\MarketForge_Control/MarketForge_Control.ino:151

/*
  Functions
*/
void Read_EEPROM(void) {
  ee_position = 0;
    3e44:	10 92 8d 03 	sts	0x038D, r1	; 0x80038d <ee_position+0x1>
    3e48:	10 92 8c 03 	sts	0x038C, r1	; 0x80038c <ee_position>
C:\Users\admin\Documents\Github\marketforge\MarketForge_Control/MarketForge_Control.ino:152
  EEPROM.get(ee_position, EE_Setpoint);
    3e4c:	68 e8       	ldi	r22, 0x88	; 136
    3e4e:	73 e0       	ldi	r23, 0x03	; 3
    3e50:	90 e0       	ldi	r25, 0x00	; 0
    3e52:	80 e0       	ldi	r24, 0x00	; 0
    3e54:	0e 94 cd 14 	call	0x299a	; 0x299a <double& EEPROMClass::get<double>(int, double&) [clone .isra.2]>
C:\Users\admin\Documents\Github\marketforge\MarketForge_Control/MarketForge_Control.ino:153
  Setpoint = EE_Setpoint = 121.0;
    3e58:	80 e0       	ldi	r24, 0x00	; 0
    3e5a:	90 e0       	ldi	r25, 0x00	; 0
    3e5c:	a2 ef       	ldi	r26, 0xF2	; 242
    3e5e:	b2 e4       	ldi	r27, 0x42	; 66
    3e60:	80 93 88 03 	sts	0x0388, r24	; 0x800388 <EE_Setpoint>
    3e64:	90 93 89 03 	sts	0x0389, r25	; 0x800389 <EE_Setpoint+0x1>
    3e68:	a0 93 8a 03 	sts	0x038A, r26	; 0x80038a <EE_Setpoint+0x2>
    3e6c:	b0 93 8b 03 	sts	0x038B, r27	; 0x80038b <EE_Setpoint+0x3>
    3e70:	80 93 1f 05 	sts	0x051F, r24	; 0x80051f <Setpoint>
    3e74:	90 93 20 05 	sts	0x0520, r25	; 0x800520 <Setpoint+0x1>
    3e78:	a0 93 21 05 	sts	0x0521, r26	; 0x800521 <Setpoint+0x2>
    3e7c:	b0 93 22 05 	sts	0x0522, r27	; 0x800522 <Setpoint+0x3>
C:\Users\admin\Documents\Github\marketforge\MarketForge_Control/MarketForge_Control.ino:154
  ee_position += sizeof(EE_Setpoint);
    3e80:	84 e0       	ldi	r24, 0x04	; 4
    3e82:	90 e0       	ldi	r25, 0x00	; 0
    3e84:	90 93 8d 03 	sts	0x038D, r25	; 0x80038d <ee_position+0x1>
    3e88:	80 93 8c 03 	sts	0x038C, r24	; 0x80038c <ee_position>
C:\Users\admin\Documents\Github\marketforge\MarketForge_Control/MarketForge_Control.ino:156

  EEPROM.get(ee_position, EE_Proportional);
    3e8c:	64 e8       	ldi	r22, 0x84	; 132
    3e8e:	73 e0       	ldi	r23, 0x03	; 3
    3e90:	0e 94 cd 14 	call	0x299a	; 0x299a <double& EEPROMClass::get<double>(int, double&) [clone .isra.2]>
C:\Users\admin\Documents\Github\marketforge\MarketForge_Control/MarketForge_Control.ino:157
  Kp = EE_Proportional = 20.0;
    3e94:	81 2c       	mov	r8, r1
    3e96:	91 2c       	mov	r9, r1
    3e98:	80 ea       	ldi	r24, 0xA0	; 160
    3e9a:	a8 2e       	mov	r10, r24
    3e9c:	81 e4       	ldi	r24, 0x41	; 65
    3e9e:	b8 2e       	mov	r11, r24
    3ea0:	80 92 84 03 	sts	0x0384, r8	; 0x800384 <EE_Proportional>
    3ea4:	90 92 85 03 	sts	0x0385, r9	; 0x800385 <EE_Proportional+0x1>
    3ea8:	a0 92 86 03 	sts	0x0386, r10	; 0x800386 <EE_Proportional+0x2>
    3eac:	b0 92 87 03 	sts	0x0387, r11	; 0x800387 <EE_Proportional+0x3>
    3eb0:	80 92 62 05 	sts	0x0562, r8	; 0x800562 <Kp>
    3eb4:	90 92 63 05 	sts	0x0563, r9	; 0x800563 <Kp+0x1>
    3eb8:	a0 92 64 05 	sts	0x0564, r10	; 0x800564 <Kp+0x2>
    3ebc:	b0 92 65 05 	sts	0x0565, r11	; 0x800565 <Kp+0x3>
C:\Users\admin\Documents\Github\marketforge\MarketForge_Control/MarketForge_Control.ino:158
  ee_position += sizeof(EE_Proportional);
    3ec0:	88 e0       	ldi	r24, 0x08	; 8
    3ec2:	90 e0       	ldi	r25, 0x00	; 0
    3ec4:	90 93 8d 03 	sts	0x038D, r25	; 0x80038d <ee_position+0x1>
    3ec8:	80 93 8c 03 	sts	0x038C, r24	; 0x80038c <ee_position>
C:\Users\admin\Documents\Github\marketforge\MarketForge_Control/MarketForge_Control.ino:160

  EEPROM.get(ee_position, EE_Integral);
    3ecc:	60 e8       	ldi	r22, 0x80	; 128
    3ece:	73 e0       	ldi	r23, 0x03	; 3
    3ed0:	0e 94 cd 14 	call	0x299a	; 0x299a <double& EEPROMClass::get<double>(int, double&) [clone .isra.2]>
C:\Users\admin\Documents\Github\marketforge\MarketForge_Control/MarketForge_Control.ino:161
  Ki = EE_Integral = 0.08;
    3ed4:	9a e0       	ldi	r25, 0x0A	; 10
    3ed6:	c9 2e       	mov	r12, r25
    3ed8:	97 ed       	ldi	r25, 0xD7	; 215
    3eda:	d9 2e       	mov	r13, r25
    3edc:	93 ea       	ldi	r25, 0xA3	; 163
    3ede:	e9 2e       	mov	r14, r25
    3ee0:	9d e3       	ldi	r25, 0x3D	; 61
    3ee2:	f9 2e       	mov	r15, r25
    3ee4:	c0 92 80 03 	sts	0x0380, r12	; 0x800380 <EE_Integral>
    3ee8:	d0 92 81 03 	sts	0x0381, r13	; 0x800381 <EE_Integral+0x1>
    3eec:	e0 92 82 03 	sts	0x0382, r14	; 0x800382 <EE_Integral+0x2>
    3ef0:	f0 92 83 03 	sts	0x0383, r15	; 0x800383 <EE_Integral+0x3>
    3ef4:	c0 92 66 05 	sts	0x0566, r12	; 0x800566 <Ki>
    3ef8:	d0 92 67 05 	sts	0x0567, r13	; 0x800567 <Ki+0x1>
    3efc:	e0 92 68 05 	sts	0x0568, r14	; 0x800568 <Ki+0x2>
    3f00:	f0 92 69 05 	sts	0x0569, r15	; 0x800569 <Ki+0x3>
C:\Users\admin\Documents\Github\marketforge\MarketForge_Control/MarketForge_Control.ino:162
  ee_position += sizeof(EE_Integral);
    3f04:	8c e0       	ldi	r24, 0x0C	; 12
    3f06:	90 e0       	ldi	r25, 0x00	; 0
    3f08:	90 93 8d 03 	sts	0x038D, r25	; 0x80038d <ee_position+0x1>
    3f0c:	80 93 8c 03 	sts	0x038C, r24	; 0x80038c <ee_position>
C:\Users\admin\Documents\Github\marketforge\MarketForge_Control/MarketForge_Control.ino:164

  EEPROM.get(ee_position, EE_Derivative);
    3f10:	6c e7       	ldi	r22, 0x7C	; 124
    3f12:	73 e0       	ldi	r23, 0x03	; 3
    3f14:	0e 94 cd 14 	call	0x299a	; 0x299a <double& EEPROMClass::get<double>(int, double&) [clone .isra.2]>
C:\Users\admin\Documents\Github\marketforge\MarketForge_Control/MarketForge_Control.ino:165
  Kd = EE_Derivative = 0.0;
    3f18:	10 92 7c 03 	sts	0x037C, r1	; 0x80037c <EE_Derivative>
    3f1c:	10 92 7d 03 	sts	0x037D, r1	; 0x80037d <EE_Derivative+0x1>
    3f20:	10 92 7e 03 	sts	0x037E, r1	; 0x80037e <EE_Derivative+0x2>
    3f24:	10 92 7f 03 	sts	0x037F, r1	; 0x80037f <EE_Derivative+0x3>
    3f28:	10 92 6a 05 	sts	0x056A, r1	; 0x80056a <Kd>
    3f2c:	10 92 6b 05 	sts	0x056B, r1	; 0x80056b <Kd+0x1>
    3f30:	10 92 6c 05 	sts	0x056C, r1	; 0x80056c <Kd+0x2>
    3f34:	10 92 6d 05 	sts	0x056D, r1	; 0x80056d <Kd+0x3>
C:\Users\admin\Documents\Github\marketforge\MarketForge_Control/MarketForge_Control.ino:166
  ee_position += sizeof(EE_Derivative);
    3f38:	80 e1       	ldi	r24, 0x10	; 16
    3f3a:	90 e0       	ldi	r25, 0x00	; 0
    3f3c:	90 93 8d 03 	sts	0x038D, r25	; 0x80038d <ee_position+0x1>
    3f40:	80 93 8c 03 	sts	0x038C, r24	; 0x80038c <ee_position>
C:\Users\admin\Documents\Github\marketforge\MarketForge_Control/MarketForge_Control.ino:168

  EEPROM.get(ee_position, EE_Temp_Cor_Factor);
    3f44:	68 e7       	ldi	r22, 0x78	; 120
    3f46:	73 e0       	ldi	r23, 0x03	; 3
    3f48:	0e 94 cd 14 	call	0x299a	; 0x299a <double& EEPROMClass::get<double>(int, double&) [clone .isra.2]>
C:\Users\admin\Documents\Github\marketforge\MarketForge_Control/MarketForge_Control.ino:169
  Factor_Corr_Temp = EE_Temp_Cor_Factor = 1.043;
    3f4c:	86 e0       	ldi	r24, 0x06	; 6
    3f4e:	91 e8       	ldi	r25, 0x81	; 129
    3f50:	a5 e8       	ldi	r26, 0x85	; 133
    3f52:	bf e3       	ldi	r27, 0x3F	; 63
    3f54:	80 93 78 03 	sts	0x0378, r24	; 0x800378 <EE_Temp_Cor_Factor>
    3f58:	90 93 79 03 	sts	0x0379, r25	; 0x800379 <EE_Temp_Cor_Factor+0x1>
    3f5c:	a0 93 7a 03 	sts	0x037A, r26	; 0x80037a <EE_Temp_Cor_Factor+0x2>
    3f60:	b0 93 7b 03 	sts	0x037B, r27	; 0x80037b <EE_Temp_Cor_Factor+0x3>
    3f64:	80 93 92 03 	sts	0x0392, r24	; 0x800392 <Factor_Corr_Temp>
    3f68:	90 93 93 03 	sts	0x0393, r25	; 0x800393 <Factor_Corr_Temp+0x1>
    3f6c:	a0 93 94 03 	sts	0x0394, r26	; 0x800394 <Factor_Corr_Temp+0x2>
    3f70:	b0 93 95 03 	sts	0x0395, r27	; 0x800395 <Factor_Corr_Temp+0x3>
C:\Users\admin\Documents\Github\marketforge\MarketForge_Control/MarketForge_Control.ino:170
  ee_position += sizeof(EE_Temp_Cor_Factor);
    3f74:	84 e1       	ldi	r24, 0x14	; 20
    3f76:	90 e0       	ldi	r25, 0x00	; 0
    3f78:	90 93 8d 03 	sts	0x038D, r25	; 0x80038d <ee_position+0x1>
    3f7c:	80 93 8c 03 	sts	0x038C, r24	; 0x80038c <ee_position>
C:\Users\admin\Documents\Github\marketforge\MarketForge_Control/MarketForge_Control.ino:172

  EEPROM.get(ee_position, EE_Pres_Cor_Fctr);
    3f80:	64 e7       	ldi	r22, 0x74	; 116
    3f82:	73 e0       	ldi	r23, 0x03	; 3
    3f84:	0e 94 cd 14 	call	0x299a	; 0x299a <double& EEPROMClass::get<double>(int, double&) [clone .isra.2]>
C:\Users\admin\Documents\Github\marketforge\MarketForge_Control/MarketForge_Control.ino:173
  Factor_Corr_Press = EE_Pres_Cor_Fctr = 0.993;
    3f88:	8f e3       	ldi	r24, 0x3F	; 63
    3f8a:	95 e3       	ldi	r25, 0x35	; 53
    3f8c:	ae e7       	ldi	r26, 0x7E	; 126
    3f8e:	bf e3       	ldi	r27, 0x3F	; 63
    3f90:	80 93 74 03 	sts	0x0374, r24	; 0x800374 <EE_Pres_Cor_Fctr>
    3f94:	90 93 75 03 	sts	0x0375, r25	; 0x800375 <EE_Pres_Cor_Fctr+0x1>
    3f98:	a0 93 76 03 	sts	0x0376, r26	; 0x800376 <EE_Pres_Cor_Fctr+0x2>
    3f9c:	b0 93 77 03 	sts	0x0377, r27	; 0x800377 <EE_Pres_Cor_Fctr+0x3>
    3fa0:	80 93 8e 03 	sts	0x038E, r24	; 0x80038e <Factor_Corr_Press>
    3fa4:	90 93 8f 03 	sts	0x038F, r25	; 0x80038f <Factor_Corr_Press+0x1>
    3fa8:	a0 93 90 03 	sts	0x0390, r26	; 0x800390 <Factor_Corr_Press+0x2>
    3fac:	b0 93 91 03 	sts	0x0391, r27	; 0x800391 <Factor_Corr_Press+0x3>
C:\Users\admin\Documents\Github\marketforge\MarketForge_Control/MarketForge_Control.ino:177
  ee_position += sizeof(EE_Pres_Cor_Fctr);

  EEPROM.get(ee_position, EE_Min);
  MinutesSetpoint = EE_Min = 15;
    3fb0:	8f e0       	ldi	r24, 0x0F	; 15
    3fb2:	90 e0       	ldi	r25, 0x00	; 0
    3fb4:	90 93 73 03 	sts	0x0373, r25	; 0x800373 <EE_Min+0x1>
    3fb8:	80 93 72 03 	sts	0x0372, r24	; 0x800372 <EE_Min>
    3fbc:	90 93 9b 03 	sts	0x039B, r25	; 0x80039b <MinutesSetpoint+0x1>
    3fc0:	80 93 9a 03 	sts	0x039A, r24	; 0x80039a <MinutesSetpoint>
C:\Users\admin\Documents\Github\marketforge\MarketForge_Control/MarketForge_Control.ino:178
  ee_position += sizeof(EE_Min);
    3fc4:	8a e1       	ldi	r24, 0x1A	; 26
    3fc6:	90 e0       	ldi	r25, 0x00	; 0
    3fc8:	90 93 8d 03 	sts	0x038D, r25	; 0x80038d <ee_position+0x1>
    3fcc:	80 93 8c 03 	sts	0x038C, r24	; 0x80038c <ee_position>
operator*():
C:\Users\admin\AppData\Local\Arduino15\packages\MegaCore\hardware\avr\3.0.0\libraries\EEPROM\src/EEPROM.h:42

    EERef( const int index )
        : index( index )                 {}

    //Access/read members.
    uint8_t operator*() const            { return eeprom_read_byte( (uint8_t*) index ); }
    3fd0:	0e 94 63 24 	call	0x48c6	; 0x48c6 <eeprom_read_byte>
_ZN11EEPROMClass3getIbEERT_iS2_.isra.5():
C:\Users\admin\AppData\Local\Arduino15\packages\MegaCore\hardware\avr\3.0.0\libraries\EEPROM\src/EEPROM.h:133

    //Functionality to 'get' and 'put' objects to and from EEPROM.
    template< typename T > T &get( int idx, T &t ){
        EEPtr e = idx;
        uint8_t *ptr = (uint8_t*) &t;
        for( int count = sizeof(T) ; count ; --count, ++e )  *ptr++ = *e;
    3fd4:	80 93 71 03 	sts	0x0371, r24	; 0x800371 <EE_Open_Valve_At_End_Of_Cycle>
setGains():
c:\Users\admin\Documents\Arduino\libraries\AutoPID/AutoPID.cpp:15
  setGains(Kp, Ki, Kd);
  _timeStep = 1000;
}//AutoPID::AutoPID

void AutoPID::setGains(double Kp, double Ki, double Kd) {
  _Kp = Kp;
    3fd8:	80 92 27 05 	sts	0x0527, r8	; 0x800527 <pid>
    3fdc:	90 92 28 05 	sts	0x0528, r9	; 0x800528 <pid+0x1>
    3fe0:	a0 92 29 05 	sts	0x0529, r10	; 0x800529 <pid+0x2>
    3fe4:	b0 92 2a 05 	sts	0x052A, r11	; 0x80052a <pid+0x3>
c:\Users\admin\Documents\Arduino\libraries\AutoPID/AutoPID.cpp:16
  _Ki = Ki;
    3fe8:	c0 92 2b 05 	sts	0x052B, r12	; 0x80052b <pid+0x4>
    3fec:	d0 92 2c 05 	sts	0x052C, r13	; 0x80052c <pid+0x5>
    3ff0:	e0 92 2d 05 	sts	0x052D, r14	; 0x80052d <pid+0x6>
    3ff4:	f0 92 2e 05 	sts	0x052E, r15	; 0x80052e <pid+0x7>
c:\Users\admin\Documents\Arduino\libraries\AutoPID/AutoPID.cpp:17
  _Kd = Kd;
    3ff8:	10 92 2f 05 	sts	0x052F, r1	; 0x80052f <pid+0x8>
    3ffc:	10 92 30 05 	sts	0x0530, r1	; 0x800530 <pid+0x9>
    4000:	10 92 31 05 	sts	0x0531, r1	; 0x800531 <pid+0xa>
    4004:	10 92 32 05 	sts	0x0532, r1	; 0x800532 <pid+0xb>
setup():
C:\Users\admin\Documents\Github\marketforge\MarketForge_Control/MarketForge_Control.ino:472
  digitalWrite(HEATER_ENABLE, HEATER_OFF);

  //Load settings form EEPROM
  Read_EEPROM();

  timer1Sec.start();
    4008:	80 e0       	ldi	r24, 0x00	; 0
    400a:	95 e0       	ldi	r25, 0x05	; 5
    400c:	0e 94 ed 11 	call	0x23da	; 0x23da <Ticker::start()>
Sterilizing():
C:\Users\admin\Documents\Github\marketforge\MarketForge_Control/MarketForge_Control.ino:311
}

void Sterilizing(void) {
  char txt[20];
  
  sprintf(txt,"Esteriliz.  ");
    4010:	8e 01       	movw	r16, r28
    4012:	0f 5f       	subi	r16, 0xFF	; 255
    4014:	1f 4f       	sbci	r17, 0xFF	; 255
C:\Users\admin\Documents\Github\marketforge\MarketForge_Control/MarketForge_Control.ino:327
    vfd.Print(txt,40-strlen(txt));
  } else {
    sprintf(txt,"%1.1f C   ", Temperature);
    vfd.Print(txt,20);

    sprintf(txt," %1.1f Psi ", Pressure);
    4016:	29 ef       	ldi	r18, 0xF9	; 249
    4018:	22 2e       	mov	r2, r18
    401a:	22 e0       	ldi	r18, 0x02	; 2
    401c:	32 2e       	mov	r3, r18
loop():
C:\Users\admin\Documents\Github\marketforge\MarketForge_Control/MarketForge_Control.ino:479
}

void loop() {
  char txt[50];

  timer1Sec.update();
    401e:	80 e0       	ldi	r24, 0x00	; 0
    4020:	95 e0       	ldi	r25, 0x05	; 5
    4022:	0e 94 89 11 	call	0x2312	; 0x2312 <Ticker::update()>
analogRead():
C:\Users\admin\AppData\Local\Arduino15\packages\MegaCore\hardware\avr\3.0.0\cores\MCUdude_corefiles/wiring_analog.c:61
#endif

#if defined(ADCSRB) && defined(MUX5)
  // the MUX5 bit of ADCSRB selects whether we're reading from channels
  // 0 to 7 (MUX5 low) or 8 to 15 (MUX5 high).
  ADCSRB = (ADCSRB & ~(1 << MUX5)) | (((pin >> 3) & 0x01) << MUX5);
    4026:	80 91 7b 00 	lds	r24, 0x007B	; 0x80007b <__TEXT_REGION_LENGTH__+0x70007b>
    402a:	87 7f       	andi	r24, 0xF7	; 247
    402c:	80 93 7b 00 	sts	0x007B, r24	; 0x80007b <__TEXT_REGION_LENGTH__+0x70007b>
C:\Users\admin\AppData\Local\Arduino15\packages\MegaCore\hardware\avr\3.0.0\cores\MCUdude_corefiles/wiring_analog.c:68
  
  // set the analog reference (high two bits of ADMUX) and select the
  // channel (low 4 bits).  this also sets ADLAR (left-adjust result)
  // to 0 (the default).
#if defined(ADMUX)
  ADMUX = (analog_reference << 6) | (pin & 0x07);
    4030:	20 e4       	ldi	r18, 0x40	; 64
    4032:	20 93 7c 00 	sts	0x007C, r18	; 0x80007c <__TEXT_REGION_LENGTH__+0x70007c>
C:\Users\admin\AppData\Local\Arduino15\packages\MegaCore\hardware\avr\3.0.0\cores\MCUdude_corefiles/wiring_analog.c:76
  // without a delay, we seem to read from the wrong channel
  //delay(1);

#if defined(ADCSRA) && defined(ADC)
  // start the conversion
  ADCSRA |= _BV(ADSC);
    4036:	80 91 7a 00 	lds	r24, 0x007A	; 0x80007a <__TEXT_REGION_LENGTH__+0x70007a>
    403a:	80 64       	ori	r24, 0x40	; 64
    403c:	80 93 7a 00 	sts	0x007A, r24	; 0x80007a <__TEXT_REGION_LENGTH__+0x70007a>
C:\Users\admin\AppData\Local\Arduino15\packages\MegaCore\hardware\avr\3.0.0\cores\MCUdude_corefiles/wiring_analog.c:79

  // ADSC is cleared when the conversion finishes
  while (ADCSRA & _BV(ADSC)) {};
    4040:	80 91 7a 00 	lds	r24, 0x007A	; 0x80007a <__TEXT_REGION_LENGTH__+0x70007a>
    4044:	86 fd       	sbrc	r24, 6
    4046:	fc cf       	rjmp	.-8      	; 0x4040 <main+0x4ae>
C:\Users\admin\AppData\Local\Arduino15\packages\MegaCore\hardware\avr\3.0.0\cores\MCUdude_corefiles/wiring_analog.c:83

  // ADC macro takes care of reading ADC register.
 	// avr-gcc implements the proper reading order: ADCL is read first.
 	return ADC;
    4048:	60 91 78 00 	lds	r22, 0x0078	; 0x800078 <__TEXT_REGION_LENGTH__+0x700078>
    404c:	70 91 79 00 	lds	r23, 0x0079	; 0x800079 <__TEXT_REGION_LENGTH__+0x700079>
Read_Pressure():
C:\Users\admin\Documents\Github\marketforge\MarketForge_Control/MarketForge_Control.ino:240

}

void Read_Pressure(void) {
  //Test Analog Voltage
  float voltage = analogRead(analogVoltPin) * ANALAOG_RES;
    4050:	07 2e       	mov	r0, r23
    4052:	00 0c       	add	r0, r0
    4054:	88 0b       	sbc	r24, r24
    4056:	99 0b       	sbc	r25, r25
    4058:	0e 94 c9 25 	call	0x4b92	; 0x4b92 <__floatsisf>
    405c:	20 e0       	ldi	r18, 0x00	; 0
    405e:	30 e0       	ldi	r19, 0x00	; 0
    4060:	40 ea       	ldi	r20, 0xA0	; 160
    4062:	5b e3       	ldi	r21, 0x3B	; 59
    4064:	0e 94 cc 26 	call	0x4d98	; 0x4d98 <__mulsf3>
    4068:	ab 01       	movw	r20, r22
    406a:	bc 01       	movw	r22, r24
C:\Users\admin\Documents\Github\marketforge\MarketForge_Control/MarketForge_Control.ino:241
  avgVolts.Insert(voltage); 
    406c:	8e e6       	ldi	r24, 0x6E	; 110
    406e:	95 e0       	ldi	r25, 0x05	; 5
    4070:	0e 94 0f 12 	call	0x241e	; 0x241e <MovingAverage<float>::Insert(float)>
C:\Users\admin\Documents\Github\marketforge\MarketForge_Control/MarketForge_Control.ino:242
  Pressure = (7.5 * avgVolts.GetAverage()) - 3.9; 
    4074:	20 e0       	ldi	r18, 0x00	; 0
    4076:	30 e0       	ldi	r19, 0x00	; 0
    4078:	40 ef       	ldi	r20, 0xF0	; 240
    407a:	50 e4       	ldi	r21, 0x40	; 64
    407c:	60 91 70 05 	lds	r22, 0x0570	; 0x800570 <avgVolts+0x2>
    4080:	70 91 71 05 	lds	r23, 0x0571	; 0x800571 <avgVolts+0x3>
    4084:	80 91 72 05 	lds	r24, 0x0572	; 0x800572 <avgVolts+0x4>
    4088:	90 91 73 05 	lds	r25, 0x0573	; 0x800573 <avgVolts+0x5>
    408c:	0e 94 cc 26 	call	0x4d98	; 0x4d98 <__mulsf3>
    4090:	2a e9       	ldi	r18, 0x9A	; 154
    4092:	39 e9       	ldi	r19, 0x99	; 153
    4094:	49 e7       	ldi	r20, 0x79	; 121
    4096:	50 e4       	ldi	r21, 0x40	; 64
    4098:	0e 94 6b 24 	call	0x48d6	; 0x48d6 <__subsf3>
C:\Users\admin\Documents\Github\marketforge\MarketForge_Control/MarketForge_Control.ino:243
  Pressure = (1.044227 * Pressure) + 0.061628;
    409c:	2b e3       	ldi	r18, 0x3B	; 59
    409e:	39 ea       	ldi	r19, 0xA9	; 169
    40a0:	45 e8       	ldi	r20, 0x85	; 133
    40a2:	5f e3       	ldi	r21, 0x3F	; 63
    40a4:	0e 94 cc 26 	call	0x4d98	; 0x4d98 <__mulsf3>
    40a8:	24 ea       	ldi	r18, 0xA4	; 164
    40aa:	3d e6       	ldi	r19, 0x6D	; 109
    40ac:	4c e7       	ldi	r20, 0x7C	; 124
    40ae:	5d e3       	ldi	r21, 0x3D	; 61
    40b0:	0e 94 6c 24 	call	0x48d8	; 0x48d8 <__addsf3>
C:\Users\admin\Documents\Github\marketforge\MarketForge_Control/MarketForge_Control.ino:244
  Pressure = Factor_Corr_Press * Pressure;
    40b4:	20 91 8e 03 	lds	r18, 0x038E	; 0x80038e <Factor_Corr_Press>
    40b8:	30 91 8f 03 	lds	r19, 0x038F	; 0x80038f <Factor_Corr_Press+0x1>
    40bc:	40 91 90 03 	lds	r20, 0x0390	; 0x800390 <Factor_Corr_Press+0x2>
    40c0:	50 91 91 03 	lds	r21, 0x0391	; 0x800391 <Factor_Corr_Press+0x3>
    40c4:	0e 94 cc 26 	call	0x4d98	; 0x4d98 <__mulsf3>
    40c8:	60 93 96 03 	sts	0x0396, r22	; 0x800396 <Pressure>
    40cc:	70 93 97 03 	sts	0x0397, r23	; 0x800397 <Pressure+0x1>
    40d0:	80 93 98 03 	sts	0x0398, r24	; 0x800398 <Pressure+0x2>
    40d4:	90 93 99 03 	sts	0x0399, r25	; 0x800399 <Pressure+0x3>
Read_Temperature():
C:\Users\admin\Documents\Github\marketforge\MarketForge_Control/MarketForge_Control.ino:249
}

void Read_Temperature() {
  ////Read MAX31865
  uint16_t getMAX31865 = tempSensor.readRTD();
    40d8:	0e 94 49 08 	call	0x1092	; 0x1092 <Adafruit_MAX31865::readRTD() [clone .constprop.5]>
temperature():
c:\Users\admin\Documents\Arduino\libraries\Adafruit_MAX31865_library/Adafruit_MAX31865.cpp:233
    430 or 4300
    @returns Temperature in C
*/
/**************************************************************************/
float Adafruit_MAX31865::temperature(float RTDnominal, float refResistor) {
  return calculateTemperature(readRTD(), RTDnominal, refResistor);
    40dc:	0e 94 49 08 	call	0x1092	; 0x1092 <Adafruit_MAX31865::readRTD() [clone .constprop.5]>
calculateTemperature():
c:\Users\admin\Documents\Arduino\libraries\Adafruit_MAX31865_library/Adafruit_MAX31865.cpp:253
/**************************************************************************/
float Adafruit_MAX31865::calculateTemperature(uint16_t RTDraw, float RTDnominal,
                                              float refResistor) {
  float Z1, Z2, Z3, Z4, Rt, temp;

  Rt = RTDraw;
    40e0:	bc 01       	movw	r22, r24
    40e2:	90 e0       	ldi	r25, 0x00	; 0
    40e4:	80 e0       	ldi	r24, 0x00	; 0
    40e6:	0e 94 c7 25 	call	0x4b8e	; 0x4b8e <__floatunsisf>
c:\Users\admin\Documents\Arduino\libraries\Adafruit_MAX31865_library/Adafruit_MAX31865.cpp:254
  Rt /= 32768;
    40ea:	20 e0       	ldi	r18, 0x00	; 0
    40ec:	30 e0       	ldi	r19, 0x00	; 0
    40ee:	40 e0       	ldi	r20, 0x00	; 0
    40f0:	58 e3       	ldi	r21, 0x38	; 56
    40f2:	0e 94 cc 26 	call	0x4d98	; 0x4d98 <__mulsf3>
c:\Users\admin\Documents\Arduino\libraries\Adafruit_MAX31865_library/Adafruit_MAX31865.cpp:255
  Rt *= refResistor;
    40f6:	20 e0       	ldi	r18, 0x00	; 0
    40f8:	30 e0       	ldi	r19, 0x00	; 0
    40fa:	47 ed       	ldi	r20, 0xD7	; 215
    40fc:	53 e4       	ldi	r21, 0x43	; 67
    40fe:	0e 94 cc 26 	call	0x4d98	; 0x4d98 <__mulsf3>
    4102:	4b 01       	movw	r8, r22
    4104:	5c 01       	movw	r10, r24
c:\Users\admin\Documents\Arduino\libraries\Adafruit_MAX31865_library/Adafruit_MAX31865.cpp:264
  Z1 = -RTD_A;
  Z2 = RTD_A * RTD_A - (4 * RTD_B);
  Z3 = (4 * RTD_B) / RTDnominal;
  Z4 = 2 * RTD_B;

  temp = Z2 + (Z3 * Rt);
    4106:	2f e6       	ldi	r18, 0x6F	; 111
    4108:	3d e6       	ldi	r19, 0x6D	; 109
    410a:	46 ec       	ldi	r20, 0xC6	; 198
    410c:	52 eb       	ldi	r21, 0xB2	; 178
    410e:	0e 94 cc 26 	call	0x4d98	; 0x4d98 <__mulsf3>
    4112:	26 e1       	ldi	r18, 0x16	; 22
    4114:	33 e8       	ldi	r19, 0x83	; 131
    4116:	43 e9       	ldi	r20, 0x93	; 147
    4118:	57 e3       	ldi	r21, 0x37	; 55
    411a:	0e 94 6c 24 	call	0x48d8	; 0x48d8 <__addsf3>
c:\Users\admin\Documents\Arduino\libraries\Adafruit_MAX31865_library/Adafruit_MAX31865.cpp:265
  temp = (sqrt(temp) + Z1) / Z4;
    411e:	0e 94 3f 27 	call	0x4e7e	; 0x4e7e <sqrt>
    4122:	22 e3       	ldi	r18, 0x32	; 50
    4124:	31 e1       	ldi	r19, 0x11	; 17
    4126:	40 e8       	ldi	r20, 0x80	; 128
    4128:	5b e3       	ldi	r21, 0x3B	; 59
    412a:	0e 94 6b 24 	call	0x48d6	; 0x48d6 <__subsf3>
    412e:	2f e7       	ldi	r18, 0x7F	; 127
    4130:	35 e0       	ldi	r19, 0x05	; 5
    4132:	4b e9       	ldi	r20, 0x9B	; 155
    4134:	55 eb       	ldi	r21, 0xB5	; 181
    4136:	0e 94 dd 24 	call	0x49ba	; 0x49ba <__divsf3>
    413a:	6b 01       	movw	r12, r22
    413c:	7c 01       	movw	r14, r24
c:\Users\admin\Documents\Arduino\libraries\Adafruit_MAX31865_library/Adafruit_MAX31865.cpp:267

  if (temp >= 0)
    413e:	20 e0       	ldi	r18, 0x00	; 0
    4140:	30 e0       	ldi	r19, 0x00	; 0
    4142:	a9 01       	movw	r20, r18
    4144:	0e 94 c7 26 	call	0x4d8e	; 0x4d8e <__gesf2>
    4148:	87 ff       	sbrs	r24, 7
    414a:	70 c0       	rjmp	.+224    	; 0x422c <main+0x69a>
c:\Users\admin\Documents\Arduino\libraries\Adafruit_MAX31865_library/Adafruit_MAX31865.cpp:271
    return temp;

  // ugh.
  Rt /= RTDnominal;
    414c:	20 e0       	ldi	r18, 0x00	; 0
    414e:	30 e0       	ldi	r19, 0x00	; 0
    4150:	48 ec       	ldi	r20, 0xC8	; 200
    4152:	52 e4       	ldi	r21, 0x42	; 66
    4154:	c5 01       	movw	r24, r10
    4156:	b4 01       	movw	r22, r8
    4158:	0e 94 dd 24 	call	0x49ba	; 0x49ba <__divsf3>
c:\Users\admin\Documents\Arduino\libraries\Adafruit_MAX31865_library/Adafruit_MAX31865.cpp:272
  Rt *= 100; // normalize to 100 ohm
    415c:	20 e0       	ldi	r18, 0x00	; 0
    415e:	30 e0       	ldi	r19, 0x00	; 0
    4160:	48 ec       	ldi	r20, 0xC8	; 200
    4162:	52 e4       	ldi	r21, 0x42	; 66
    4164:	0e 94 cc 26 	call	0x4d98	; 0x4d98 <__mulsf3>
    4168:	6b 01       	movw	r12, r22
    416a:	7c 01       	movw	r14, r24
c:\Users\admin\Documents\Arduino\libraries\Adafruit_MAX31865_library/Adafruit_MAX31865.cpp:277

  float rpoly = Rt;

  temp = -242.02;
  temp += 2.2228 * rpoly;
    416c:	2b e5       	ldi	r18, 0x5B	; 91
    416e:	32 e4       	ldi	r19, 0x42	; 66
    4170:	4e e0       	ldi	r20, 0x0E	; 14
    4172:	50 e4       	ldi	r21, 0x40	; 64
    4174:	0e 94 cc 26 	call	0x4d98	; 0x4d98 <__mulsf3>
    4178:	2f e1       	ldi	r18, 0x1F	; 31
    417a:	35 e0       	ldi	r19, 0x05	; 5
    417c:	42 e7       	ldi	r20, 0x72	; 114
    417e:	53 e4       	ldi	r21, 0x43	; 67
    4180:	0e 94 6b 24 	call	0x48d6	; 0x48d6 <__subsf3>
    4184:	2b 01       	movw	r4, r22
    4186:	3c 01       	movw	r6, r24
c:\Users\admin\Documents\Arduino\libraries\Adafruit_MAX31865_library/Adafruit_MAX31865.cpp:278
  rpoly *= Rt; // square
    4188:	a7 01       	movw	r20, r14
    418a:	96 01       	movw	r18, r12
    418c:	c7 01       	movw	r24, r14
    418e:	b6 01       	movw	r22, r12
    4190:	0e 94 cc 26 	call	0x4d98	; 0x4d98 <__mulsf3>
    4194:	4b 01       	movw	r8, r22
    4196:	5c 01       	movw	r10, r24
c:\Users\admin\Documents\Arduino\libraries\Adafruit_MAX31865_library/Adafruit_MAX31865.cpp:279
  temp += 2.5859e-3 * rpoly;
    4198:	24 e3       	ldi	r18, 0x34	; 52
    419a:	38 e7       	ldi	r19, 0x78	; 120
    419c:	49 e2       	ldi	r20, 0x29	; 41
    419e:	5b e3       	ldi	r21, 0x3B	; 59
    41a0:	0e 94 cc 26 	call	0x4d98	; 0x4d98 <__mulsf3>
    41a4:	a3 01       	movw	r20, r6
    41a6:	92 01       	movw	r18, r4
    41a8:	0e 94 6c 24 	call	0x48d8	; 0x48d8 <__addsf3>
    41ac:	2b 01       	movw	r4, r22
    41ae:	3c 01       	movw	r6, r24
c:\Users\admin\Documents\Arduino\libraries\Adafruit_MAX31865_library/Adafruit_MAX31865.cpp:280
  rpoly *= Rt; // ^3
    41b0:	a5 01       	movw	r20, r10
    41b2:	94 01       	movw	r18, r8
    41b4:	c7 01       	movw	r24, r14
    41b6:	b6 01       	movw	r22, r12
    41b8:	0e 94 cc 26 	call	0x4d98	; 0x4d98 <__mulsf3>
    41bc:	4b 01       	movw	r8, r22
    41be:	5c 01       	movw	r10, r24
c:\Users\admin\Documents\Arduino\libraries\Adafruit_MAX31865_library/Adafruit_MAX31865.cpp:281
  temp -= 4.8260e-6 * rpoly;
    41c0:	26 e0       	ldi	r18, 0x06	; 6
    41c2:	3f ee       	ldi	r19, 0xEF	; 239
    41c4:	41 ea       	ldi	r20, 0xA1	; 161
    41c6:	56 e3       	ldi	r21, 0x36	; 54
    41c8:	0e 94 cc 26 	call	0x4d98	; 0x4d98 <__mulsf3>
    41cc:	9b 01       	movw	r18, r22
    41ce:	ac 01       	movw	r20, r24
    41d0:	c3 01       	movw	r24, r6
    41d2:	b2 01       	movw	r22, r4
    41d4:	0e 94 6b 24 	call	0x48d6	; 0x48d6 <__subsf3>
    41d8:	2b 01       	movw	r4, r22
    41da:	3c 01       	movw	r6, r24
c:\Users\admin\Documents\Arduino\libraries\Adafruit_MAX31865_library/Adafruit_MAX31865.cpp:282
  rpoly *= Rt; // ^4
    41dc:	a5 01       	movw	r20, r10
    41de:	94 01       	movw	r18, r8
    41e0:	c7 01       	movw	r24, r14
    41e2:	b6 01       	movw	r22, r12
    41e4:	0e 94 cc 26 	call	0x4d98	; 0x4d98 <__mulsf3>
    41e8:	4b 01       	movw	r8, r22
    41ea:	5c 01       	movw	r10, r24
c:\Users\admin\Documents\Arduino\libraries\Adafruit_MAX31865_library/Adafruit_MAX31865.cpp:283
  temp -= 2.8183e-8 * rpoly;
    41ec:	23 e1       	ldi	r18, 0x13	; 19
    41ee:	37 e1       	ldi	r19, 0x17	; 23
    41f0:	42 ef       	ldi	r20, 0xF2	; 242
    41f2:	52 e3       	ldi	r21, 0x32	; 50
    41f4:	0e 94 cc 26 	call	0x4d98	; 0x4d98 <__mulsf3>
    41f8:	9b 01       	movw	r18, r22
    41fa:	ac 01       	movw	r20, r24
    41fc:	c3 01       	movw	r24, r6
    41fe:	b2 01       	movw	r22, r4
    4200:	0e 94 6b 24 	call	0x48d6	; 0x48d6 <__subsf3>
    4204:	2b 01       	movw	r4, r22
    4206:	3c 01       	movw	r6, r24
c:\Users\admin\Documents\Arduino\libraries\Adafruit_MAX31865_library/Adafruit_MAX31865.cpp:284
  rpoly *= Rt; // ^5
    4208:	a5 01       	movw	r20, r10
    420a:	94 01       	movw	r18, r8
    420c:	c7 01       	movw	r24, r14
    420e:	b6 01       	movw	r22, r12
    4210:	0e 94 cc 26 	call	0x4d98	; 0x4d98 <__mulsf3>
c:\Users\admin\Documents\Arduino\libraries\Adafruit_MAX31865_library/Adafruit_MAX31865.cpp:285
  temp += 1.5243e-10 * rpoly;
    4214:	2b e3       	ldi	r18, 0x3B	; 59
    4216:	39 e9       	ldi	r19, 0x99	; 153
    4218:	47 e2       	ldi	r20, 0x27	; 39
    421a:	5f e2       	ldi	r21, 0x2F	; 47
    421c:	0e 94 cc 26 	call	0x4d98	; 0x4d98 <__mulsf3>
    4220:	a3 01       	movw	r20, r6
    4222:	92 01       	movw	r18, r4
    4224:	0e 94 6c 24 	call	0x48d8	; 0x48d8 <__addsf3>
    4228:	6b 01       	movw	r12, r22
    422a:	7c 01       	movw	r14, r24
Read_Temperature():
C:\Users\admin\Documents\Github\marketforge\MarketForge_Control/MarketForge_Control.ino:254
  // float    ratio = getMAX31865;
  // ratio /= 32768;
  // float   Resistance = 0.0;
  // Resistance = RREF * ratio;
  avgTemp.Insert(tempSensor.temperature(RNOMINAL, RREF));
    422c:	b7 01       	movw	r22, r14
    422e:	a6 01       	movw	r20, r12
    4230:	87 e7       	ldi	r24, 0x77	; 119
    4232:	95 e0       	ldi	r25, 0x05	; 5
    4234:	0e 94 0f 12 	call	0x241e	; 0x241e <MovingAverage<float>::Insert(float)>
_ZN13MovingAverageIfE10GetAverageEv():
C:\Users\admin\Documents\Github\marketforge\MarketForge_Control/MovingAverage.h:82
    Average = defaultValue;
}

template<class T>
T MovingAverage<T>::GetAverage(){
    return Average;
    4238:	c0 90 79 05 	lds	r12, 0x0579	; 0x800579 <avgTemp+0x2>
    423c:	d0 90 7a 05 	lds	r13, 0x057A	; 0x80057a <avgTemp+0x3>
    4240:	e0 90 7b 05 	lds	r14, 0x057B	; 0x80057b <avgTemp+0x4>
    4244:	f0 90 7c 05 	lds	r15, 0x057C	; 0x80057c <avgTemp+0x5>
Read_Temperature():
C:\Users\admin\Documents\Github\marketforge\MarketForge_Control/MarketForge_Control.ino:258
  Temperature = avgTemp.GetAverage();

  // Temperature = (1.0528 * Temperature) + 0.7994;
  Temperature = (-0.0003099*pow(Temperature,2)) + (1.1137543*Temperature) - 1.2987112;
    4248:	a7 01       	movw	r20, r14
    424a:	96 01       	movw	r18, r12
    424c:	c7 01       	movw	r24, r14
    424e:	b6 01       	movw	r22, r12
    4250:	0e 94 cc 26 	call	0x4d98	; 0x4d98 <__mulsf3>
    4254:	23 e1       	ldi	r18, 0x13	; 19
    4256:	3a e7       	ldi	r19, 0x7A	; 122
    4258:	42 ea       	ldi	r20, 0xA2	; 162
    425a:	59 eb       	ldi	r21, 0xB9	; 185
    425c:	0e 94 cc 26 	call	0x4d98	; 0x4d98 <__mulsf3>
    4260:	4b 01       	movw	r8, r22
    4262:	5c 01       	movw	r10, r24
    4264:	20 e8       	ldi	r18, 0x80	; 128
    4266:	3f e8       	ldi	r19, 0x8F	; 143
    4268:	4e e8       	ldi	r20, 0x8E	; 142
    426a:	5f e3       	ldi	r21, 0x3F	; 63
    426c:	c7 01       	movw	r24, r14
    426e:	b6 01       	movw	r22, r12
    4270:	0e 94 cc 26 	call	0x4d98	; 0x4d98 <__mulsf3>
    4274:	9b 01       	movw	r18, r22
    4276:	ac 01       	movw	r20, r24
    4278:	c5 01       	movw	r24, r10
    427a:	b4 01       	movw	r22, r8
    427c:	0e 94 6c 24 	call	0x48d8	; 0x48d8 <__addsf3>
    4280:	2b e2       	ldi	r18, 0x2B	; 43
    4282:	3c e3       	ldi	r19, 0x3C	; 60
    4284:	46 ea       	ldi	r20, 0xA6	; 166
    4286:	5f e3       	ldi	r21, 0x3F	; 63
    4288:	0e 94 6b 24 	call	0x48d6	; 0x48d6 <__subsf3>
C:\Users\admin\Documents\Github\marketforge\MarketForge_Control/MarketForge_Control.ino:259
  Temperature *= Factor_Corr_Temp;
    428c:	20 91 92 03 	lds	r18, 0x0392	; 0x800392 <Factor_Corr_Temp>
    4290:	30 91 93 03 	lds	r19, 0x0393	; 0x800393 <Factor_Corr_Temp+0x1>
    4294:	40 91 94 03 	lds	r20, 0x0394	; 0x800394 <Factor_Corr_Temp+0x2>
    4298:	50 91 95 03 	lds	r21, 0x0395	; 0x800395 <Factor_Corr_Temp+0x3>
    429c:	0e 94 cc 26 	call	0x4d98	; 0x4d98 <__mulsf3>
    42a0:	60 93 23 05 	sts	0x0523, r22	; 0x800523 <Temperature>
    42a4:	70 93 24 05 	sts	0x0524, r23	; 0x800524 <Temperature+0x1>
    42a8:	80 93 25 05 	sts	0x0525, r24	; 0x800525 <Temperature+0x2>
    42ac:	90 93 26 05 	sts	0x0526, r25	; 0x800526 <Temperature+0x3>
loop():
C:\Users\admin\Documents\Github\marketforge\MarketForge_Control/MarketForge_Control.ino:502
  // dtostrf(avgTemp.GetAverage(), 5,2, fValue);
  // sprintf(txt, "%s, T:%s  ", txt, fValue);
  // vfd.Print(txt, 20);
  

  digitalWrite(LED_OC, !digitalRead(LED_OC));
    42b0:	8a e2       	ldi	r24, 0x2A	; 42
    42b2:	0e 94 04 06 	call	0xc08	; 0xc08 <digitalRead>
    42b6:	61 e0       	ldi	r22, 0x01	; 1
    42b8:	89 2b       	or	r24, r25
    42ba:	09 f0       	breq	.+2      	; 0x42be <main+0x72c>
    42bc:	60 e0       	ldi	r22, 0x00	; 0
    42be:	8a e2       	ldi	r24, 0x2A	; 42
    42c0:	0e 94 2d 06 	call	0xc5a	; 0xc5a <digitalWrite>
C:\Users\admin\Documents\Github\marketforge\MarketForge_Control/MarketForge_Control.ino:505
  //delay(100);
  
  timer1Sec.update();
    42c4:	80 e0       	ldi	r24, 0x00	; 0
    42c6:	95 e0       	ldi	r25, 0x05	; 5
    42c8:	0e 94 89 11 	call	0x2312	; 0x2312 <Ticker::update()>
C:\Users\admin\Documents\Github\marketforge\MarketForge_Control/MarketForge_Control.ino:506
  timer50mSec.update();
    42cc:	85 ee       	ldi	r24, 0xE5	; 229
    42ce:	94 e0       	ldi	r25, 0x04	; 4
    42d0:	0e 94 89 11 	call	0x2312	; 0x2312 <Ticker::update()>
C:\Users\admin\Documents\Github\marketforge\MarketForge_Control/MarketForge_Control.ino:509

  // digitalWrite(LED5, !digitalRead(LED5));
  if ((digitalRead(BTN_START) == 0) && (state == ready)) {
    42d4:	89 e1       	ldi	r24, 0x19	; 25
    42d6:	0e 94 04 06 	call	0xc08	; 0xc08 <digitalRead>
    42da:	89 2b       	or	r24, r25
    42dc:	29 f5       	brne	.+74     	; 0x4328 <main+0x796>
    42de:	80 91 9f 03 	lds	r24, 0x039F	; 0x80039f <state>
    42e2:	81 11       	cpse	r24, r1
    42e4:	21 c0       	rjmp	.+66     	; 0x4328 <main+0x796>
C:\Users\admin\Documents\Github\marketforge\MarketForge_Control/MarketForge_Control.ino:510
    state = heating;
    42e6:	31 e0       	ldi	r19, 0x01	; 1
    42e8:	30 93 9f 03 	sts	0x039F, r19	; 0x80039f <state>
C:\Users\admin\Documents\Github\marketforge\MarketForge_Control/MarketForge_Control.ino:511
    Seconds = 0;
    42ec:	10 92 9e 03 	sts	0x039E, r1	; 0x80039e <Seconds+0x1>
    42f0:	10 92 9d 03 	sts	0x039D, r1	; 0x80039d <Seconds>
C:\Users\admin\Documents\Github\marketforge\MarketForge_Control/MarketForge_Control.ino:513
    // MinutesSetpoint = 0;
    uint32_t tstart= millis();
    42f4:	0e 94 88 08 	call	0x1110	; 0x1110 <millis>
    42f8:	6b 01       	movw	r12, r22
    42fa:	7c 01       	movw	r14, r24
C:\Users\admin\Documents\Github\marketforge\MarketForge_Control/MarketForge_Control.ino:514
    while((millis()-tstart) < 1000) {
    42fc:	0e 94 88 08 	call	0x1110	; 0x1110 <millis>
    4300:	6c 19       	sub	r22, r12
    4302:	7d 09       	sbc	r23, r13
    4304:	8e 09       	sbc	r24, r14
    4306:	9f 09       	sbc	r25, r15
    4308:	68 3e       	cpi	r22, 0xE8	; 232
    430a:	73 40       	sbci	r23, 0x03	; 3
    430c:	81 05       	cpc	r24, r1
    430e:	91 05       	cpc	r25, r1
    4310:	a8 f3       	brcs	.-22     	; 0x42fc <main+0x76a>
C:\Users\admin\Documents\Github\marketforge\MarketForge_Control/MarketForge_Control.ino:518
      //
    }

    InCycle = true;
    4312:	b1 e0       	ldi	r27, 0x01	; 1
    4314:	b0 93 9c 03 	sts	0x039C, r27	; 0x80039c <InCycle>
C:\Users\admin\Documents\Github\marketforge\MarketForge_Control/MarketForge_Control.ino:520

    digitalWrite(HEATER_ENABLE, HEATER_ON);
    4318:	61 e0       	ldi	r22, 0x01	; 1
    431a:	8c e1       	ldi	r24, 0x1C	; 28
    431c:	0e 94 2d 06 	call	0xc5a	; 0xc5a <digitalWrite>
C:\Users\admin\Documents\Github\marketforge\MarketForge_Control/MarketForge_Control.ino:521
    timer50mSec.start();
    4320:	85 ee       	ldi	r24, 0xE5	; 229
    4322:	94 e0       	ldi	r25, 0x04	; 4
    4324:	0e 94 ed 11 	call	0x23da	; 0x23da <Ticker::start()>
C:\Users\admin\Documents\Github\marketforge\MarketForge_Control/MarketForge_Control.ino:525
  }

  //if ((digitalRead(BTN_STOP) == 0) && (state == heating || state == sterilizing || state == cooling)) {
  if ((digitalRead(BTN_STOP) == 0) && (state == heating || state == sterilizing || state == cooling)) {
    4328:	8b e1       	ldi	r24, 0x1B	; 27
    432a:	0e 94 04 06 	call	0xc08	; 0xc08 <digitalRead>
    432e:	89 2b       	or	r24, r25
    4330:	09 f0       	breq	.+2      	; 0x4334 <main+0x7a2>
    4332:	4a c0       	rjmp	.+148    	; 0x43c8 <main+0x836>
    4334:	80 91 9f 03 	lds	r24, 0x039F	; 0x80039f <state>
    4338:	81 50       	subi	r24, 0x01	; 1
    433a:	83 30       	cpi	r24, 0x03	; 3
    433c:	08 f0       	brcs	.+2      	; 0x4340 <main+0x7ae>
    433e:	44 c0       	rjmp	.+136    	; 0x43c8 <main+0x836>
C:\Users\admin\Documents\Github\marketforge\MarketForge_Control/MarketForge_Control.ino:526
    state = ready;
    4340:	10 92 9f 03 	sts	0x039F, r1	; 0x80039f <state>
C:\Users\admin\Documents\Github\marketforge\MarketForge_Control/MarketForge_Control.ino:527
    digitalWrite(VENT_SOLENOID,VALVE_OPEN);
    4344:	61 e0       	ldi	r22, 0x01	; 1
    4346:	88 e1       	ldi	r24, 0x18	; 24
    4348:	0e 94 2d 06 	call	0xc5a	; 0xc5a <digitalWrite>
stop():
c:\Users\admin\Documents\Arduino\libraries\Ticker/Ticker.cpp:59
	enabled = true;
	status = RUNNING;
	}

void Ticker::stop() {
	enabled = false;
    434c:	10 92 e5 04 	sts	0x04E5, r1	; 0x8004e5 <timer50mSec>
c:\Users\admin\Documents\Arduino\libraries\Ticker/Ticker.cpp:60
	counts = 0;
    4350:	10 92 f0 04 	sts	0x04F0, r1	; 0x8004f0 <timer50mSec+0xb>
    4354:	10 92 f1 04 	sts	0x04F1, r1	; 0x8004f1 <timer50mSec+0xc>
    4358:	10 92 f2 04 	sts	0x04F2, r1	; 0x8004f2 <timer50mSec+0xd>
    435c:	10 92 f3 04 	sts	0x04F3, r1	; 0x8004f3 <timer50mSec+0xe>
c:\Users\admin\Documents\Arduino\libraries\Ticker/Ticker.cpp:61
	status = STOPPED;
    4360:	10 92 f5 04 	sts	0x04F5, r1	; 0x8004f5 <timer50mSec+0x10>
    4364:	10 92 f4 04 	sts	0x04F4, r1	; 0x8004f4 <timer50mSec+0xf>
loop():
C:\Users\admin\Documents\Github\marketforge\MarketForge_Control/MarketForge_Control.ino:530
    
    timer50mSec.stop();
    digitalWrite(LED6,LED_OFF);
    4368:	60 e0       	ldi	r22, 0x00	; 0
    436a:	8b e2       	ldi	r24, 0x2B	; 43
    436c:	0e 94 2d 06 	call	0xc5a	; 0xc5a <digitalWrite>
C:\Users\admin\Documents\Github\marketforge\MarketForge_Control/MarketForge_Control.ino:531
    digitalWrite(HEATER1, HEATER_OFF);
    4370:	60 e0       	ldi	r22, 0x00	; 0
    4372:	8a e1       	ldi	r24, 0x1A	; 26
    4374:	0e 94 2d 06 	call	0xc5a	; 0xc5a <digitalWrite>
C:\Users\admin\Documents\Github\marketforge\MarketForge_Control/MarketForge_Control.ino:534
    // digitalWrite(HEATER2, HEATER_OFF);
    // digitalWrite(HEATER3, HEATER_OFF);
    digitalWrite(HEATER_ENABLE, HEATER_OFF);
    4378:	60 e0       	ldi	r22, 0x00	; 0
    437a:	8c e1       	ldi	r24, 0x1C	; 28
    437c:	0e 94 2d 06 	call	0xc5a	; 0xc5a <digitalWrite>
C:\Users\admin\Documents\Github\marketforge\MarketForge_Control/MarketForge_Control.ino:536
    
    digitalWrite(HEATER_LED, digitalRead(HEATER1));
    4380:	8a e1       	ldi	r24, 0x1A	; 26
    4382:	0e 94 04 06 	call	0xc08	; 0xc08 <digitalRead>
    4386:	68 2f       	mov	r22, r24
    4388:	81 e3       	ldi	r24, 0x31	; 49
    438a:	0e 94 2d 06 	call	0xc5a	; 0xc5a <digitalWrite>
C:\Users\admin\Documents\Github\marketforge\MarketForge_Control/MarketForge_Control.ino:538

    InCycle = false;
    438e:	10 92 9c 03 	sts	0x039C, r1	; 0x80039c <InCycle>
C:\Users\admin\Documents\Github\marketforge\MarketForge_Control/MarketForge_Control.ino:540

    vfd.Print("CICLO INTERRUMPIDO  ", 0);
    4392:	60 e0       	ldi	r22, 0x00	; 0
    4394:	88 ea       	ldi	r24, 0xA8	; 168
    4396:	92 e0       	ldi	r25, 0x02	; 2
    4398:	0e 94 99 14 	call	0x2932	; 0x2932 <VFD_NEC_FC20X2::Print(char*, unsigned char) [clone .constprop.51]>
C:\Users\admin\Documents\Github\marketforge\MarketForge_Control/MarketForge_Control.ino:541
    vfd.Print("POR USUARIO         ", 20);
    439c:	64 e1       	ldi	r22, 0x14	; 20
    439e:	8d eb       	ldi	r24, 0xBD	; 189
    43a0:	92 e0       	ldi	r25, 0x02	; 2
    43a2:	0e 94 99 14 	call	0x2932	; 0x2932 <VFD_NEC_FC20X2::Print(char*, unsigned char) [clone .constprop.51]>
C:\Users\admin\Documents\Github\marketforge\MarketForge_Control/MarketForge_Control.ino:542
    uint32_t tstart= millis();
    43a6:	0e 94 88 08 	call	0x1110	; 0x1110 <millis>
    43aa:	6b 01       	movw	r12, r22
    43ac:	7c 01       	movw	r14, r24
C:\Users\admin\Documents\Github\marketforge\MarketForge_Control/MarketForge_Control.ino:543
    while((millis()-tstart) < 5000) {
    43ae:	0e 94 88 08 	call	0x1110	; 0x1110 <millis>
    43b2:	6c 19       	sub	r22, r12
    43b4:	7d 09       	sbc	r23, r13
    43b6:	8e 09       	sbc	r24, r14
    43b8:	9f 09       	sbc	r25, r15
    43ba:	68 38       	cpi	r22, 0x88	; 136
    43bc:	73 41       	sbci	r23, 0x13	; 19
    43be:	81 05       	cpc	r24, r1
    43c0:	91 05       	cpc	r25, r1
    43c2:	a8 f3       	brcs	.-22     	; 0x43ae <main+0x81c>
C:\Users\admin\Documents\Github\marketforge\MarketForge_Control/MarketForge_Control.ino:547
      //
    }

    vfd.Init();
    43c4:	0e 94 8b 01 	call	0x316	; 0x316 <VFD_NEC_FC20X2::Init() [clone .constprop.52]>
C:\Users\admin\Documents\Github\marketforge\MarketForge_Control/MarketForge_Control.ino:551
  }

  //Different states changing
  if (state == heating && (Temperature >= (Setpoint-1.0f))) {
    43c8:	80 91 9f 03 	lds	r24, 0x039F	; 0x80039f <state>
    43cc:	81 30       	cpi	r24, 0x01	; 1
    43ce:	09 f5       	brne	.+66     	; 0x4412 <main+0x880>
    43d0:	20 e0       	ldi	r18, 0x00	; 0
    43d2:	30 e0       	ldi	r19, 0x00	; 0
    43d4:	40 e8       	ldi	r20, 0x80	; 128
    43d6:	5f e3       	ldi	r21, 0x3F	; 63
    43d8:	60 91 1f 05 	lds	r22, 0x051F	; 0x80051f <Setpoint>
    43dc:	70 91 20 05 	lds	r23, 0x0520	; 0x800520 <Setpoint+0x1>
    43e0:	80 91 21 05 	lds	r24, 0x0521	; 0x800521 <Setpoint+0x2>
    43e4:	90 91 22 05 	lds	r25, 0x0522	; 0x800522 <Setpoint+0x3>
    43e8:	0e 94 6b 24 	call	0x48d6	; 0x48d6 <__subsf3>
    43ec:	20 91 23 05 	lds	r18, 0x0523	; 0x800523 <Temperature>
    43f0:	30 91 24 05 	lds	r19, 0x0524	; 0x800524 <Temperature+0x1>
    43f4:	40 91 25 05 	lds	r20, 0x0525	; 0x800525 <Temperature+0x2>
    43f8:	50 91 26 05 	lds	r21, 0x0526	; 0x800526 <Temperature+0x3>
    43fc:	0e 94 d8 24 	call	0x49b0	; 0x49b0 <__cmpsf2>
    4400:	18 16       	cp	r1, r24
    4402:	3c f0       	brlt	.+14     	; 0x4412 <main+0x880>
C:\Users\admin\Documents\Github\marketforge\MarketForge_Control/MarketForge_Control.ino:552
    Seconds = 0;
    4404:	10 92 9e 03 	sts	0x039E, r1	; 0x80039e <Seconds+0x1>
    4408:	10 92 9d 03 	sts	0x039D, r1	; 0x80039d <Seconds>
C:\Users\admin\Documents\Github\marketforge\MarketForge_Control/MarketForge_Control.ino:553
    state = sterilizing;
    440c:	82 e0       	ldi	r24, 0x02	; 2
    440e:	80 93 9f 03 	sts	0x039F, r24	; 0x80039f <state>
C:\Users\admin\Documents\Github\marketforge\MarketForge_Control/MarketForge_Control.ino:556
  }

  if (state == sterilizing && (Seconds >= (MinutesSetpoint * 60))) {
    4412:	80 91 9f 03 	lds	r24, 0x039F	; 0x80039f <state>
    4416:	82 30       	cpi	r24, 0x02	; 2
    4418:	c1 f4       	brne	.+48     	; 0x444a <main+0x8b8>
    441a:	80 91 9a 03 	lds	r24, 0x039A	; 0x80039a <MinutesSetpoint>
    441e:	90 91 9b 03 	lds	r25, 0x039B	; 0x80039b <MinutesSetpoint+0x1>
    4422:	4c e3       	ldi	r20, 0x3C	; 60
    4424:	48 9f       	mul	r20, r24
    4426:	90 01       	movw	r18, r0
    4428:	49 9f       	mul	r20, r25
    442a:	30 0d       	add	r19, r0
    442c:	11 24       	eor	r1, r1
    442e:	80 91 9d 03 	lds	r24, 0x039D	; 0x80039d <Seconds>
    4432:	90 91 9e 03 	lds	r25, 0x039E	; 0x80039e <Seconds+0x1>
    4436:	82 17       	cp	r24, r18
    4438:	93 07       	cpc	r25, r19
    443a:	38 f0       	brcs	.+14     	; 0x444a <main+0x8b8>
C:\Users\admin\Documents\Github\marketforge\MarketForge_Control/MarketForge_Control.ino:557
    state = cooling;
    443c:	83 e0       	ldi	r24, 0x03	; 3
    443e:	80 93 9f 03 	sts	0x039F, r24	; 0x80039f <state>
C:\Users\admin\Documents\Github\marketforge\MarketForge_Control/MarketForge_Control.ino:559
    // timer50mSec.stop();
    Seconds = 0;
    4442:	10 92 9e 03 	sts	0x039E, r1	; 0x80039e <Seconds+0x1>
    4446:	10 92 9d 03 	sts	0x039D, r1	; 0x80039d <Seconds>
C:\Users\admin\Documents\Github\marketforge\MarketForge_Control/MarketForge_Control.ino:562
  }

  if (state == cooling && (Temperature<70.0f)) {
    444a:	80 91 9f 03 	lds	r24, 0x039F	; 0x80039f <state>
    444e:	83 30       	cpi	r24, 0x03	; 3
    4450:	b1 f4       	brne	.+44     	; 0x447e <main+0x8ec>
    4452:	20 e0       	ldi	r18, 0x00	; 0
    4454:	30 e0       	ldi	r19, 0x00	; 0
    4456:	4c e8       	ldi	r20, 0x8C	; 140
    4458:	52 e4       	ldi	r21, 0x42	; 66
    445a:	60 91 23 05 	lds	r22, 0x0523	; 0x800523 <Temperature>
    445e:	70 91 24 05 	lds	r23, 0x0524	; 0x800524 <Temperature+0x1>
    4462:	80 91 25 05 	lds	r24, 0x0525	; 0x800525 <Temperature+0x2>
    4466:	90 91 26 05 	lds	r25, 0x0526	; 0x800526 <Temperature+0x3>
    446a:	0e 94 d8 24 	call	0x49b0	; 0x49b0 <__cmpsf2>
    446e:	87 ff       	sbrs	r24, 7
    4470:	06 c0       	rjmp	.+12     	; 0x447e <main+0x8ec>
C:\Users\admin\Documents\Github\marketforge\MarketForge_Control/MarketForge_Control.ino:563
    state = ready;
    4472:	10 92 9f 03 	sts	0x039F, r1	; 0x80039f <state>
C:\Users\admin\Documents\Github\marketforge\MarketForge_Control/MarketForge_Control.ino:564
    Seconds = 0;
    4476:	10 92 9e 03 	sts	0x039E, r1	; 0x80039e <Seconds+0x1>
    447a:	10 92 9d 03 	sts	0x039D, r1	; 0x80039d <Seconds>
CursorOff():
c:\Users\admin\Documents\Arduino\libraries\VFD_NEC_FC20X2/vfd_nec_fc20x2.h:64
                _serPort->write(intensity);
            }
        }

        void CursorOff() {
            _serPort->write(CURSOR_OFF);
    447e:	80 91 a9 03 	lds	r24, 0x03A9	; 0x8003a9 <vfd>
    4482:	90 91 aa 03 	lds	r25, 0x03AA	; 0x8003aa <vfd+0x1>
    4486:	dc 01       	movw	r26, r24
    4488:	ed 91       	ld	r30, X+
    448a:	fc 91       	ld	r31, X
    448c:	01 90       	ld	r0, Z+
    448e:	f0 81       	ld	r31, Z
    4490:	e0 2d       	mov	r30, r0
    4492:	64 e1       	ldi	r22, 0x14	; 20
    4494:	19 95       	eicall
loop():
C:\Users\admin\Documents\Github\marketforge\MarketForge_Control/MarketForge_Control.ino:569
  }

  vfd.CursorOff();
  //Selecte function to use depending on state
  switch (state) {
    4496:	80 91 9f 03 	lds	r24, 0x039F	; 0x80039f <state>
    449a:	82 30       	cpi	r24, 0x02	; 2
    449c:	09 f4       	brne	.+2      	; 0x44a0 <main+0x90e>
    449e:	ba c0       	rjmp	.+372    	; 0x4614 <main+0xa82>
    44a0:	83 30       	cpi	r24, 0x03	; 3
    44a2:	09 f4       	brne	.+2      	; 0x44a6 <main+0x914>
    44a4:	70 c1       	rjmp	.+736    	; 0x4786 <main+0xbf4>
    44a6:	81 30       	cpi	r24, 0x01	; 1
    44a8:	b9 f1       	breq	.+110    	; 0x4518 <main+0x986>
C:\Users\admin\Documents\Github\marketforge\MarketForge_Control/MarketForge_Control.ino:571
    case ready:
      Standby();
    44aa:	0e 94 15 19 	call	0x322a	; 0x322a <Standby()>
C:\Users\admin\Documents\Github\marketforge\MarketForge_Control/MarketForge_Control.ino:588
      Standby();
      break;
  }


  digitalWrite(HEATER_LED, digitalRead(HEATER1));
    44ae:	8a e1       	ldi	r24, 0x1A	; 26
    44b0:	0e 94 04 06 	call	0xc08	; 0xc08 <digitalRead>
    44b4:	68 2f       	mov	r22, r24
    44b6:	81 e3       	ldi	r24, 0x31	; 49
    44b8:	0e 94 2d 06 	call	0xc5a	; 0xc5a <digitalWrite>
C:\Users\admin\Documents\Github\marketforge\MarketForge_Control/MarketForge_Control.ino:589
  digitalWrite(VALVE_LED, digitalRead(VENT_SOLENOID));
    44bc:	88 e1       	ldi	r24, 0x18	; 24
    44be:	0e 94 04 06 	call	0xc08	; 0xc08 <digitalRead>
    44c2:	68 2f       	mov	r22, r24
    44c4:	8a e2       	ldi	r24, 0x2A	; 42
    44c6:	0e 94 2d 06 	call	0xc5a	; 0xc5a <digitalWrite>
main():
C:\Users\admin\AppData\Local\Arduino15\packages\MegaCore\hardware\avr\3.0.0\cores\MCUdude_corefiles/main.cpp:47
  
  setup();
    
  for (;;) {
    loop();
    if (serialEventRun) serialEventRun();
    44ca:	0e 94 a1 09 	call	0x1342	; 0x1342 <serialEventRun()>
    44ce:	a7 cd       	rjmp	.-1202   	; 0x401e <main+0x48c>
begin():
c:\Users\admin\Documents\Arduino\libraries\Adafruit_BusIO/Adafruit_SPIDevice.cpp:103
  if (_spi) { // hardware SPI
#ifdef BUSIO_HAS_HW_SPI
    _spi->begin();
#endif
  } else {
    pinMode(_sck, OUTPUT);
    44d0:	61 e0       	ldi	r22, 0x01	; 1
    44d2:	80 91 8c 05 	lds	r24, 0x058C	; 0x80058c <tempSensor+0xc>
    44d6:	0e 94 79 06 	call	0xcf2	; 0xcf2 <pinMode>
c:\Users\admin\Documents\Arduino\libraries\Adafruit_BusIO/Adafruit_SPIDevice.cpp:105

    if ((_dataMode == SPI_MODE0) || (_dataMode == SPI_MODE1)) {
    44da:	80 91 8a 05 	lds	r24, 0x058A	; 0x80058a <tempSensor+0xa>
    44de:	8b 7f       	andi	r24, 0xFB	; 251
c:\Users\admin\Documents\Arduino\libraries\Adafruit_BusIO/Adafruit_SPIDevice.cpp:107
      // idle low on mode 0 and 1
      digitalWrite(_sck, LOW);
    44e0:	60 e0       	ldi	r22, 0x00	; 0
c:\Users\admin\Documents\Arduino\libraries\Adafruit_BusIO/Adafruit_SPIDevice.cpp:105
    _spi->begin();
#endif
  } else {
    pinMode(_sck, OUTPUT);

    if ((_dataMode == SPI_MODE0) || (_dataMode == SPI_MODE1)) {
    44e2:	09 f0       	breq	.+2      	; 0x44e6 <main+0x954>
c:\Users\admin\Documents\Arduino\libraries\Adafruit_BusIO/Adafruit_SPIDevice.cpp:110
      // idle low on mode 0 and 1
      digitalWrite(_sck, LOW);
    } else {
      // idle high on mode 2 or 3
      digitalWrite(_sck, HIGH);
    44e4:	61 e0       	ldi	r22, 0x01	; 1
    44e6:	80 91 8c 05 	lds	r24, 0x058C	; 0x80058c <tempSensor+0xc>
    44ea:	0e 94 2d 06 	call	0xc5a	; 0xc5a <digitalWrite>
c:\Users\admin\Documents\Arduino\libraries\Adafruit_BusIO/Adafruit_SPIDevice.cpp:112
    }
    if (_mosi != -1) {
    44ee:	80 91 8d 05 	lds	r24, 0x058D	; 0x80058d <tempSensor+0xd>
    44f2:	8f 3f       	cpi	r24, 0xFF	; 255
    44f4:	41 f0       	breq	.+16     	; 0x4506 <main+0x974>
c:\Users\admin\Documents\Arduino\libraries\Adafruit_BusIO/Adafruit_SPIDevice.cpp:113
      pinMode(_mosi, OUTPUT);
    44f6:	61 e0       	ldi	r22, 0x01	; 1
    44f8:	0e 94 79 06 	call	0xcf2	; 0xcf2 <pinMode>
c:\Users\admin\Documents\Arduino\libraries\Adafruit_BusIO/Adafruit_SPIDevice.cpp:114
      digitalWrite(_mosi, HIGH);
    44fc:	61 e0       	ldi	r22, 0x01	; 1
    44fe:	80 91 8d 05 	lds	r24, 0x058D	; 0x80058d <tempSensor+0xd>
    4502:	0e 94 2d 06 	call	0xc5a	; 0xc5a <digitalWrite>
c:\Users\admin\Documents\Arduino\libraries\Adafruit_BusIO/Adafruit_SPIDevice.cpp:116
    }
    if (_miso != -1) {
    4506:	80 91 8e 05 	lds	r24, 0x058E	; 0x80058e <tempSensor+0xe>
    450a:	8f 3f       	cpi	r24, 0xFF	; 255
    450c:	09 f4       	brne	.+2      	; 0x4510 <main+0x97e>
    450e:	d9 cb       	rjmp	.-2126   	; 0x3cc2 <main+0x130>
c:\Users\admin\Documents\Arduino\libraries\Adafruit_BusIO/Adafruit_SPIDevice.cpp:117
      pinMode(_miso, INPUT);
    4510:	60 e0       	ldi	r22, 0x00	; 0
    4512:	0e 94 79 06 	call	0xcf2	; 0xcf2 <pinMode>
    4516:	d5 cb       	rjmp	.-2134   	; 0x3cc2 <main+0x130>
Heating():
C:\Users\admin\Documents\Github\marketforge\MarketForge_Control/MarketForge_Control.ino:289
}

void Heating(void) {
  char txt[20];
  
  sprintf(txt,"Calentando  ");
    4518:	22 ed       	ldi	r18, 0xD2	; 210
    451a:	32 e0       	ldi	r19, 0x02	; 2
    451c:	3f 93       	push	r19
    451e:	2f 93       	push	r18
    4520:	1f 93       	push	r17
    4522:	0f 93       	push	r16
    4524:	0e 94 f3 14 	call	0x29e6	; 0x29e6 <sprintf_>
C:\Users\admin\Documents\Github\marketforge\MarketForge_Control/MarketForge_Control.ino:290
  vfd.Print(txt,0);
    4528:	60 e0       	ldi	r22, 0x00	; 0
    452a:	c8 01       	movw	r24, r16
    452c:	0e 94 99 14 	call	0x2932	; 0x2932 <VFD_NEC_FC20X2::Print(char*, unsigned char) [clone .constprop.51]>
C:\Users\admin\Documents\Github\marketforge\MarketForge_Control/MarketForge_Control.ino:292

  sprintf(txt,"%02d:%02d:%02d",Seconds/3600, Seconds/60, Seconds % 60);
    4530:	20 91 9d 03 	lds	r18, 0x039D	; 0x80039d <Seconds>
    4534:	30 91 9e 03 	lds	r19, 0x039E	; 0x80039e <Seconds+0x1>
    4538:	c9 01       	movw	r24, r18
    453a:	6c e3       	ldi	r22, 0x3C	; 60
    453c:	70 e0       	ldi	r23, 0x00	; 0
    453e:	0e 94 94 27 	call	0x4f28	; 0x4f28 <__udivmodhi4>
    4542:	9f 93       	push	r25
    4544:	8f 93       	push	r24
    4546:	7f 93       	push	r23
    4548:	6f 93       	push	r22
    454a:	c9 01       	movw	r24, r18
    454c:	60 e1       	ldi	r22, 0x10	; 16
    454e:	7e e0       	ldi	r23, 0x0E	; 14
    4550:	0e 94 94 27 	call	0x4f28	; 0x4f28 <__udivmodhi4>
    4554:	7f 93       	push	r23
    4556:	6f 93       	push	r22
    4558:	af ed       	ldi	r26, 0xDF	; 223
    455a:	b2 e0       	ldi	r27, 0x02	; 2
    455c:	bf 93       	push	r27
    455e:	af 93       	push	r26
    4560:	1f 93       	push	r17
    4562:	0f 93       	push	r16
    4564:	0e 94 f3 14 	call	0x29e6	; 0x29e6 <sprintf_>
C:\Users\admin\Documents\Github\marketforge\MarketForge_Control/MarketForge_Control.ino:293
  vfd.Print(txt,12);
    4568:	6c e0       	ldi	r22, 0x0C	; 12
    456a:	c8 01       	movw	r24, r16
    456c:	0e 94 99 14 	call	0x2932	; 0x2932 <VFD_NEC_FC20X2::Print(char*, unsigned char) [clone .constprop.51]>
C:\Users\admin\Documents\Github\marketforge\MarketForge_Control/MarketForge_Control.ino:295

  sprintf(txt,"%1.1f C   ", Temperature);
    4570:	80 91 26 05 	lds	r24, 0x0526	; 0x800526 <Temperature+0x3>
    4574:	8f 93       	push	r24
    4576:	80 91 25 05 	lds	r24, 0x0525	; 0x800525 <Temperature+0x2>
    457a:	8f 93       	push	r24
    457c:	80 91 24 05 	lds	r24, 0x0524	; 0x800524 <Temperature+0x1>
    4580:	8f 93       	push	r24
    4582:	80 91 23 05 	lds	r24, 0x0523	; 0x800523 <Temperature>
    4586:	8f 93       	push	r24
    4588:	8e ee       	ldi	r24, 0xEE	; 238
    458a:	92 e0       	ldi	r25, 0x02	; 2
    458c:	9f 93       	push	r25
    458e:	8f 93       	push	r24
    4590:	1f 93       	push	r17
    4592:	0f 93       	push	r16
    4594:	0e 94 f3 14 	call	0x29e6	; 0x29e6 <sprintf_>
C:\Users\admin\Documents\Github\marketforge\MarketForge_Control/MarketForge_Control.ino:296
  vfd.Print(txt,20);
    4598:	64 e1       	ldi	r22, 0x14	; 20
    459a:	c8 01       	movw	r24, r16
    459c:	0e 94 99 14 	call	0x2932	; 0x2932 <VFD_NEC_FC20X2::Print(char*, unsigned char) [clone .constprop.51]>
C:\Users\admin\Documents\Github\marketforge\MarketForge_Control/MarketForge_Control.ino:298

  sprintf(txt," %1.1f Psi ", Pressure);
    45a0:	80 91 99 03 	lds	r24, 0x0399	; 0x800399 <Pressure+0x3>
    45a4:	8f 93       	push	r24
    45a6:	80 91 98 03 	lds	r24, 0x0398	; 0x800398 <Pressure+0x2>
    45aa:	8f 93       	push	r24
    45ac:	80 91 97 03 	lds	r24, 0x0397	; 0x800397 <Pressure+0x1>
    45b0:	8f 93       	push	r24
    45b2:	80 91 96 03 	lds	r24, 0x0396	; 0x800396 <Pressure>
    45b6:	8f 93       	push	r24
    45b8:	3f 92       	push	r3
    45ba:	2f 92       	push	r2
    45bc:	1f 93       	push	r17
    45be:	0f 93       	push	r16
    45c0:	0e 94 f3 14 	call	0x29e6	; 0x29e6 <sprintf_>
C:\Users\admin\Documents\Github\marketforge\MarketForge_Control/MarketForge_Control.ino:299
  vfd.Print(txt,40-strlen(txt));
    45c4:	f8 01       	movw	r30, r16
    45c6:	01 90       	ld	r0, Z+
    45c8:	00 20       	and	r0, r0
    45ca:	e9 f7       	brne	.-6      	; 0x45c6 <main+0xa34>
    45cc:	60 2f       	mov	r22, r16
    45ce:	6e 1b       	sub	r22, r30
    45d0:	67 5d       	subi	r22, 0xD7	; 215
    45d2:	c8 01       	movw	r24, r16
    45d4:	0e 94 99 14 	call	0x2932	; 0x2932 <VFD_NEC_FC20X2::Print(char*, unsigned char) [clone .constprop.51]>
C:\Users\admin\Documents\Github\marketforge\MarketForge_Control/MarketForge_Control.ino:301

  digitalWrite(HEATER_ENABLE, HEATER_ON);
    45d8:	61 e0       	ldi	r22, 0x01	; 1
    45da:	8c e1       	ldi	r24, 0x1C	; 28
    45dc:	0e 94 2d 06 	call	0xc5a	; 0xc5a <digitalWrite>
C:\Users\admin\Documents\Github\marketforge\MarketForge_Control/MarketForge_Control.ino:303

  if (Temperature >=97.0) {
    45e0:	0f b6       	in	r0, 0x3f	; 63
    45e2:	f8 94       	cli
    45e4:	de bf       	out	0x3e, r29	; 62
    45e6:	0f be       	out	0x3f, r0	; 63
    45e8:	cd bf       	out	0x3d, r28	; 61
    45ea:	20 e0       	ldi	r18, 0x00	; 0
    45ec:	30 e0       	ldi	r19, 0x00	; 0
    45ee:	42 ec       	ldi	r20, 0xC2	; 194
    45f0:	52 e4       	ldi	r21, 0x42	; 66
    45f2:	60 91 23 05 	lds	r22, 0x0523	; 0x800523 <Temperature>
    45f6:	70 91 24 05 	lds	r23, 0x0524	; 0x800524 <Temperature+0x1>
    45fa:	80 91 25 05 	lds	r24, 0x0525	; 0x800525 <Temperature+0x2>
    45fe:	90 91 26 05 	lds	r25, 0x0526	; 0x800526 <Temperature+0x3>
    4602:	0e 94 c7 26 	call	0x4d8e	; 0x4d8e <__gesf2>
C:\Users\admin\Documents\Github\marketforge\MarketForge_Control/MarketForge_Control.ino:304
    digitalWrite(VENT_SOLENOID,VALVE_CLOSE);
    4606:	60 e0       	ldi	r22, 0x00	; 0
C:\Users\admin\Documents\Github\marketforge\MarketForge_Control/MarketForge_Control.ino:303
  sprintf(txt," %1.1f Psi ", Pressure);
  vfd.Print(txt,40-strlen(txt));

  digitalWrite(HEATER_ENABLE, HEATER_ON);

  if (Temperature >=97.0) {
    4608:	87 fd       	sbrc	r24, 7
    460a:	51 cf       	rjmp	.-350    	; 0x44ae <main+0x91c>
Cooling():
C:\Users\admin\Documents\Github\marketforge\MarketForge_Control/MarketForge_Control.ino:358
  }

  digitalWrite(HEATER_ENABLE, HEATER_OFF);

  if (Temperature < 102.0) {
    digitalWrite(VENT_SOLENOID, VALVE_OPEN);
    460c:	88 e1       	ldi	r24, 0x18	; 24
    460e:	0e 94 2d 06 	call	0xc5a	; 0xc5a <digitalWrite>
    4612:	4d cf       	rjmp	.-358    	; 0x44ae <main+0x91c>
Sterilizing():
C:\Users\admin\Documents\Github\marketforge\MarketForge_Control/MarketForge_Control.ino:311
}

void Sterilizing(void) {
  char txt[20];
  
  sprintf(txt,"Esteriliz.  ");
    4614:	85 e0       	ldi	r24, 0x05	; 5
    4616:	93 e0       	ldi	r25, 0x03	; 3
    4618:	9f 93       	push	r25
    461a:	8f 93       	push	r24
    461c:	1f 93       	push	r17
    461e:	0f 93       	push	r16
    4620:	0e 94 f3 14 	call	0x29e6	; 0x29e6 <sprintf_>
C:\Users\admin\Documents\Github\marketforge\MarketForge_Control/MarketForge_Control.ino:312
  vfd.Print(txt,0);
    4624:	60 e0       	ldi	r22, 0x00	; 0
    4626:	c8 01       	movw	r24, r16
    4628:	0e 94 99 14 	call	0x2932	; 0x2932 <VFD_NEC_FC20X2::Print(char*, unsigned char) [clone .constprop.51]>
C:\Users\admin\Documents\Github\marketforge\MarketForge_Control/MarketForge_Control.ino:314

  sprintf(txt,"%02d:%02d:%02d",Seconds/3600, Seconds/60, Seconds % 60);
    462c:	20 91 9d 03 	lds	r18, 0x039D	; 0x80039d <Seconds>
    4630:	30 91 9e 03 	lds	r19, 0x039E	; 0x80039e <Seconds+0x1>
    4634:	c9 01       	movw	r24, r18
    4636:	6c e3       	ldi	r22, 0x3C	; 60
    4638:	70 e0       	ldi	r23, 0x00	; 0
    463a:	0e 94 94 27 	call	0x4f28	; 0x4f28 <__udivmodhi4>
    463e:	9f 93       	push	r25
    4640:	8f 93       	push	r24
    4642:	7f 93       	push	r23
    4644:	6f 93       	push	r22
    4646:	c9 01       	movw	r24, r18
    4648:	60 e1       	ldi	r22, 0x10	; 16
    464a:	7e e0       	ldi	r23, 0x0E	; 14
    464c:	0e 94 94 27 	call	0x4f28	; 0x4f28 <__udivmodhi4>
    4650:	7f 93       	push	r23
    4652:	6f 93       	push	r22
    4654:	2f ed       	ldi	r18, 0xDF	; 223
    4656:	32 e0       	ldi	r19, 0x02	; 2
    4658:	3f 93       	push	r19
    465a:	2f 93       	push	r18
    465c:	1f 93       	push	r17
    465e:	0f 93       	push	r16
    4660:	0e 94 f3 14 	call	0x29e6	; 0x29e6 <sprintf_>
C:\Users\admin\Documents\Github\marketforge\MarketForge_Control/MarketForge_Control.ino:315
  vfd.Print(txt,12);
    4664:	6c e0       	ldi	r22, 0x0C	; 12
    4666:	c8 01       	movw	r24, r16
    4668:	0e 94 99 14 	call	0x2932	; 0x2932 <VFD_NEC_FC20X2::Print(char*, unsigned char) [clone .constprop.51]>
C:\Users\admin\Documents\Github\marketforge\MarketForge_Control/MarketForge_Control.ino:317

  if ((Temperature >= (Setpoint - 0.5))  && (Temperature <= (Setpoint + 0.5))) {
    466c:	b0 90 1f 05 	lds	r11, 0x051F	; 0x80051f <Setpoint>
    4670:	a0 90 20 05 	lds	r10, 0x0520	; 0x800520 <Setpoint+0x1>
    4674:	90 90 21 05 	lds	r9, 0x0521	; 0x800521 <Setpoint+0x2>
    4678:	80 90 22 05 	lds	r8, 0x0522	; 0x800522 <Setpoint+0x3>
    467c:	f0 90 23 05 	lds	r15, 0x0523	; 0x800523 <Temperature>
    4680:	e0 90 24 05 	lds	r14, 0x0524	; 0x800524 <Temperature+0x1>
    4684:	d0 90 25 05 	lds	r13, 0x0525	; 0x800525 <Temperature+0x2>
    4688:	c0 90 26 05 	lds	r12, 0x0526	; 0x800526 <Temperature+0x3>
    468c:	20 e0       	ldi	r18, 0x00	; 0
    468e:	30 e0       	ldi	r19, 0x00	; 0
    4690:	40 e0       	ldi	r20, 0x00	; 0
    4692:	5f e3       	ldi	r21, 0x3F	; 63
    4694:	d5 01       	movw	r26, r10
    4696:	f4 01       	movw	r30, r8
    4698:	6b 2f       	mov	r22, r27
    469a:	7a 2f       	mov	r23, r26
    469c:	8f 2f       	mov	r24, r31
    469e:	9e 2f       	mov	r25, r30
    46a0:	0e 94 6b 24 	call	0x48d6	; 0x48d6 <__subsf3>
    46a4:	0f b6       	in	r0, 0x3f	; 63
    46a6:	f8 94       	cli
    46a8:	de bf       	out	0x3e, r29	; 62
    46aa:	0f be       	out	0x3f, r0	; 63
    46ac:	cd bf       	out	0x3d, r28	; 61
    46ae:	d7 01       	movw	r26, r14
    46b0:	f6 01       	movw	r30, r12
    46b2:	2b 2f       	mov	r18, r27
    46b4:	3a 2f       	mov	r19, r26
    46b6:	4f 2f       	mov	r20, r31
    46b8:	5e 2f       	mov	r21, r30
    46ba:	0e 94 d8 24 	call	0x49b0	; 0x49b0 <__cmpsf2>
    46be:	18 16       	cp	r1, r24
    46c0:	0c f4       	brge	.+2      	; 0x46c4 <main+0xb32>
    46c2:	44 c0       	rjmp	.+136    	; 0x474c <main+0xbba>
    46c4:	20 e0       	ldi	r18, 0x00	; 0
    46c6:	30 e0       	ldi	r19, 0x00	; 0
    46c8:	40 e0       	ldi	r20, 0x00	; 0
    46ca:	5f e3       	ldi	r21, 0x3F	; 63
    46cc:	d5 01       	movw	r26, r10
    46ce:	f4 01       	movw	r30, r8
    46d0:	6b 2f       	mov	r22, r27
    46d2:	7a 2f       	mov	r23, r26
    46d4:	8f 2f       	mov	r24, r31
    46d6:	9e 2f       	mov	r25, r30
    46d8:	0e 94 6c 24 	call	0x48d8	; 0x48d8 <__addsf3>
    46dc:	9b 01       	movw	r18, r22
    46de:	ac 01       	movw	r20, r24
    46e0:	d7 01       	movw	r26, r14
    46e2:	f6 01       	movw	r30, r12
    46e4:	6b 2f       	mov	r22, r27
    46e6:	7a 2f       	mov	r23, r26
    46e8:	8f 2f       	mov	r24, r31
    46ea:	9e 2f       	mov	r25, r30
    46ec:	0e 94 d8 24 	call	0x49b0	; 0x49b0 <__cmpsf2>
    46f0:	18 16       	cp	r1, r24
    46f2:	64 f1       	brlt	.+88     	; 0x474c <main+0xbba>
C:\Users\admin\Documents\Github\marketforge\MarketForge_Control/MarketForge_Control.ino:318
    sprintf(txt,"%1.1f C  ", Setpoint);
    46f4:	8f 92       	push	r8
    46f6:	9f 92       	push	r9
    46f8:	af 92       	push	r10
    46fa:	bf 92       	push	r11
    46fc:	23 e9       	ldi	r18, 0x93	; 147
    46fe:	32 e0       	ldi	r19, 0x02	; 2
    4700:	3f 93       	push	r19
    4702:	2f 93       	push	r18
    4704:	1f 93       	push	r17
    4706:	0f 93       	push	r16
    4708:	0e 94 f3 14 	call	0x29e6	; 0x29e6 <sprintf_>
C:\Users\admin\Documents\Github\marketforge\MarketForge_Control/MarketForge_Control.ino:319
    vfd.Print(txt,20);
    470c:	64 e1       	ldi	r22, 0x14	; 20
    470e:	c8 01       	movw	r24, r16
    4710:	0e 94 99 14 	call	0x2932	; 0x2932 <VFD_NEC_FC20X2::Print(char*, unsigned char) [clone .constprop.51]>
C:\Users\admin\Documents\Github\marketforge\MarketForge_Control/MarketForge_Control.ino:321

    sprintf(txt," %1.1f Psi ", 15.0);
    4714:	81 e4       	ldi	r24, 0x41	; 65
    4716:	8f 93       	push	r24
    4718:	80 e7       	ldi	r24, 0x70	; 112
    471a:	8f 93       	push	r24
    471c:	1f 92       	push	r1
    471e:	1f 92       	push	r1
C:\Users\admin\Documents\Github\marketforge\MarketForge_Control/MarketForge_Control.ino:327
    vfd.Print(txt,40-strlen(txt));
  } else {
    sprintf(txt,"%1.1f C   ", Temperature);
    vfd.Print(txt,20);

    sprintf(txt," %1.1f Psi ", Pressure);
    4720:	3f 92       	push	r3
    4722:	2f 92       	push	r2
    4724:	1f 93       	push	r17
    4726:	0f 93       	push	r16
    4728:	0e 94 f3 14 	call	0x29e6	; 0x29e6 <sprintf_>
C:\Users\admin\Documents\Github\marketforge\MarketForge_Control/MarketForge_Control.ino:328
    vfd.Print(txt,40-strlen(txt));
    472c:	f8 01       	movw	r30, r16
    472e:	01 90       	ld	r0, Z+
    4730:	00 20       	and	r0, r0
    4732:	e9 f7       	brne	.-6      	; 0x472e <main+0xb9c>
    4734:	60 2f       	mov	r22, r16
    4736:	6e 1b       	sub	r22, r30
    4738:	67 5d       	subi	r22, 0xD7	; 215
    473a:	c8 01       	movw	r24, r16
    473c:	0e 94 99 14 	call	0x2932	; 0x2932 <VFD_NEC_FC20X2::Print(char*, unsigned char) [clone .constprop.51]>
    4740:	0f b6       	in	r0, 0x3f	; 63
    4742:	f8 94       	cli
    4744:	de bf       	out	0x3e, r29	; 62
    4746:	0f be       	out	0x3f, r0	; 63
    4748:	cd bf       	out	0x3d, r28	; 61
    474a:	b1 ce       	rjmp	.-670    	; 0x44ae <main+0x91c>
C:\Users\admin\Documents\Github\marketforge\MarketForge_Control/MarketForge_Control.ino:324
    vfd.Print(txt,20);

    sprintf(txt," %1.1f Psi ", 15.0);
    vfd.Print(txt,40-strlen(txt));
  } else {
    sprintf(txt,"%1.1f C   ", Temperature);
    474c:	cf 92       	push	r12
    474e:	df 92       	push	r13
    4750:	ef 92       	push	r14
    4752:	ff 92       	push	r15
    4754:	2e ee       	ldi	r18, 0xEE	; 238
    4756:	32 e0       	ldi	r19, 0x02	; 2
    4758:	3f 93       	push	r19
    475a:	2f 93       	push	r18
    475c:	1f 93       	push	r17
    475e:	0f 93       	push	r16
    4760:	0e 94 f3 14 	call	0x29e6	; 0x29e6 <sprintf_>
C:\Users\admin\Documents\Github\marketforge\MarketForge_Control/MarketForge_Control.ino:325
    vfd.Print(txt,20);
    4764:	64 e1       	ldi	r22, 0x14	; 20
    4766:	c8 01       	movw	r24, r16
    4768:	0e 94 99 14 	call	0x2932	; 0x2932 <VFD_NEC_FC20X2::Print(char*, unsigned char) [clone .constprop.51]>
C:\Users\admin\Documents\Github\marketforge\MarketForge_Control/MarketForge_Control.ino:327

    sprintf(txt," %1.1f Psi ", Pressure);
    476c:	80 91 99 03 	lds	r24, 0x0399	; 0x800399 <Pressure+0x3>
    4770:	8f 93       	push	r24
    4772:	80 91 98 03 	lds	r24, 0x0398	; 0x800398 <Pressure+0x2>
    4776:	8f 93       	push	r24
    4778:	80 91 97 03 	lds	r24, 0x0397	; 0x800397 <Pressure+0x1>
    477c:	8f 93       	push	r24
    477e:	80 91 96 03 	lds	r24, 0x0396	; 0x800396 <Pressure>
    4782:	8f 93       	push	r24
    4784:	cd cf       	rjmp	.-102    	; 0x4720 <main+0xb8e>
Cooling():
C:\Users\admin\Documents\Github\marketforge\MarketForge_Control/MarketForge_Control.ino:336
}

void Cooling(void) {
  char txt[20];
  
  sprintf(txt,"Enfriando  ");
    4786:	22 e1       	ldi	r18, 0x12	; 18
    4788:	33 e0       	ldi	r19, 0x03	; 3
    478a:	3f 93       	push	r19
    478c:	2f 93       	push	r18
    478e:	1f 93       	push	r17
    4790:	0f 93       	push	r16
    4792:	0e 94 f3 14 	call	0x29e6	; 0x29e6 <sprintf_>
C:\Users\admin\Documents\Github\marketforge\MarketForge_Control/MarketForge_Control.ino:337
  vfd.Print(txt,0);
    4796:	60 e0       	ldi	r22, 0x00	; 0
    4798:	c8 01       	movw	r24, r16
    479a:	0e 94 99 14 	call	0x2932	; 0x2932 <VFD_NEC_FC20X2::Print(char*, unsigned char) [clone .constprop.51]>
C:\Users\admin\Documents\Github\marketforge\MarketForge_Control/MarketForge_Control.ino:339

  InCycle = false;
    479e:	10 92 9c 03 	sts	0x039C, r1	; 0x80039c <InCycle>
C:\Users\admin\Documents\Github\marketforge\MarketForge_Control/MarketForge_Control.ino:341

  sprintf(txt,"%02d:%02d:%02d",Seconds/3600, Seconds/60, Seconds % 60);
    47a2:	20 91 9d 03 	lds	r18, 0x039D	; 0x80039d <Seconds>
    47a6:	30 91 9e 03 	lds	r19, 0x039E	; 0x80039e <Seconds+0x1>
    47aa:	c9 01       	movw	r24, r18
    47ac:	6c e3       	ldi	r22, 0x3C	; 60
    47ae:	70 e0       	ldi	r23, 0x00	; 0
    47b0:	0e 94 94 27 	call	0x4f28	; 0x4f28 <__udivmodhi4>
    47b4:	9f 93       	push	r25
    47b6:	8f 93       	push	r24
    47b8:	7f 93       	push	r23
    47ba:	6f 93       	push	r22
    47bc:	c9 01       	movw	r24, r18
    47be:	60 e1       	ldi	r22, 0x10	; 16
    47c0:	7e e0       	ldi	r23, 0x0E	; 14
    47c2:	0e 94 94 27 	call	0x4f28	; 0x4f28 <__udivmodhi4>
    47c6:	7f 93       	push	r23
    47c8:	6f 93       	push	r22
    47ca:	af ed       	ldi	r26, 0xDF	; 223
    47cc:	b2 e0       	ldi	r27, 0x02	; 2
    47ce:	bf 93       	push	r27
    47d0:	af 93       	push	r26
    47d2:	1f 93       	push	r17
    47d4:	0f 93       	push	r16
    47d6:	0e 94 f3 14 	call	0x29e6	; 0x29e6 <sprintf_>
C:\Users\admin\Documents\Github\marketforge\MarketForge_Control/MarketForge_Control.ino:342
  vfd.Print(txt,12);
    47da:	6c e0       	ldi	r22, 0x0C	; 12
    47dc:	c8 01       	movw	r24, r16
    47de:	0e 94 99 14 	call	0x2932	; 0x2932 <VFD_NEC_FC20X2::Print(char*, unsigned char) [clone .constprop.51]>
C:\Users\admin\Documents\Github\marketforge\MarketForge_Control/MarketForge_Control.ino:344

  sprintf(txt,"%1.1f C  ", Temperature);
    47e2:	80 91 26 05 	lds	r24, 0x0526	; 0x800526 <Temperature+0x3>
    47e6:	8f 93       	push	r24
    47e8:	80 91 25 05 	lds	r24, 0x0525	; 0x800525 <Temperature+0x2>
    47ec:	8f 93       	push	r24
    47ee:	80 91 24 05 	lds	r24, 0x0524	; 0x800524 <Temperature+0x1>
    47f2:	8f 93       	push	r24
    47f4:	80 91 23 05 	lds	r24, 0x0523	; 0x800523 <Temperature>
    47f8:	8f 93       	push	r24
    47fa:	83 e9       	ldi	r24, 0x93	; 147
    47fc:	92 e0       	ldi	r25, 0x02	; 2
    47fe:	9f 93       	push	r25
    4800:	8f 93       	push	r24
    4802:	1f 93       	push	r17
    4804:	0f 93       	push	r16
    4806:	0e 94 f3 14 	call	0x29e6	; 0x29e6 <sprintf_>
C:\Users\admin\Documents\Github\marketforge\MarketForge_Control/MarketForge_Control.ino:345
  vfd.Print(txt,20);
    480a:	64 e1       	ldi	r22, 0x14	; 20
    480c:	c8 01       	movw	r24, r16
    480e:	0e 94 99 14 	call	0x2932	; 0x2932 <VFD_NEC_FC20X2::Print(char*, unsigned char) [clone .constprop.51]>
C:\Users\admin\Documents\Github\marketforge\MarketForge_Control/MarketForge_Control.ino:347

  if (Pressure >=15.0) {
    4812:	f0 90 96 03 	lds	r15, 0x0396	; 0x800396 <Pressure>
    4816:	e0 90 97 03 	lds	r14, 0x0397	; 0x800397 <Pressure+0x1>
    481a:	d0 90 98 03 	lds	r13, 0x0398	; 0x800398 <Pressure+0x2>
    481e:	c0 90 99 03 	lds	r12, 0x0399	; 0x800399 <Pressure+0x3>
    4822:	0f b6       	in	r0, 0x3f	; 63
    4824:	f8 94       	cli
    4826:	de bf       	out	0x3e, r29	; 62
    4828:	0f be       	out	0x3f, r0	; 63
    482a:	cd bf       	out	0x3d, r28	; 61
    482c:	20 e0       	ldi	r18, 0x00	; 0
    482e:	30 e0       	ldi	r19, 0x00	; 0
    4830:	40 e7       	ldi	r20, 0x70	; 112
    4832:	51 e4       	ldi	r21, 0x41	; 65
    4834:	d7 01       	movw	r26, r14
    4836:	f6 01       	movw	r30, r12
    4838:	6b 2f       	mov	r22, r27
    483a:	7a 2f       	mov	r23, r26
    483c:	8f 2f       	mov	r24, r31
    483e:	9e 2f       	mov	r25, r30
    4840:	0e 94 c7 26 	call	0x4d8e	; 0x4d8e <__gesf2>
    4844:	87 fd       	sbrc	r24, 7
    4846:	31 c0       	rjmp	.+98     	; 0x48aa <main+0xd18>
C:\Users\admin\Documents\Github\marketforge\MarketForge_Control/MarketForge_Control.ino:348
    sprintf(txt," %1.1f Psi ", 15.0);
    4848:	81 e4       	ldi	r24, 0x41	; 65
    484a:	8f 93       	push	r24
    484c:	80 e7       	ldi	r24, 0x70	; 112
    484e:	8f 93       	push	r24
    4850:	1f 92       	push	r1
    4852:	1f 92       	push	r1
C:\Users\admin\Documents\Github\marketforge\MarketForge_Control/MarketForge_Control.ino:351
  vfd.Print(txt,40-strlen(txt));
  } else {
    sprintf(txt," %1.1f Psi ", Pressure);
    4854:	3f 92       	push	r3
    4856:	2f 92       	push	r2
    4858:	1f 93       	push	r17
    485a:	0f 93       	push	r16
    485c:	0e 94 f3 14 	call	0x29e6	; 0x29e6 <sprintf_>
C:\Users\admin\Documents\Github\marketforge\MarketForge_Control/MarketForge_Control.ino:352
    vfd.Print(txt,40-strlen(txt));
    4860:	f8 01       	movw	r30, r16
    4862:	01 90       	ld	r0, Z+
    4864:	00 20       	and	r0, r0
    4866:	e9 f7       	brne	.-6      	; 0x4862 <main+0xcd0>
    4868:	60 2f       	mov	r22, r16
    486a:	6e 1b       	sub	r22, r30
    486c:	67 5d       	subi	r22, 0xD7	; 215
    486e:	c8 01       	movw	r24, r16
    4870:	0e 94 99 14 	call	0x2932	; 0x2932 <VFD_NEC_FC20X2::Print(char*, unsigned char) [clone .constprop.51]>
    4874:	0f b6       	in	r0, 0x3f	; 63
    4876:	f8 94       	cli
    4878:	de bf       	out	0x3e, r29	; 62
    487a:	0f be       	out	0x3f, r0	; 63
    487c:	cd bf       	out	0x3d, r28	; 61
C:\Users\admin\Documents\Github\marketforge\MarketForge_Control/MarketForge_Control.ino:355
  }

  digitalWrite(HEATER_ENABLE, HEATER_OFF);
    487e:	60 e0       	ldi	r22, 0x00	; 0
    4880:	8c e1       	ldi	r24, 0x1C	; 28
    4882:	0e 94 2d 06 	call	0xc5a	; 0xc5a <digitalWrite>
C:\Users\admin\Documents\Github\marketforge\MarketForge_Control/MarketForge_Control.ino:357

  if (Temperature < 102.0) {
    4886:	20 e0       	ldi	r18, 0x00	; 0
    4888:	30 e0       	ldi	r19, 0x00	; 0
    488a:	4c ec       	ldi	r20, 0xCC	; 204
    488c:	52 e4       	ldi	r21, 0x42	; 66
    488e:	60 91 23 05 	lds	r22, 0x0523	; 0x800523 <Temperature>
    4892:	70 91 24 05 	lds	r23, 0x0524	; 0x800524 <Temperature+0x1>
    4896:	80 91 25 05 	lds	r24, 0x0525	; 0x800525 <Temperature+0x2>
    489a:	90 91 26 05 	lds	r25, 0x0526	; 0x800526 <Temperature+0x3>
    489e:	0e 94 d8 24 	call	0x49b0	; 0x49b0 <__cmpsf2>
    48a2:	87 ff       	sbrs	r24, 7
    48a4:	04 ce       	rjmp	.-1016   	; 0x44ae <main+0x91c>
C:\Users\admin\Documents\Github\marketforge\MarketForge_Control/MarketForge_Control.ino:358
    digitalWrite(VENT_SOLENOID, VALVE_OPEN);
    48a6:	61 e0       	ldi	r22, 0x01	; 1
    48a8:	b1 ce       	rjmp	.-670    	; 0x460c <main+0xa7a>
C:\Users\admin\Documents\Github\marketforge\MarketForge_Control/MarketForge_Control.ino:351

  if (Pressure >=15.0) {
    sprintf(txt," %1.1f Psi ", 15.0);
  vfd.Print(txt,40-strlen(txt));
  } else {
    sprintf(txt," %1.1f Psi ", Pressure);
    48aa:	cf 92       	push	r12
    48ac:	df 92       	push	r13
    48ae:	ef 92       	push	r14
    48b0:	ff 92       	push	r15
    48b2:	d0 cf       	rjmp	.-96     	; 0x4854 <main+0xcc2>

000048b4 <_GLOBAL__sub_D_tempSensor>:
_GLOBAL__sub_D_tempSensor():
c:\Users\admin\Documents\Arduino\libraries\Adafruit_BusIO/Adafruit_SPIDevice.cpp:83

/*!
 *    @brief  Release memory allocated in constructors
 */
Adafruit_SPIDevice::~Adafruit_SPIDevice() {
  if (_spiSetting)
    48b4:	80 91 82 05 	lds	r24, 0x0582	; 0x800582 <tempSensor+0x2>
    48b8:	90 91 83 05 	lds	r25, 0x0583	; 0x800583 <tempSensor+0x3>
    48bc:	00 97       	sbiw	r24, 0x00	; 0
    48be:	11 f0       	breq	.+4      	; 0x48c4 <_GLOBAL__sub_D_tempSensor+0x10>
operator delete():
C:\Users\admin\AppData\Local\Arduino15\packages\MegaCore\hardware\avr\3.0.0\cores\MCUdude_corefiles/new.cpp:88
void * operator new[](std::size_t size, void *place) noexcept {
  return operator new(size, place);
}

[[gnu::weak]] void operator delete(void * ptr) noexcept {
  free(ptr);
    48c0:	0c 94 83 29 	jmp	0x5306	; 0x5306 <free>
_GLOBAL__sub_D_tempSensor():
C:\Users\admin\Documents\Github\marketforge\MarketForge_Control/MarketForge_Control.ino:590
  }


  digitalWrite(HEATER_LED, digitalRead(HEATER1));
  digitalWrite(VALVE_LED, digitalRead(VENT_SOLENOID));
}
    48c4:	08 95       	ret

000048c6 <eeprom_read_byte>:
eeprom_read_byte():
    48c6:	f9 99       	sbic	0x1f, 1	; 31
    48c8:	fe cf       	rjmp	.-4      	; 0x48c6 <eeprom_read_byte>
    48ca:	92 bd       	out	0x22, r25	; 34
    48cc:	81 bd       	out	0x21, r24	; 33
    48ce:	f8 9a       	sbi	0x1f, 0	; 31
    48d0:	99 27       	eor	r25, r25
    48d2:	80 b5       	in	r24, 0x20	; 32
    48d4:	08 95       	ret

000048d6 <__subsf3>:
__subsf3():
    48d6:	50 58       	subi	r21, 0x80	; 128

000048d8 <__addsf3>:
    48d8:	bb 27       	eor	r27, r27
    48da:	aa 27       	eor	r26, r26
    48dc:	0e 94 83 24 	call	0x4906	; 0x4906 <__addsf3x>
    48e0:	0c 94 8d 26 	jmp	0x4d1a	; 0x4d1a <__fp_round>
__addsf3():
    48e4:	0e 94 7f 26 	call	0x4cfe	; 0x4cfe <__fp_pscA>
    48e8:	38 f0       	brcs	.+14     	; 0x48f8 <__addsf3+0x20>
    48ea:	0e 94 86 26 	call	0x4d0c	; 0x4d0c <__fp_pscB>
    48ee:	20 f0       	brcs	.+8      	; 0x48f8 <__addsf3+0x20>
    48f0:	39 f4       	brne	.+14     	; 0x4900 <__addsf3+0x28>
    48f2:	9f 3f       	cpi	r25, 0xFF	; 255
    48f4:	19 f4       	brne	.+6      	; 0x48fc <__addsf3+0x24>
    48f6:	26 f4       	brtc	.+8      	; 0x4900 <__addsf3+0x28>
    48f8:	0c 94 6c 26 	jmp	0x4cd8	; 0x4cd8 <__fp_nan>
    48fc:	0e f4       	brtc	.+2      	; 0x4900 <__addsf3+0x28>
    48fe:	e0 95       	com	r30
    4900:	e7 fb       	bst	r30, 7
    4902:	0c 94 66 26 	jmp	0x4ccc	; 0x4ccc <__fp_inf>

00004906 <__addsf3x>:
__addsf3x():
    4906:	e9 2f       	mov	r30, r25
    4908:	0e 94 9e 26 	call	0x4d3c	; 0x4d3c <__fp_split3>
    490c:	58 f3       	brcs	.-42     	; 0x48e4 <__addsf3+0xc>
    490e:	ba 17       	cp	r27, r26
    4910:	62 07       	cpc	r22, r18
    4912:	73 07       	cpc	r23, r19
    4914:	84 07       	cpc	r24, r20
    4916:	95 07       	cpc	r25, r21
    4918:	20 f0       	brcs	.+8      	; 0x4922 <__addsf3x+0x1c>
    491a:	79 f4       	brne	.+30     	; 0x493a <__addsf3x+0x34>
    491c:	a6 f5       	brtc	.+104    	; 0x4986 <__addsf3x+0x80>
    491e:	0c 94 c0 26 	jmp	0x4d80	; 0x4d80 <__fp_zero>
    4922:	0e f4       	brtc	.+2      	; 0x4926 <__addsf3x+0x20>
    4924:	e0 95       	com	r30
    4926:	0b 2e       	mov	r0, r27
    4928:	ba 2f       	mov	r27, r26
    492a:	a0 2d       	mov	r26, r0
    492c:	0b 01       	movw	r0, r22
    492e:	b9 01       	movw	r22, r18
    4930:	90 01       	movw	r18, r0
    4932:	0c 01       	movw	r0, r24
    4934:	ca 01       	movw	r24, r20
    4936:	a0 01       	movw	r20, r0
    4938:	11 24       	eor	r1, r1
    493a:	ff 27       	eor	r31, r31
    493c:	59 1b       	sub	r21, r25
    493e:	99 f0       	breq	.+38     	; 0x4966 <__addsf3x+0x60>
    4940:	59 3f       	cpi	r21, 0xF9	; 249
    4942:	50 f4       	brcc	.+20     	; 0x4958 <__addsf3x+0x52>
    4944:	50 3e       	cpi	r21, 0xE0	; 224
    4946:	68 f1       	brcs	.+90     	; 0x49a2 <__addsf3x+0x9c>
    4948:	1a 16       	cp	r1, r26
    494a:	f0 40       	sbci	r31, 0x00	; 0
    494c:	a2 2f       	mov	r26, r18
    494e:	23 2f       	mov	r18, r19
    4950:	34 2f       	mov	r19, r20
    4952:	44 27       	eor	r20, r20
    4954:	58 5f       	subi	r21, 0xF8	; 248
    4956:	f3 cf       	rjmp	.-26     	; 0x493e <__addsf3x+0x38>
    4958:	46 95       	lsr	r20
    495a:	37 95       	ror	r19
    495c:	27 95       	ror	r18
    495e:	a7 95       	ror	r26
    4960:	f0 40       	sbci	r31, 0x00	; 0
    4962:	53 95       	inc	r21
    4964:	c9 f7       	brne	.-14     	; 0x4958 <__addsf3x+0x52>
    4966:	7e f4       	brtc	.+30     	; 0x4986 <__addsf3x+0x80>
    4968:	1f 16       	cp	r1, r31
    496a:	ba 0b       	sbc	r27, r26
    496c:	62 0b       	sbc	r22, r18
    496e:	73 0b       	sbc	r23, r19
    4970:	84 0b       	sbc	r24, r20
    4972:	ba f0       	brmi	.+46     	; 0x49a2 <__addsf3x+0x9c>
    4974:	91 50       	subi	r25, 0x01	; 1
    4976:	a1 f0       	breq	.+40     	; 0x49a0 <__addsf3x+0x9a>
    4978:	ff 0f       	add	r31, r31
    497a:	bb 1f       	adc	r27, r27
    497c:	66 1f       	adc	r22, r22
    497e:	77 1f       	adc	r23, r23
    4980:	88 1f       	adc	r24, r24
    4982:	c2 f7       	brpl	.-16     	; 0x4974 <__addsf3x+0x6e>
    4984:	0e c0       	rjmp	.+28     	; 0x49a2 <__addsf3x+0x9c>
    4986:	ba 0f       	add	r27, r26
    4988:	62 1f       	adc	r22, r18
    498a:	73 1f       	adc	r23, r19
    498c:	84 1f       	adc	r24, r20
    498e:	48 f4       	brcc	.+18     	; 0x49a2 <__addsf3x+0x9c>
    4990:	87 95       	ror	r24
    4992:	77 95       	ror	r23
    4994:	67 95       	ror	r22
    4996:	b7 95       	ror	r27
    4998:	f7 95       	ror	r31
    499a:	9e 3f       	cpi	r25, 0xFE	; 254
    499c:	08 f0       	brcs	.+2      	; 0x49a0 <__addsf3x+0x9a>
    499e:	b0 cf       	rjmp	.-160    	; 0x4900 <__addsf3+0x28>
    49a0:	93 95       	inc	r25
    49a2:	88 0f       	add	r24, r24
    49a4:	08 f0       	brcs	.+2      	; 0x49a8 <__addsf3x+0xa2>
    49a6:	99 27       	eor	r25, r25
    49a8:	ee 0f       	add	r30, r30
    49aa:	97 95       	ror	r25
    49ac:	87 95       	ror	r24
    49ae:	08 95       	ret

000049b0 <__cmpsf2>:
    49b0:	0e 94 42 26 	call	0x4c84	; 0x4c84 <__fp_cmp>
    49b4:	08 f4       	brcc	.+2      	; 0x49b8 <__cmpsf2+0x8>
    49b6:	81 e0       	ldi	r24, 0x01	; 1
    49b8:	08 95       	ret

000049ba <__divsf3>:
    49ba:	0e 94 f1 24 	call	0x49e2	; 0x49e2 <__divsf3x>
    49be:	0c 94 8d 26 	jmp	0x4d1a	; 0x4d1a <__fp_round>
    49c2:	0e 94 86 26 	call	0x4d0c	; 0x4d0c <__fp_pscB>
    49c6:	58 f0       	brcs	.+22     	; 0x49de <__divsf3+0x24>
    49c8:	0e 94 7f 26 	call	0x4cfe	; 0x4cfe <__fp_pscA>
    49cc:	40 f0       	brcs	.+16     	; 0x49de <__divsf3+0x24>
    49ce:	29 f4       	brne	.+10     	; 0x49da <__divsf3+0x20>
    49d0:	5f 3f       	cpi	r21, 0xFF	; 255
__divsf3():
    49d2:	29 f0       	breq	.+10     	; 0x49de <__divsf3+0x24>
    49d4:	0c 94 66 26 	jmp	0x4ccc	; 0x4ccc <__fp_inf>
    49d8:	51 11       	cpse	r21, r1
    49da:	0c 94 c1 26 	jmp	0x4d82	; 0x4d82 <__fp_szero>
    49de:	0c 94 6c 26 	jmp	0x4cd8	; 0x4cd8 <__fp_nan>

000049e2 <__divsf3x>:
__divsf3x():
    49e2:	0e 94 9e 26 	call	0x4d3c	; 0x4d3c <__fp_split3>
    49e6:	68 f3       	brcs	.-38     	; 0x49c2 <__divsf3+0x8>

000049e8 <__divsf3_pse>:
    49e8:	99 23       	and	r25, r25
    49ea:	b1 f3       	breq	.-20     	; 0x49d8 <__divsf3+0x1e>
    49ec:	55 23       	and	r21, r21
    49ee:	91 f3       	breq	.-28     	; 0x49d4 <__divsf3+0x1a>
    49f0:	95 1b       	sub	r25, r21
    49f2:	55 0b       	sbc	r21, r21
    49f4:	bb 27       	eor	r27, r27
    49f6:	aa 27       	eor	r26, r26
    49f8:	62 17       	cp	r22, r18
    49fa:	73 07       	cpc	r23, r19
    49fc:	84 07       	cpc	r24, r20
    49fe:	38 f0       	brcs	.+14     	; 0x4a0e <__divsf3_pse+0x26>
    4a00:	9f 5f       	subi	r25, 0xFF	; 255
    4a02:	5f 4f       	sbci	r21, 0xFF	; 255
    4a04:	22 0f       	add	r18, r18
    4a06:	33 1f       	adc	r19, r19
    4a08:	44 1f       	adc	r20, r20
    4a0a:	aa 1f       	adc	r26, r26
    4a0c:	a9 f3       	breq	.-22     	; 0x49f8 <__divsf3_pse+0x10>
    4a0e:	35 d0       	rcall	.+106    	; 0x4a7a <__divsf3_pse+0x92>
    4a10:	0e 2e       	mov	r0, r30
    4a12:	3a f0       	brmi	.+14     	; 0x4a22 <__divsf3_pse+0x3a>
    4a14:	e0 e8       	ldi	r30, 0x80	; 128
    4a16:	32 d0       	rcall	.+100    	; 0x4a7c <__divsf3_pse+0x94>
    4a18:	91 50       	subi	r25, 0x01	; 1
    4a1a:	50 40       	sbci	r21, 0x00	; 0
    4a1c:	e6 95       	lsr	r30
    4a1e:	00 1c       	adc	r0, r0
    4a20:	ca f7       	brpl	.-14     	; 0x4a14 <__divsf3_pse+0x2c>
    4a22:	2b d0       	rcall	.+86     	; 0x4a7a <__divsf3_pse+0x92>
    4a24:	fe 2f       	mov	r31, r30
    4a26:	29 d0       	rcall	.+82     	; 0x4a7a <__divsf3_pse+0x92>
    4a28:	66 0f       	add	r22, r22
    4a2a:	77 1f       	adc	r23, r23
    4a2c:	88 1f       	adc	r24, r24
    4a2e:	bb 1f       	adc	r27, r27
    4a30:	26 17       	cp	r18, r22
    4a32:	37 07       	cpc	r19, r23
    4a34:	48 07       	cpc	r20, r24
    4a36:	ab 07       	cpc	r26, r27
    4a38:	b0 e8       	ldi	r27, 0x80	; 128
    4a3a:	09 f0       	breq	.+2      	; 0x4a3e <__divsf3_pse+0x56>
    4a3c:	bb 0b       	sbc	r27, r27
    4a3e:	80 2d       	mov	r24, r0
    4a40:	bf 01       	movw	r22, r30
    4a42:	ff 27       	eor	r31, r31
    4a44:	93 58       	subi	r25, 0x83	; 131
    4a46:	5f 4f       	sbci	r21, 0xFF	; 255
    4a48:	3a f0       	brmi	.+14     	; 0x4a58 <__divsf3_pse+0x70>
    4a4a:	9e 3f       	cpi	r25, 0xFE	; 254
    4a4c:	51 05       	cpc	r21, r1
    4a4e:	78 f0       	brcs	.+30     	; 0x4a6e <__divsf3_pse+0x86>
    4a50:	0c 94 66 26 	jmp	0x4ccc	; 0x4ccc <__fp_inf>
    4a54:	0c 94 c1 26 	jmp	0x4d82	; 0x4d82 <__fp_szero>
    4a58:	5f 3f       	cpi	r21, 0xFF	; 255
    4a5a:	e4 f3       	brlt	.-8      	; 0x4a54 <__divsf3_pse+0x6c>
    4a5c:	98 3e       	cpi	r25, 0xE8	; 232
    4a5e:	d4 f3       	brlt	.-12     	; 0x4a54 <__divsf3_pse+0x6c>
    4a60:	86 95       	lsr	r24
    4a62:	77 95       	ror	r23
    4a64:	67 95       	ror	r22
    4a66:	b7 95       	ror	r27
    4a68:	f7 95       	ror	r31
    4a6a:	9f 5f       	subi	r25, 0xFF	; 255
    4a6c:	c9 f7       	brne	.-14     	; 0x4a60 <__divsf3_pse+0x78>
    4a6e:	88 0f       	add	r24, r24
    4a70:	91 1d       	adc	r25, r1
    4a72:	96 95       	lsr	r25
    4a74:	87 95       	ror	r24
    4a76:	97 f9       	bld	r25, 7
    4a78:	08 95       	ret
    4a7a:	e1 e0       	ldi	r30, 0x01	; 1
    4a7c:	66 0f       	add	r22, r22
    4a7e:	77 1f       	adc	r23, r23
    4a80:	88 1f       	adc	r24, r24
    4a82:	bb 1f       	adc	r27, r27
    4a84:	62 17       	cp	r22, r18
    4a86:	73 07       	cpc	r23, r19
    4a88:	84 07       	cpc	r24, r20
    4a8a:	ba 07       	cpc	r27, r26
    4a8c:	20 f0       	brcs	.+8      	; 0x4a96 <__divsf3_pse+0xae>
    4a8e:	62 1b       	sub	r22, r18
    4a90:	73 0b       	sbc	r23, r19
    4a92:	84 0b       	sbc	r24, r20
    4a94:	ba 0b       	sbc	r27, r26
    4a96:	ee 1f       	adc	r30, r30
    4a98:	88 f7       	brcc	.-30     	; 0x4a7c <__divsf3_pse+0x94>
    4a9a:	e0 95       	com	r30
    4a9c:	08 95       	ret

00004a9e <__fixsfdi>:
    4a9e:	be e3       	ldi	r27, 0x3E	; 62
    4aa0:	04 d0       	rcall	.+8      	; 0x4aaa <__fixunssfdi+0x2>
    4aa2:	08 f4       	brcc	.+2      	; 0x4aa6 <__fixsfdi+0x8>
    4aa4:	90 e8       	ldi	r25, 0x80	; 128
    4aa6:	08 95       	ret

00004aa8 <__fixunssfdi>:
    4aa8:	bf e3       	ldi	r27, 0x3F	; 63
    4aaa:	22 27       	eor	r18, r18
    4aac:	33 27       	eor	r19, r19
    4aae:	a9 01       	movw	r20, r18
    4ab0:	0e 94 a6 26 	call	0x4d4c	; 0x4d4c <__fp_splitA>
    4ab4:	60 f1       	brcs	.+88     	; 0x4b0e <__fixunssfdi+0x66>
    4ab6:	9f 57       	subi	r25, 0x7F	; 127
    4ab8:	48 f1       	brcs	.+82     	; 0x4b0c <__fixunssfdi+0x64>
    4aba:	b9 17       	cp	r27, r25
    4abc:	40 f1       	brcs	.+80     	; 0x4b0e <__fixunssfdi+0x66>
__fixunssfdi():
    4abe:	bf e3       	ldi	r27, 0x3F	; 63
    4ac0:	b9 1b       	sub	r27, r25
    4ac2:	99 27       	eor	r25, r25
    4ac4:	b8 50       	subi	r27, 0x08	; 8
    4ac6:	3a f4       	brpl	.+14     	; 0x4ad6 <__fixunssfdi+0x2e>
    4ac8:	66 0f       	add	r22, r22
    4aca:	77 1f       	adc	r23, r23
    4acc:	88 1f       	adc	r24, r24
    4ace:	99 1f       	adc	r25, r25
    4ad0:	b3 95       	inc	r27
    4ad2:	d2 f3       	brmi	.-12     	; 0x4ac8 <__fixunssfdi+0x20>
    4ad4:	16 c0       	rjmp	.+44     	; 0x4b02 <__fixunssfdi+0x5a>
    4ad6:	b8 50       	subi	r27, 0x08	; 8
    4ad8:	4a f0       	brmi	.+18     	; 0x4aec <__fixunssfdi+0x44>
    4ada:	23 2f       	mov	r18, r19
    4adc:	34 2f       	mov	r19, r20
    4ade:	45 2f       	mov	r20, r21
    4ae0:	56 2f       	mov	r21, r22
    4ae2:	67 2f       	mov	r22, r23
    4ae4:	78 2f       	mov	r23, r24
    4ae6:	88 27       	eor	r24, r24
    4ae8:	b8 50       	subi	r27, 0x08	; 8
    4aea:	ba f7       	brpl	.-18     	; 0x4ada <__fixunssfdi+0x32>
    4aec:	b8 5f       	subi	r27, 0xF8	; 248
    4aee:	49 f0       	breq	.+18     	; 0x4b02 <__fixunssfdi+0x5a>
    4af0:	86 95       	lsr	r24
    4af2:	77 95       	ror	r23
    4af4:	67 95       	ror	r22
    4af6:	57 95       	ror	r21
    4af8:	47 95       	ror	r20
    4afa:	37 95       	ror	r19
    4afc:	27 95       	ror	r18
    4afe:	ba 95       	dec	r27
    4b00:	b9 f7       	brne	.-18     	; 0x4af0 <__fixunssfdi+0x48>
    4b02:	16 f4       	brtc	.+4      	; 0x4b08 <__fixunssfdi+0x60>
    4b04:	0e 94 6f 26 	call	0x4cde	; 0x4cde <__fp_negdi>
    4b08:	88 94       	clc
    4b0a:	08 95       	ret
    4b0c:	88 94       	clc
    4b0e:	60 e0       	ldi	r22, 0x00	; 0
    4b10:	70 e0       	ldi	r23, 0x00	; 0
    4b12:	cb 01       	movw	r24, r22
    4b14:	08 95       	ret

00004b16 <__fixsfsi>:
__fixsfsi():
    4b16:	0e 94 92 25 	call	0x4b24	; 0x4b24 <__fixunssfsi>
    4b1a:	68 94       	set
    4b1c:	b1 11       	cpse	r27, r1
    4b1e:	0c 94 c1 26 	jmp	0x4d82	; 0x4d82 <__fp_szero>
    4b22:	08 95       	ret

00004b24 <__fixunssfsi>:
__fixunssfsi():
    4b24:	0e 94 a6 26 	call	0x4d4c	; 0x4d4c <__fp_splitA>
    4b28:	88 f0       	brcs	.+34     	; 0x4b4c <__fixunssfsi+0x28>
    4b2a:	9f 57       	subi	r25, 0x7F	; 127
    4b2c:	98 f0       	brcs	.+38     	; 0x4b54 <__fixunssfsi+0x30>
    4b2e:	b9 2f       	mov	r27, r25
    4b30:	99 27       	eor	r25, r25
    4b32:	b7 51       	subi	r27, 0x17	; 23
    4b34:	b0 f0       	brcs	.+44     	; 0x4b62 <__fixunssfsi+0x3e>
    4b36:	e1 f0       	breq	.+56     	; 0x4b70 <__fixunssfsi+0x4c>
    4b38:	66 0f       	add	r22, r22
    4b3a:	77 1f       	adc	r23, r23
    4b3c:	88 1f       	adc	r24, r24
    4b3e:	99 1f       	adc	r25, r25
    4b40:	1a f0       	brmi	.+6      	; 0x4b48 <__fixunssfsi+0x24>
    4b42:	ba 95       	dec	r27
    4b44:	c9 f7       	brne	.-14     	; 0x4b38 <__fixunssfsi+0x14>
    4b46:	14 c0       	rjmp	.+40     	; 0x4b70 <__fixunssfsi+0x4c>
    4b48:	b1 30       	cpi	r27, 0x01	; 1
    4b4a:	91 f0       	breq	.+36     	; 0x4b70 <__fixunssfsi+0x4c>
    4b4c:	0e 94 c0 26 	call	0x4d80	; 0x4d80 <__fp_zero>
    4b50:	b1 e0       	ldi	r27, 0x01	; 1
    4b52:	08 95       	ret
    4b54:	0c 94 c0 26 	jmp	0x4d80	; 0x4d80 <__fp_zero>
    4b58:	67 2f       	mov	r22, r23
    4b5a:	78 2f       	mov	r23, r24
    4b5c:	88 27       	eor	r24, r24
    4b5e:	b8 5f       	subi	r27, 0xF8	; 248
    4b60:	39 f0       	breq	.+14     	; 0x4b70 <__fixunssfsi+0x4c>
    4b62:	b9 3f       	cpi	r27, 0xF9	; 249
    4b64:	cc f3       	brlt	.-14     	; 0x4b58 <__fixunssfsi+0x34>
    4b66:	86 95       	lsr	r24
    4b68:	77 95       	ror	r23
    4b6a:	67 95       	ror	r22
    4b6c:	b3 95       	inc	r27
    4b6e:	d9 f7       	brne	.-10     	; 0x4b66 <__fixunssfsi+0x42>
    4b70:	3e f4       	brtc	.+14     	; 0x4b80 <__fixunssfsi+0x5c>
    4b72:	90 95       	com	r25
    4b74:	80 95       	com	r24
    4b76:	70 95       	com	r23
    4b78:	61 95       	neg	r22
    4b7a:	7f 4f       	sbci	r23, 0xFF	; 255
    4b7c:	8f 4f       	sbci	r24, 0xFF	; 255
    4b7e:	9f 4f       	sbci	r25, 0xFF	; 255
    4b80:	08 95       	ret

00004b82 <__floatdisf>:
__floatdisf():
    4b82:	97 fb       	bst	r25, 7
    4b84:	16 f4       	brtc	.+4      	; 0x4b8a <__floatdisf+0x8>
    4b86:	0e 94 6f 26 	call	0x4cde	; 0x4cde <__fp_negdi>
    4b8a:	0c 94 05 26 	jmp	0x4c0a	; 0x4c0a <__fp_di2sf>

00004b8e <__floatunsisf>:
__floatunsisf():
    4b8e:	e8 94       	clt
    4b90:	09 c0       	rjmp	.+18     	; 0x4ba4 <__floatsisf+0x12>

00004b92 <__floatsisf>:
    4b92:	97 fb       	bst	r25, 7
    4b94:	3e f4       	brtc	.+14     	; 0x4ba4 <__floatsisf+0x12>
    4b96:	90 95       	com	r25
    4b98:	80 95       	com	r24
    4b9a:	70 95       	com	r23
    4b9c:	61 95       	neg	r22
    4b9e:	7f 4f       	sbci	r23, 0xFF	; 255
    4ba0:	8f 4f       	sbci	r24, 0xFF	; 255
    4ba2:	9f 4f       	sbci	r25, 0xFF	; 255
    4ba4:	99 23       	and	r25, r25
    4ba6:	a9 f0       	breq	.+42     	; 0x4bd2 <__floatsisf+0x40>
    4ba8:	f9 2f       	mov	r31, r25
    4baa:	96 e9       	ldi	r25, 0x96	; 150
    4bac:	bb 27       	eor	r27, r27
    4bae:	93 95       	inc	r25
    4bb0:	f6 95       	lsr	r31
    4bb2:	87 95       	ror	r24
    4bb4:	77 95       	ror	r23
    4bb6:	67 95       	ror	r22
    4bb8:	b7 95       	ror	r27
    4bba:	f1 11       	cpse	r31, r1
    4bbc:	f8 cf       	rjmp	.-16     	; 0x4bae <__floatsisf+0x1c>
    4bbe:	fa f4       	brpl	.+62     	; 0x4bfe <__floatsisf+0x6c>
    4bc0:	bb 0f       	add	r27, r27
    4bc2:	11 f4       	brne	.+4      	; 0x4bc8 <__floatsisf+0x36>
    4bc4:	60 ff       	sbrs	r22, 0
    4bc6:	1b c0       	rjmp	.+54     	; 0x4bfe <__floatsisf+0x6c>
    4bc8:	6f 5f       	subi	r22, 0xFF	; 255
    4bca:	7f 4f       	sbci	r23, 0xFF	; 255
    4bcc:	8f 4f       	sbci	r24, 0xFF	; 255
    4bce:	9f 4f       	sbci	r25, 0xFF	; 255
    4bd0:	16 c0       	rjmp	.+44     	; 0x4bfe <__floatsisf+0x6c>
    4bd2:	88 23       	and	r24, r24
    4bd4:	11 f0       	breq	.+4      	; 0x4bda <__floatsisf+0x48>
    4bd6:	96 e9       	ldi	r25, 0x96	; 150
    4bd8:	11 c0       	rjmp	.+34     	; 0x4bfc <__floatsisf+0x6a>
    4bda:	77 23       	and	r23, r23
    4bdc:	21 f0       	breq	.+8      	; 0x4be6 <__floatsisf+0x54>
    4bde:	9e e8       	ldi	r25, 0x8E	; 142
    4be0:	87 2f       	mov	r24, r23
    4be2:	76 2f       	mov	r23, r22
    4be4:	05 c0       	rjmp	.+10     	; 0x4bf0 <__floatsisf+0x5e>
    4be6:	66 23       	and	r22, r22
    4be8:	71 f0       	breq	.+28     	; 0x4c06 <__floatsisf+0x74>
    4bea:	96 e8       	ldi	r25, 0x86	; 134
    4bec:	86 2f       	mov	r24, r22
    4bee:	70 e0       	ldi	r23, 0x00	; 0
    4bf0:	60 e0       	ldi	r22, 0x00	; 0
    4bf2:	2a f0       	brmi	.+10     	; 0x4bfe <__floatsisf+0x6c>
    4bf4:	9a 95       	dec	r25
    4bf6:	66 0f       	add	r22, r22
    4bf8:	77 1f       	adc	r23, r23
    4bfa:	88 1f       	adc	r24, r24
    4bfc:	da f7       	brpl	.-10     	; 0x4bf4 <__floatsisf+0x62>
    4bfe:	88 0f       	add	r24, r24
    4c00:	96 95       	lsr	r25
    4c02:	87 95       	ror	r24
    4c04:	97 f9       	bld	r25, 7
    4c06:	08 95       	ret

00004c08 <__floatundisf>:
__floatundisf():
    4c08:	e8 94       	clt

00004c0a <__fp_di2sf>:
    4c0a:	f9 2f       	mov	r31, r25
    4c0c:	96 eb       	ldi	r25, 0xB6	; 182
    4c0e:	ff 23       	and	r31, r31
    4c10:	81 f0       	breq	.+32     	; 0x4c32 <__fp_di2sf+0x28>
    4c12:	12 16       	cp	r1, r18
    4c14:	13 06       	cpc	r1, r19
    4c16:	14 06       	cpc	r1, r20
    4c18:	44 0b       	sbc	r20, r20
    4c1a:	93 95       	inc	r25
    4c1c:	f6 95       	lsr	r31
    4c1e:	87 95       	ror	r24
    4c20:	77 95       	ror	r23
    4c22:	67 95       	ror	r22
    4c24:	57 95       	ror	r21
    4c26:	40 40       	sbci	r20, 0x00	; 0
    4c28:	ff 23       	and	r31, r31
    4c2a:	b9 f7       	brne	.-18     	; 0x4c1a <__fp_di2sf+0x10>
    4c2c:	1b c0       	rjmp	.+54     	; 0x4c64 <__fp_di2sf+0x5a>
    4c2e:	99 27       	eor	r25, r25
    4c30:	08 95       	ret
    4c32:	88 23       	and	r24, r24
    4c34:	51 f4       	brne	.+20     	; 0x4c4a <__fp_di2sf+0x40>
    4c36:	98 50       	subi	r25, 0x08	; 8
    4c38:	d2 f7       	brpl	.-12     	; 0x4c2e <__fp_di2sf+0x24>
    4c3a:	87 2b       	or	r24, r23
    4c3c:	76 2f       	mov	r23, r22
    4c3e:	65 2f       	mov	r22, r21
    4c40:	54 2f       	mov	r21, r20
    4c42:	43 2f       	mov	r20, r19
    4c44:	32 2f       	mov	r19, r18
    4c46:	20 e0       	ldi	r18, 0x00	; 0
    4c48:	b1 f3       	breq	.-20     	; 0x4c36 <__fp_di2sf+0x2c>
    4c4a:	12 16       	cp	r1, r18
    4c4c:	13 06       	cpc	r1, r19
    4c4e:	14 06       	cpc	r1, r20
    4c50:	44 0b       	sbc	r20, r20
    4c52:	88 23       	and	r24, r24
    4c54:	3a f0       	brmi	.+14     	; 0x4c64 <__fp_di2sf+0x5a>
    4c56:	9a 95       	dec	r25
    4c58:	44 0f       	add	r20, r20
    4c5a:	55 1f       	adc	r21, r21
    4c5c:	66 1f       	adc	r22, r22
    4c5e:	77 1f       	adc	r23, r23
    4c60:	88 1f       	adc	r24, r24
    4c62:	ca f7       	brpl	.-14     	; 0x4c56 <__fp_di2sf+0x4c>
    4c64:	55 23       	and	r21, r21
    4c66:	4a f4       	brpl	.+18     	; 0x4c7a <__fp_di2sf+0x70>
    4c68:	44 0f       	add	r20, r20
    4c6a:	55 1f       	adc	r21, r21
    4c6c:	11 f4       	brne	.+4      	; 0x4c72 <__fp_di2sf+0x68>
    4c6e:	60 ff       	sbrs	r22, 0
    4c70:	04 c0       	rjmp	.+8      	; 0x4c7a <__fp_di2sf+0x70>
    4c72:	6f 5f       	subi	r22, 0xFF	; 255
    4c74:	7f 4f       	sbci	r23, 0xFF	; 255
    4c76:	8f 4f       	sbci	r24, 0xFF	; 255
    4c78:	9f 4f       	sbci	r25, 0xFF	; 255
    4c7a:	88 0f       	add	r24, r24
    4c7c:	96 95       	lsr	r25
    4c7e:	87 95       	ror	r24
    4c80:	97 f9       	bld	r25, 7
    4c82:	08 95       	ret

00004c84 <__fp_cmp>:
__fp_cmp():
    4c84:	99 0f       	add	r25, r25
    4c86:	00 08       	sbc	r0, r0
    4c88:	55 0f       	add	r21, r21
    4c8a:	aa 0b       	sbc	r26, r26
    4c8c:	e0 e8       	ldi	r30, 0x80	; 128
    4c8e:	fe ef       	ldi	r31, 0xFE	; 254
    4c90:	16 16       	cp	r1, r22
    4c92:	17 06       	cpc	r1, r23
    4c94:	e8 07       	cpc	r30, r24
    4c96:	f9 07       	cpc	r31, r25
    4c98:	c0 f0       	brcs	.+48     	; 0x4cca <__fp_cmp+0x46>
    4c9a:	12 16       	cp	r1, r18
    4c9c:	13 06       	cpc	r1, r19
    4c9e:	e4 07       	cpc	r30, r20
    4ca0:	f5 07       	cpc	r31, r21
    4ca2:	98 f0       	brcs	.+38     	; 0x4cca <__fp_cmp+0x46>
    4ca4:	62 1b       	sub	r22, r18
    4ca6:	73 0b       	sbc	r23, r19
    4ca8:	84 0b       	sbc	r24, r20
    4caa:	95 0b       	sbc	r25, r21
    4cac:	39 f4       	brne	.+14     	; 0x4cbc <__fp_cmp+0x38>
    4cae:	0a 26       	eor	r0, r26
    4cb0:	61 f0       	breq	.+24     	; 0x4cca <__fp_cmp+0x46>
    4cb2:	23 2b       	or	r18, r19
    4cb4:	24 2b       	or	r18, r20
    4cb6:	25 2b       	or	r18, r21
    4cb8:	21 f4       	brne	.+8      	; 0x4cc2 <__fp_cmp+0x3e>
    4cba:	08 95       	ret
    4cbc:	0a 26       	eor	r0, r26
    4cbe:	09 f4       	brne	.+2      	; 0x4cc2 <__fp_cmp+0x3e>
    4cc0:	a1 40       	sbci	r26, 0x01	; 1
    4cc2:	a6 95       	lsr	r26
    4cc4:	8f ef       	ldi	r24, 0xFF	; 255
    4cc6:	81 1d       	adc	r24, r1
    4cc8:	81 1d       	adc	r24, r1
    4cca:	08 95       	ret

00004ccc <__fp_inf>:
__fp_inf():
    4ccc:	97 f9       	bld	r25, 7
    4cce:	9f 67       	ori	r25, 0x7F	; 127
    4cd0:	80 e8       	ldi	r24, 0x80	; 128
    4cd2:	70 e0       	ldi	r23, 0x00	; 0
    4cd4:	60 e0       	ldi	r22, 0x00	; 0
    4cd6:	08 95       	ret

00004cd8 <__fp_nan>:
__fp_nan():
    4cd8:	9f ef       	ldi	r25, 0xFF	; 255
    4cda:	80 ec       	ldi	r24, 0xC0	; 192
    4cdc:	08 95       	ret

00004cde <__fp_negdi>:
__fp_negdi():
    4cde:	90 95       	com	r25
    4ce0:	80 95       	com	r24
    4ce2:	70 95       	com	r23
    4ce4:	60 95       	com	r22
    4ce6:	50 95       	com	r21
    4ce8:	40 95       	com	r20
    4cea:	30 95       	com	r19
    4cec:	21 95       	neg	r18
    4cee:	3f 4f       	sbci	r19, 0xFF	; 255
    4cf0:	4f 4f       	sbci	r20, 0xFF	; 255
    4cf2:	5f 4f       	sbci	r21, 0xFF	; 255
    4cf4:	6f 4f       	sbci	r22, 0xFF	; 255
    4cf6:	7f 4f       	sbci	r23, 0xFF	; 255
    4cf8:	8f 4f       	sbci	r24, 0xFF	; 255
    4cfa:	9f 4f       	sbci	r25, 0xFF	; 255
    4cfc:	08 95       	ret

00004cfe <__fp_pscA>:
__fp_pscA():
    4cfe:	00 24       	eor	r0, r0
    4d00:	0a 94       	dec	r0
    4d02:	16 16       	cp	r1, r22
    4d04:	17 06       	cpc	r1, r23
    4d06:	18 06       	cpc	r1, r24
    4d08:	09 06       	cpc	r0, r25
    4d0a:	08 95       	ret

00004d0c <__fp_pscB>:
__fp_pscB():
    4d0c:	00 24       	eor	r0, r0
    4d0e:	0a 94       	dec	r0
    4d10:	12 16       	cp	r1, r18
    4d12:	13 06       	cpc	r1, r19
    4d14:	14 06       	cpc	r1, r20
    4d16:	05 06       	cpc	r0, r21
    4d18:	08 95       	ret

00004d1a <__fp_round>:
__fp_round():
    4d1a:	09 2e       	mov	r0, r25
    4d1c:	03 94       	inc	r0
    4d1e:	00 0c       	add	r0, r0
    4d20:	11 f4       	brne	.+4      	; 0x4d26 <__fp_round+0xc>
    4d22:	88 23       	and	r24, r24
    4d24:	52 f0       	brmi	.+20     	; 0x4d3a <__fp_round+0x20>
    4d26:	bb 0f       	add	r27, r27
    4d28:	40 f4       	brcc	.+16     	; 0x4d3a <__fp_round+0x20>
    4d2a:	bf 2b       	or	r27, r31
    4d2c:	11 f4       	brne	.+4      	; 0x4d32 <__fp_round+0x18>
    4d2e:	60 ff       	sbrs	r22, 0
    4d30:	04 c0       	rjmp	.+8      	; 0x4d3a <__fp_round+0x20>
    4d32:	6f 5f       	subi	r22, 0xFF	; 255
    4d34:	7f 4f       	sbci	r23, 0xFF	; 255
    4d36:	8f 4f       	sbci	r24, 0xFF	; 255
    4d38:	9f 4f       	sbci	r25, 0xFF	; 255
    4d3a:	08 95       	ret

00004d3c <__fp_split3>:
__fp_split3():
    4d3c:	57 fd       	sbrc	r21, 7
    4d3e:	90 58       	subi	r25, 0x80	; 128
    4d40:	44 0f       	add	r20, r20
    4d42:	55 1f       	adc	r21, r21
    4d44:	59 f0       	breq	.+22     	; 0x4d5c <__fp_splitA+0x10>
    4d46:	5f 3f       	cpi	r21, 0xFF	; 255
    4d48:	71 f0       	breq	.+28     	; 0x4d66 <__fp_splitA+0x1a>
    4d4a:	47 95       	ror	r20

00004d4c <__fp_splitA>:
    4d4c:	88 0f       	add	r24, r24
    4d4e:	97 fb       	bst	r25, 7
    4d50:	99 1f       	adc	r25, r25
    4d52:	61 f0       	breq	.+24     	; 0x4d6c <__fp_splitA+0x20>
    4d54:	9f 3f       	cpi	r25, 0xFF	; 255
    4d56:	79 f0       	breq	.+30     	; 0x4d76 <__fp_splitA+0x2a>
    4d58:	87 95       	ror	r24
    4d5a:	08 95       	ret
    4d5c:	12 16       	cp	r1, r18
    4d5e:	13 06       	cpc	r1, r19
    4d60:	14 06       	cpc	r1, r20
    4d62:	55 1f       	adc	r21, r21
    4d64:	f2 cf       	rjmp	.-28     	; 0x4d4a <__fp_split3+0xe>
    4d66:	46 95       	lsr	r20
    4d68:	f1 df       	rcall	.-30     	; 0x4d4c <__fp_splitA>
    4d6a:	08 c0       	rjmp	.+16     	; 0x4d7c <__fp_splitA+0x30>
    4d6c:	16 16       	cp	r1, r22
    4d6e:	17 06       	cpc	r1, r23
    4d70:	18 06       	cpc	r1, r24
    4d72:	99 1f       	adc	r25, r25
    4d74:	f1 cf       	rjmp	.-30     	; 0x4d58 <__fp_splitA+0xc>
    4d76:	86 95       	lsr	r24
    4d78:	71 05       	cpc	r23, r1
    4d7a:	61 05       	cpc	r22, r1
    4d7c:	08 94       	sec
    4d7e:	08 95       	ret

00004d80 <__fp_zero>:
__fp_zero():
    4d80:	e8 94       	clt

00004d82 <__fp_szero>:
    4d82:	bb 27       	eor	r27, r27
    4d84:	66 27       	eor	r22, r22
    4d86:	77 27       	eor	r23, r23
    4d88:	cb 01       	movw	r24, r22
    4d8a:	97 f9       	bld	r25, 7
    4d8c:	08 95       	ret

00004d8e <__gesf2>:
__gesf2():
    4d8e:	0e 94 42 26 	call	0x4c84	; 0x4c84 <__fp_cmp>
    4d92:	08 f4       	brcc	.+2      	; 0x4d96 <__gesf2+0x8>
    4d94:	8f ef       	ldi	r24, 0xFF	; 255
    4d96:	08 95       	ret

00004d98 <__mulsf3>:
__mulsf3():
    4d98:	0e 94 df 26 	call	0x4dbe	; 0x4dbe <__mulsf3x>
    4d9c:	0c 94 8d 26 	jmp	0x4d1a	; 0x4d1a <__fp_round>
    4da0:	0e 94 7f 26 	call	0x4cfe	; 0x4cfe <__fp_pscA>
    4da4:	38 f0       	brcs	.+14     	; 0x4db4 <__mulsf3+0x1c>
    4da6:	0e 94 86 26 	call	0x4d0c	; 0x4d0c <__fp_pscB>
    4daa:	20 f0       	brcs	.+8      	; 0x4db4 <__mulsf3+0x1c>
    4dac:	95 23       	and	r25, r21
    4dae:	11 f0       	breq	.+4      	; 0x4db4 <__mulsf3+0x1c>
    4db0:	0c 94 66 26 	jmp	0x4ccc	; 0x4ccc <__fp_inf>
    4db4:	0c 94 6c 26 	jmp	0x4cd8	; 0x4cd8 <__fp_nan>
    4db8:	11 24       	eor	r1, r1
    4dba:	0c 94 c1 26 	jmp	0x4d82	; 0x4d82 <__fp_szero>

00004dbe <__mulsf3x>:
__mulsf3x():
    4dbe:	0e 94 9e 26 	call	0x4d3c	; 0x4d3c <__fp_split3>
    4dc2:	70 f3       	brcs	.-36     	; 0x4da0 <__mulsf3+0x8>

00004dc4 <__mulsf3_pse>:
    4dc4:	95 9f       	mul	r25, r21
    4dc6:	c1 f3       	breq	.-16     	; 0x4db8 <__mulsf3+0x20>
    4dc8:	95 0f       	add	r25, r21
    4dca:	50 e0       	ldi	r21, 0x00	; 0
    4dcc:	55 1f       	adc	r21, r21
    4dce:	62 9f       	mul	r22, r18
    4dd0:	f0 01       	movw	r30, r0
    4dd2:	72 9f       	mul	r23, r18
    4dd4:	bb 27       	eor	r27, r27
    4dd6:	f0 0d       	add	r31, r0
    4dd8:	b1 1d       	adc	r27, r1
    4dda:	63 9f       	mul	r22, r19
    4ddc:	aa 27       	eor	r26, r26
    4dde:	f0 0d       	add	r31, r0
    4de0:	b1 1d       	adc	r27, r1
    4de2:	aa 1f       	adc	r26, r26
    4de4:	64 9f       	mul	r22, r20
    4de6:	66 27       	eor	r22, r22
    4de8:	b0 0d       	add	r27, r0
    4dea:	a1 1d       	adc	r26, r1
    4dec:	66 1f       	adc	r22, r22
    4dee:	82 9f       	mul	r24, r18
    4df0:	22 27       	eor	r18, r18
    4df2:	b0 0d       	add	r27, r0
    4df4:	a1 1d       	adc	r26, r1
    4df6:	62 1f       	adc	r22, r18
    4df8:	73 9f       	mul	r23, r19
    4dfa:	b0 0d       	add	r27, r0
    4dfc:	a1 1d       	adc	r26, r1
    4dfe:	62 1f       	adc	r22, r18
    4e00:	83 9f       	mul	r24, r19
    4e02:	a0 0d       	add	r26, r0
    4e04:	61 1d       	adc	r22, r1
    4e06:	22 1f       	adc	r18, r18
    4e08:	74 9f       	mul	r23, r20
    4e0a:	33 27       	eor	r19, r19
    4e0c:	a0 0d       	add	r26, r0
    4e0e:	61 1d       	adc	r22, r1
    4e10:	23 1f       	adc	r18, r19
    4e12:	84 9f       	mul	r24, r20
    4e14:	60 0d       	add	r22, r0
    4e16:	21 1d       	adc	r18, r1
    4e18:	82 2f       	mov	r24, r18
    4e1a:	76 2f       	mov	r23, r22
    4e1c:	6a 2f       	mov	r22, r26
    4e1e:	11 24       	eor	r1, r1
    4e20:	9f 57       	subi	r25, 0x7F	; 127
    4e22:	50 40       	sbci	r21, 0x00	; 0
    4e24:	9a f0       	brmi	.+38     	; 0x4e4c <__mulsf3_pse+0x88>
    4e26:	f1 f0       	breq	.+60     	; 0x4e64 <__mulsf3_pse+0xa0>
    4e28:	88 23       	and	r24, r24
    4e2a:	4a f0       	brmi	.+18     	; 0x4e3e <__mulsf3_pse+0x7a>
    4e2c:	ee 0f       	add	r30, r30
    4e2e:	ff 1f       	adc	r31, r31
    4e30:	bb 1f       	adc	r27, r27
    4e32:	66 1f       	adc	r22, r22
    4e34:	77 1f       	adc	r23, r23
    4e36:	88 1f       	adc	r24, r24
    4e38:	91 50       	subi	r25, 0x01	; 1
    4e3a:	50 40       	sbci	r21, 0x00	; 0
    4e3c:	a9 f7       	brne	.-22     	; 0x4e28 <__mulsf3_pse+0x64>
    4e3e:	9e 3f       	cpi	r25, 0xFE	; 254
    4e40:	51 05       	cpc	r21, r1
    4e42:	80 f0       	brcs	.+32     	; 0x4e64 <__mulsf3_pse+0xa0>
    4e44:	0c 94 66 26 	jmp	0x4ccc	; 0x4ccc <__fp_inf>
    4e48:	0c 94 c1 26 	jmp	0x4d82	; 0x4d82 <__fp_szero>
    4e4c:	5f 3f       	cpi	r21, 0xFF	; 255
    4e4e:	e4 f3       	brlt	.-8      	; 0x4e48 <__mulsf3_pse+0x84>
    4e50:	98 3e       	cpi	r25, 0xE8	; 232
    4e52:	d4 f3       	brlt	.-12     	; 0x4e48 <__mulsf3_pse+0x84>
    4e54:	86 95       	lsr	r24
    4e56:	77 95       	ror	r23
    4e58:	67 95       	ror	r22
    4e5a:	b7 95       	ror	r27
    4e5c:	f7 95       	ror	r31
    4e5e:	e7 95       	ror	r30
    4e60:	9f 5f       	subi	r25, 0xFF	; 255
    4e62:	c1 f7       	brne	.-16     	; 0x4e54 <__mulsf3_pse+0x90>
    4e64:	fe 2b       	or	r31, r30
    4e66:	88 0f       	add	r24, r24
    4e68:	91 1d       	adc	r25, r1
    4e6a:	96 95       	lsr	r25
    4e6c:	87 95       	ror	r24
    4e6e:	97 f9       	bld	r25, 7
    4e70:	08 95       	ret
    4e72:	19 f4       	brne	.+6      	; 0x4e7a <__mulsf3_pse+0xb6>
    4e74:	16 f4       	brtc	.+4      	; 0x4e7a <__mulsf3_pse+0xb6>
    4e76:	0c 94 6c 26 	jmp	0x4cd8	; 0x4cd8 <__fp_nan>
    4e7a:	0c 94 7f 27 	jmp	0x4efe	; 0x4efe <__fp_mpack>

00004e7e <sqrt>:
    4e7e:	0e 94 a6 26 	call	0x4d4c	; 0x4d4c <__fp_splitA>
    4e82:	b8 f3       	brcs	.-18     	; 0x4e72 <__mulsf3_pse+0xae>
    4e84:	99 23       	and	r25, r25
    4e86:	c9 f3       	breq	.-14     	; 0x4e7a <__mulsf3_pse+0xb6>
    4e88:	b6 f3       	brts	.-20     	; 0x4e76 <__mulsf3_pse+0xb2>
    4e8a:	9f 57       	subi	r25, 0x7F	; 127
    4e8c:	55 0b       	sbc	r21, r21
    4e8e:	87 ff       	sbrs	r24, 7
sqrt():
    4e90:	0e 94 8d 27 	call	0x4f1a	; 0x4f1a <__fp_norm2>
    4e94:	00 24       	eor	r0, r0
    4e96:	a0 e6       	ldi	r26, 0x60	; 96
    4e98:	40 ea       	ldi	r20, 0xA0	; 160
    4e9a:	90 01       	movw	r18, r0
    4e9c:	80 58       	subi	r24, 0x80	; 128
    4e9e:	56 95       	lsr	r21
    4ea0:	97 95       	ror	r25
    4ea2:	28 f4       	brcc	.+10     	; 0x4eae <sqrt+0x30>
    4ea4:	80 5c       	subi	r24, 0xC0	; 192
    4ea6:	66 0f       	add	r22, r22
    4ea8:	77 1f       	adc	r23, r23
    4eaa:	88 1f       	adc	r24, r24
    4eac:	20 f0       	brcs	.+8      	; 0x4eb6 <sqrt+0x38>
    4eae:	26 17       	cp	r18, r22
    4eb0:	37 07       	cpc	r19, r23
    4eb2:	48 07       	cpc	r20, r24
    4eb4:	30 f4       	brcc	.+12     	; 0x4ec2 <sqrt+0x44>
    4eb6:	62 1b       	sub	r22, r18
    4eb8:	73 0b       	sbc	r23, r19
    4eba:	84 0b       	sbc	r24, r20
    4ebc:	20 29       	or	r18, r0
    4ebe:	31 29       	or	r19, r1
    4ec0:	4a 2b       	or	r20, r26
    4ec2:	a6 95       	lsr	r26
    4ec4:	17 94       	ror	r1
    4ec6:	07 94       	ror	r0
    4ec8:	20 25       	eor	r18, r0
    4eca:	31 25       	eor	r19, r1
    4ecc:	4a 27       	eor	r20, r26
    4ece:	58 f7       	brcc	.-42     	; 0x4ea6 <sqrt+0x28>
    4ed0:	66 0f       	add	r22, r22
    4ed2:	77 1f       	adc	r23, r23
    4ed4:	88 1f       	adc	r24, r24
    4ed6:	20 f0       	brcs	.+8      	; 0x4ee0 <sqrt+0x62>
    4ed8:	26 17       	cp	r18, r22
    4eda:	37 07       	cpc	r19, r23
    4edc:	48 07       	cpc	r20, r24
    4ede:	30 f4       	brcc	.+12     	; 0x4eec <sqrt+0x6e>
    4ee0:	62 0b       	sbc	r22, r18
    4ee2:	73 0b       	sbc	r23, r19
    4ee4:	84 0b       	sbc	r24, r20
    4ee6:	20 0d       	add	r18, r0
    4ee8:	31 1d       	adc	r19, r1
    4eea:	41 1d       	adc	r20, r1
    4eec:	a0 95       	com	r26
    4eee:	81 f7       	brne	.-32     	; 0x4ed0 <sqrt+0x52>
    4ef0:	b9 01       	movw	r22, r18
    4ef2:	84 2f       	mov	r24, r20
    4ef4:	91 58       	subi	r25, 0x81	; 129
    4ef6:	88 0f       	add	r24, r24
    4ef8:	96 95       	lsr	r25
    4efa:	87 95       	ror	r24
    4efc:	08 95       	ret

00004efe <__fp_mpack>:
    4efe:	9f 3f       	cpi	r25, 0xFF	; 255
    4f00:	31 f0       	breq	.+12     	; 0x4f0e <__fp_mpack_finite+0xc>

00004f02 <__fp_mpack_finite>:
    4f02:	91 50       	subi	r25, 0x01	; 1
    4f04:	20 f4       	brcc	.+8      	; 0x4f0e <__fp_mpack_finite+0xc>
    4f06:	87 95       	ror	r24
    4f08:	77 95       	ror	r23
__fp_mpack_finite():
    4f0a:	67 95       	ror	r22
    4f0c:	b7 95       	ror	r27
    4f0e:	88 0f       	add	r24, r24
    4f10:	91 1d       	adc	r25, r1
    4f12:	96 95       	lsr	r25
    4f14:	87 95       	ror	r24
    4f16:	97 f9       	bld	r25, 7
    4f18:	08 95       	ret

00004f1a <__fp_norm2>:
__fp_norm2():
    4f1a:	91 50       	subi	r25, 0x01	; 1
    4f1c:	50 40       	sbci	r21, 0x00	; 0
    4f1e:	66 0f       	add	r22, r22
    4f20:	77 1f       	adc	r23, r23
    4f22:	88 1f       	adc	r24, r24
    4f24:	d2 f7       	brpl	.-12     	; 0x4f1a <__fp_norm2>
    4f26:	08 95       	ret

00004f28 <__udivmodhi4>:
__udivmodhi4():
/home/jenkins-mingw32/workspace/avr-gcc-staging/label/Ubuntu14.04x64-mingw32/gcc-build/avr/avr6/libgcc/../../../../gcc/libgcc/config/avr/lib1funcs.S:1408
    4f28:	aa 1b       	sub	r26, r26
/home/jenkins-mingw32/workspace/avr-gcc-staging/label/Ubuntu14.04x64-mingw32/gcc-build/avr/avr6/libgcc/../../../../gcc/libgcc/config/avr/lib1funcs.S:1409
    4f2a:	bb 1b       	sub	r27, r27
/home/jenkins-mingw32/workspace/avr-gcc-staging/label/Ubuntu14.04x64-mingw32/gcc-build/avr/avr6/libgcc/../../../../gcc/libgcc/config/avr/lib1funcs.S:1410
    4f2c:	51 e1       	ldi	r21, 0x11	; 17
/home/jenkins-mingw32/workspace/avr-gcc-staging/label/Ubuntu14.04x64-mingw32/gcc-build/avr/avr6/libgcc/../../../../gcc/libgcc/config/avr/lib1funcs.S:1411
    4f2e:	07 c0       	rjmp	.+14     	; 0x4f3e <__udivmodhi4_ep>

00004f30 <__udivmodhi4_loop>:
/home/jenkins-mingw32/workspace/avr-gcc-staging/label/Ubuntu14.04x64-mingw32/gcc-build/avr/avr6/libgcc/../../../../gcc/libgcc/config/avr/lib1funcs.S:1413
    4f30:	aa 1f       	adc	r26, r26
/home/jenkins-mingw32/workspace/avr-gcc-staging/label/Ubuntu14.04x64-mingw32/gcc-build/avr/avr6/libgcc/../../../../gcc/libgcc/config/avr/lib1funcs.S:1414
    4f32:	bb 1f       	adc	r27, r27
/home/jenkins-mingw32/workspace/avr-gcc-staging/label/Ubuntu14.04x64-mingw32/gcc-build/avr/avr6/libgcc/../../../../gcc/libgcc/config/avr/lib1funcs.S:1415
    4f34:	a6 17       	cp	r26, r22
/home/jenkins-mingw32/workspace/avr-gcc-staging/label/Ubuntu14.04x64-mingw32/gcc-build/avr/avr6/libgcc/../../../../gcc/libgcc/config/avr/lib1funcs.S:1416
    4f36:	b7 07       	cpc	r27, r23
/home/jenkins-mingw32/workspace/avr-gcc-staging/label/Ubuntu14.04x64-mingw32/gcc-build/avr/avr6/libgcc/../../../../gcc/libgcc/config/avr/lib1funcs.S:1417
    4f38:	10 f0       	brcs	.+4      	; 0x4f3e <__udivmodhi4_ep>
/home/jenkins-mingw32/workspace/avr-gcc-staging/label/Ubuntu14.04x64-mingw32/gcc-build/avr/avr6/libgcc/../../../../gcc/libgcc/config/avr/lib1funcs.S:1418
    4f3a:	a6 1b       	sub	r26, r22
/home/jenkins-mingw32/workspace/avr-gcc-staging/label/Ubuntu14.04x64-mingw32/gcc-build/avr/avr6/libgcc/../../../../gcc/libgcc/config/avr/lib1funcs.S:1419
    4f3c:	b7 0b       	sbc	r27, r23

00004f3e <__udivmodhi4_ep>:
/home/jenkins-mingw32/workspace/avr-gcc-staging/label/Ubuntu14.04x64-mingw32/gcc-build/avr/avr6/libgcc/../../../../gcc/libgcc/config/avr/lib1funcs.S:1421
    4f3e:	88 1f       	adc	r24, r24
/home/jenkins-mingw32/workspace/avr-gcc-staging/label/Ubuntu14.04x64-mingw32/gcc-build/avr/avr6/libgcc/../../../../gcc/libgcc/config/avr/lib1funcs.S:1422
    4f40:	99 1f       	adc	r25, r25
/home/jenkins-mingw32/workspace/avr-gcc-staging/label/Ubuntu14.04x64-mingw32/gcc-build/avr/avr6/libgcc/../../../../gcc/libgcc/config/avr/lib1funcs.S:1423
    4f42:	5a 95       	dec	r21
/home/jenkins-mingw32/workspace/avr-gcc-staging/label/Ubuntu14.04x64-mingw32/gcc-build/avr/avr6/libgcc/../../../../gcc/libgcc/config/avr/lib1funcs.S:1424
    4f44:	a9 f7       	brne	.-22     	; 0x4f30 <__udivmodhi4_loop>
/home/jenkins-mingw32/workspace/avr-gcc-staging/label/Ubuntu14.04x64-mingw32/gcc-build/avr/avr6/libgcc/../../../../gcc/libgcc/config/avr/lib1funcs.S:1425
    4f46:	80 95       	com	r24
/home/jenkins-mingw32/workspace/avr-gcc-staging/label/Ubuntu14.04x64-mingw32/gcc-build/avr/avr6/libgcc/../../../../gcc/libgcc/config/avr/lib1funcs.S:1426
    4f48:	90 95       	com	r25
/home/jenkins-mingw32/workspace/avr-gcc-staging/label/Ubuntu14.04x64-mingw32/gcc-build/avr/avr6/libgcc/../../../../gcc/libgcc/config/avr/lib1funcs.S:1428
    4f4a:	bc 01       	movw	r22, r24
/home/jenkins-mingw32/workspace/avr-gcc-staging/label/Ubuntu14.04x64-mingw32/gcc-build/avr/avr6/libgcc/../../../../gcc/libgcc/config/avr/lib1funcs.S:1430
    4f4c:	cd 01       	movw	r24, r26
/home/jenkins-mingw32/workspace/avr-gcc-staging/label/Ubuntu14.04x64-mingw32/gcc-build/avr/avr6/libgcc/../../../../gcc/libgcc/config/avr/lib1funcs.S:1432
    4f4e:	08 95       	ret

00004f50 <__udivmodsi4>:
__udivmodsi4():
/home/jenkins-mingw32/workspace/avr-gcc-staging/label/Ubuntu14.04x64-mingw32/gcc-build/avr/avr6/libgcc/../../../../gcc/libgcc/config/avr/lib1funcs.S:1638
    4f50:	a1 e2       	ldi	r26, 0x21	; 33
/home/jenkins-mingw32/workspace/avr-gcc-staging/label/Ubuntu14.04x64-mingw32/gcc-build/avr/avr6/libgcc/../../../../gcc/libgcc/config/avr/lib1funcs.S:1639
    4f52:	1a 2e       	mov	r1, r26
/home/jenkins-mingw32/workspace/avr-gcc-staging/label/Ubuntu14.04x64-mingw32/gcc-build/avr/avr6/libgcc/../../../../gcc/libgcc/config/avr/lib1funcs.S:1640
    4f54:	aa 1b       	sub	r26, r26
/home/jenkins-mingw32/workspace/avr-gcc-staging/label/Ubuntu14.04x64-mingw32/gcc-build/avr/avr6/libgcc/../../../../gcc/libgcc/config/avr/lib1funcs.S:1641
    4f56:	bb 1b       	sub	r27, r27
/home/jenkins-mingw32/workspace/avr-gcc-staging/label/Ubuntu14.04x64-mingw32/gcc-build/avr/avr6/libgcc/../../../../gcc/libgcc/config/avr/lib1funcs.S:1642
    4f58:	fd 01       	movw	r30, r26
/home/jenkins-mingw32/workspace/avr-gcc-staging/label/Ubuntu14.04x64-mingw32/gcc-build/avr/avr6/libgcc/../../../../gcc/libgcc/config/avr/lib1funcs.S:1644
    4f5a:	0d c0       	rjmp	.+26     	; 0x4f76 <__udivmodsi4_ep>

00004f5c <__udivmodsi4_loop>:
/home/jenkins-mingw32/workspace/avr-gcc-staging/label/Ubuntu14.04x64-mingw32/gcc-build/avr/avr6/libgcc/../../../../gcc/libgcc/config/avr/lib1funcs.S:1646
    4f5c:	aa 1f       	adc	r26, r26
/home/jenkins-mingw32/workspace/avr-gcc-staging/label/Ubuntu14.04x64-mingw32/gcc-build/avr/avr6/libgcc/../../../../gcc/libgcc/config/avr/lib1funcs.S:1647
    4f5e:	bb 1f       	adc	r27, r27
/home/jenkins-mingw32/workspace/avr-gcc-staging/label/Ubuntu14.04x64-mingw32/gcc-build/avr/avr6/libgcc/../../../../gcc/libgcc/config/avr/lib1funcs.S:1648
    4f60:	ee 1f       	adc	r30, r30
/home/jenkins-mingw32/workspace/avr-gcc-staging/label/Ubuntu14.04x64-mingw32/gcc-build/avr/avr6/libgcc/../../../../gcc/libgcc/config/avr/lib1funcs.S:1649
    4f62:	ff 1f       	adc	r31, r31
/home/jenkins-mingw32/workspace/avr-gcc-staging/label/Ubuntu14.04x64-mingw32/gcc-build/avr/avr6/libgcc/../../../../gcc/libgcc/config/avr/lib1funcs.S:1650
    4f64:	a2 17       	cp	r26, r18
/home/jenkins-mingw32/workspace/avr-gcc-staging/label/Ubuntu14.04x64-mingw32/gcc-build/avr/avr6/libgcc/../../../../gcc/libgcc/config/avr/lib1funcs.S:1651
    4f66:	b3 07       	cpc	r27, r19
/home/jenkins-mingw32/workspace/avr-gcc-staging/label/Ubuntu14.04x64-mingw32/gcc-build/avr/avr6/libgcc/../../../../gcc/libgcc/config/avr/lib1funcs.S:1652
    4f68:	e4 07       	cpc	r30, r20
/home/jenkins-mingw32/workspace/avr-gcc-staging/label/Ubuntu14.04x64-mingw32/gcc-build/avr/avr6/libgcc/../../../../gcc/libgcc/config/avr/lib1funcs.S:1653
    4f6a:	f5 07       	cpc	r31, r21
/home/jenkins-mingw32/workspace/avr-gcc-staging/label/Ubuntu14.04x64-mingw32/gcc-build/avr/avr6/libgcc/../../../../gcc/libgcc/config/avr/lib1funcs.S:1654
    4f6c:	20 f0       	brcs	.+8      	; 0x4f76 <__udivmodsi4_ep>
/home/jenkins-mingw32/workspace/avr-gcc-staging/label/Ubuntu14.04x64-mingw32/gcc-build/avr/avr6/libgcc/../../../../gcc/libgcc/config/avr/lib1funcs.S:1655
    4f6e:	a2 1b       	sub	r26, r18
/home/jenkins-mingw32/workspace/avr-gcc-staging/label/Ubuntu14.04x64-mingw32/gcc-build/avr/avr6/libgcc/../../../../gcc/libgcc/config/avr/lib1funcs.S:1656
    4f70:	b3 0b       	sbc	r27, r19
/home/jenkins-mingw32/workspace/avr-gcc-staging/label/Ubuntu14.04x64-mingw32/gcc-build/avr/avr6/libgcc/../../../../gcc/libgcc/config/avr/lib1funcs.S:1657
    4f72:	e4 0b       	sbc	r30, r20
/home/jenkins-mingw32/workspace/avr-gcc-staging/label/Ubuntu14.04x64-mingw32/gcc-build/avr/avr6/libgcc/../../../../gcc/libgcc/config/avr/lib1funcs.S:1658
    4f74:	f5 0b       	sbc	r31, r21

00004f76 <__udivmodsi4_ep>:
/home/jenkins-mingw32/workspace/avr-gcc-staging/label/Ubuntu14.04x64-mingw32/gcc-build/avr/avr6/libgcc/../../../../gcc/libgcc/config/avr/lib1funcs.S:1660
    4f76:	66 1f       	adc	r22, r22
/home/jenkins-mingw32/workspace/avr-gcc-staging/label/Ubuntu14.04x64-mingw32/gcc-build/avr/avr6/libgcc/../../../../gcc/libgcc/config/avr/lib1funcs.S:1661
    4f78:	77 1f       	adc	r23, r23
/home/jenkins-mingw32/workspace/avr-gcc-staging/label/Ubuntu14.04x64-mingw32/gcc-build/avr/avr6/libgcc/../../../../gcc/libgcc/config/avr/lib1funcs.S:1662
    4f7a:	88 1f       	adc	r24, r24
/home/jenkins-mingw32/workspace/avr-gcc-staging/label/Ubuntu14.04x64-mingw32/gcc-build/avr/avr6/libgcc/../../../../gcc/libgcc/config/avr/lib1funcs.S:1663
    4f7c:	99 1f       	adc	r25, r25
/home/jenkins-mingw32/workspace/avr-gcc-staging/label/Ubuntu14.04x64-mingw32/gcc-build/avr/avr6/libgcc/../../../../gcc/libgcc/config/avr/lib1funcs.S:1664
    4f7e:	1a 94       	dec	r1
/home/jenkins-mingw32/workspace/avr-gcc-staging/label/Ubuntu14.04x64-mingw32/gcc-build/avr/avr6/libgcc/../../../../gcc/libgcc/config/avr/lib1funcs.S:1665
    4f80:	69 f7       	brne	.-38     	; 0x4f5c <__udivmodsi4_loop>
/home/jenkins-mingw32/workspace/avr-gcc-staging/label/Ubuntu14.04x64-mingw32/gcc-build/avr/avr6/libgcc/../../../../gcc/libgcc/config/avr/lib1funcs.S:1667
    4f82:	60 95       	com	r22
/home/jenkins-mingw32/workspace/avr-gcc-staging/label/Ubuntu14.04x64-mingw32/gcc-build/avr/avr6/libgcc/../../../../gcc/libgcc/config/avr/lib1funcs.S:1668
    4f84:	70 95       	com	r23
/home/jenkins-mingw32/workspace/avr-gcc-staging/label/Ubuntu14.04x64-mingw32/gcc-build/avr/avr6/libgcc/../../../../gcc/libgcc/config/avr/lib1funcs.S:1669
    4f86:	80 95       	com	r24
/home/jenkins-mingw32/workspace/avr-gcc-staging/label/Ubuntu14.04x64-mingw32/gcc-build/avr/avr6/libgcc/../../../../gcc/libgcc/config/avr/lib1funcs.S:1670
    4f88:	90 95       	com	r25
/home/jenkins-mingw32/workspace/avr-gcc-staging/label/Ubuntu14.04x64-mingw32/gcc-build/avr/avr6/libgcc/../../../../gcc/libgcc/config/avr/lib1funcs.S:1672
    4f8a:	9b 01       	movw	r18, r22
/home/jenkins-mingw32/workspace/avr-gcc-staging/label/Ubuntu14.04x64-mingw32/gcc-build/avr/avr6/libgcc/../../../../gcc/libgcc/config/avr/lib1funcs.S:1674
    4f8c:	ac 01       	movw	r20, r24
/home/jenkins-mingw32/workspace/avr-gcc-staging/label/Ubuntu14.04x64-mingw32/gcc-build/avr/avr6/libgcc/../../../../gcc/libgcc/config/avr/lib1funcs.S:1676
    4f8e:	bd 01       	movw	r22, r26
/home/jenkins-mingw32/workspace/avr-gcc-staging/label/Ubuntu14.04x64-mingw32/gcc-build/avr/avr6/libgcc/../../../../gcc/libgcc/config/avr/lib1funcs.S:1678
    4f90:	cf 01       	movw	r24, r30
/home/jenkins-mingw32/workspace/avr-gcc-staging/label/Ubuntu14.04x64-mingw32/gcc-build/avr/avr6/libgcc/../../../../gcc/libgcc/config/avr/lib1funcs.S:1680
    4f92:	08 95       	ret

00004f94 <__tablejump2__>:
__tablejump2__():
/home/jenkins-mingw32/workspace/avr-gcc-staging/label/Ubuntu14.04x64-mingw32/gcc-build/avr/avr6/libgcc/../../../../gcc/libgcc/config/avr/lib1funcs.S:2296
    4f94:	ee 0f       	add	r30, r30
/home/jenkins-mingw32/workspace/avr-gcc-staging/label/Ubuntu14.04x64-mingw32/gcc-build/avr/avr6/libgcc/../../../../gcc/libgcc/config/avr/lib1funcs.S:2297
    4f96:	ff 1f       	adc	r31, r31
/home/jenkins-mingw32/workspace/avr-gcc-staging/label/Ubuntu14.04x64-mingw32/gcc-build/avr/avr6/libgcc/../../../../gcc/libgcc/config/avr/lib1funcs.S:2300
    4f98:	88 1f       	adc	r24, r24
/home/jenkins-mingw32/workspace/avr-gcc-staging/label/Ubuntu14.04x64-mingw32/gcc-build/avr/avr6/libgcc/../../../../gcc/libgcc/config/avr/lib1funcs.S:2301
    4f9a:	8b bf       	out	0x3b, r24	; 59
/home/jenkins-mingw32/workspace/avr-gcc-staging/label/Ubuntu14.04x64-mingw32/gcc-build/avr/avr6/libgcc/../../../../gcc/libgcc/config/avr/lib1funcs.S:2312
    4f9c:	07 90       	elpm	r0, Z+
/home/jenkins-mingw32/workspace/avr-gcc-staging/label/Ubuntu14.04x64-mingw32/gcc-build/avr/avr6/libgcc/../../../../gcc/libgcc/config/avr/lib1funcs.S:2313
    4f9e:	f6 91       	elpm	r31, Z
/home/jenkins-mingw32/workspace/avr-gcc-staging/label/Ubuntu14.04x64-mingw32/gcc-build/avr/avr6/libgcc/../../../../gcc/libgcc/config/avr/lib1funcs.S:2314
    4fa0:	e0 2d       	mov	r30, r0
/home/jenkins-mingw32/workspace/avr-gcc-staging/label/Ubuntu14.04x64-mingw32/gcc-build/avr/avr6/libgcc/../../../../gcc/libgcc/config/avr/lib1funcs.S:2319
    4fa2:	19 94       	eijmp

00004fa4 <__moddi3>:
__moddi3():
/home/jenkins-mingw32/workspace/avr-gcc-staging/label/Ubuntu14.04x64-mingw32/gcc-build/avr/avr6/libgcc/../../../../gcc/libgcc/config/avr/lib1funcs.S:1964
    4fa4:	68 94       	set
/home/jenkins-mingw32/workspace/avr-gcc-staging/label/Ubuntu14.04x64-mingw32/gcc-build/avr/avr6/libgcc/../../../../gcc/libgcc/config/avr/lib1funcs.S:1965
    4fa6:	01 c0       	rjmp	.+2      	; 0x4faa <__divdi3_moddi3>

00004fa8 <__divdi3>:
__divdi3():
/home/jenkins-mingw32/workspace/avr-gcc-staging/label/Ubuntu14.04x64-mingw32/gcc-build/avr/avr6/libgcc/../../../../gcc/libgcc/config/avr/lib1funcs.S:1972
    4fa8:	e8 94       	clt

00004faa <__divdi3_moddi3>:
__divdi3_moddi3():
/home/jenkins-mingw32/workspace/avr-gcc-staging/label/Ubuntu14.04x64-mingw32/gcc-build/avr/avr6/libgcc/../../../../gcc/libgcc/config/avr/lib1funcs.S:1977
    4faa:	f9 2f       	mov	r31, r25
/home/jenkins-mingw32/workspace/avr-gcc-staging/label/Ubuntu14.04x64-mingw32/gcc-build/avr/avr6/libgcc/../../../../gcc/libgcc/config/avr/lib1funcs.S:1978
    4fac:	f1 2b       	or	r31, r17
/home/jenkins-mingw32/workspace/avr-gcc-staging/label/Ubuntu14.04x64-mingw32/gcc-build/avr/avr6/libgcc/../../../../gcc/libgcc/config/avr/lib1funcs.S:1979
    4fae:	12 f0       	brmi	.+4      	; 0x4fb4 <__divdi3_moddi3+0xa>
/home/jenkins-mingw32/workspace/avr-gcc-staging/label/Ubuntu14.04x64-mingw32/gcc-build/avr/avr6/libgcc/../../../../gcc/libgcc/config/avr/lib1funcs.S:1981
    4fb0:	0c 94 06 28 	jmp	0x500c	; 0x500c <__udivdi3_umoddi3>
/home/jenkins-mingw32/workspace/avr-gcc-staging/label/Ubuntu14.04x64-mingw32/gcc-build/avr/avr6/libgcc/../../../../gcc/libgcc/config/avr/lib1funcs.S:1987
    4fb4:	a0 e0       	ldi	r26, 0x00	; 0
    4fb6:	b0 e0       	ldi	r27, 0x00	; 0
    4fb8:	e0 ee       	ldi	r30, 0xE0	; 224
    4fba:	f7 e2       	ldi	r31, 0x27	; 39
    4fbc:	0c 94 78 28 	jmp	0x50f0	; 0x50f0 <__prologue_saves__+0xc>
/home/jenkins-mingw32/workspace/avr-gcc-staging/label/Ubuntu14.04x64-mingw32/gcc-build/avr/avr6/libgcc/../../../../gcc/libgcc/config/avr/lib1funcs.S:1991
    4fc0:	09 2e       	mov	r0, r25
/home/jenkins-mingw32/workspace/avr-gcc-staging/label/Ubuntu14.04x64-mingw32/gcc-build/avr/avr6/libgcc/../../../../gcc/libgcc/config/avr/lib1funcs.S:1992
    4fc2:	05 94       	asr	r0
/home/jenkins-mingw32/workspace/avr-gcc-staging/label/Ubuntu14.04x64-mingw32/gcc-build/avr/avr6/libgcc/../../../../gcc/libgcc/config/avr/lib1funcs.S:1997
    4fc4:	22 f4       	brpl	.+8      	; 0x4fce <__divdi3_moddi3+0x24>
/home/jenkins-mingw32/workspace/avr-gcc-staging/label/Ubuntu14.04x64-mingw32/gcc-build/avr/avr6/libgcc/../../../../gcc/libgcc/config/avr/lib1funcs.S:2002
    4fc6:	0e 94 62 28 	call	0x50c4	; 0x50c4 <__negdi2>
/home/jenkins-mingw32/workspace/avr-gcc-staging/label/Ubuntu14.04x64-mingw32/gcc-build/avr/avr6/libgcc/../../../../gcc/libgcc/config/avr/lib1funcs.S:2005
    4fca:	11 23       	and	r17, r17
/home/jenkins-mingw32/workspace/avr-gcc-staging/label/Ubuntu14.04x64-mingw32/gcc-build/avr/avr6/libgcc/../../../../gcc/libgcc/config/avr/lib1funcs.S:2006
    4fcc:	92 f4       	brpl	.+36     	; 0x4ff2 <__divdi3_moddi3+0x48>
/home/jenkins-mingw32/workspace/avr-gcc-staging/label/Ubuntu14.04x64-mingw32/gcc-build/avr/avr6/libgcc/../../../../gcc/libgcc/config/avr/lib1funcs.S:2007
    4fce:	f0 e8       	ldi	r31, 0x80	; 128
/home/jenkins-mingw32/workspace/avr-gcc-staging/label/Ubuntu14.04x64-mingw32/gcc-build/avr/avr6/libgcc/../../../../gcc/libgcc/config/avr/lib1funcs.S:2008
    4fd0:	0f 26       	eor	r0, r31
/home/jenkins-mingw32/workspace/avr-gcc-staging/label/Ubuntu14.04x64-mingw32/gcc-build/avr/avr6/libgcc/../../../../gcc/libgcc/config/avr/lib1funcs.S:2010
    4fd2:	ff ef       	ldi	r31, 0xFF	; 255
/home/jenkins-mingw32/workspace/avr-gcc-staging/label/Ubuntu14.04x64-mingw32/gcc-build/avr/avr6/libgcc/../../../../gcc/libgcc/config/avr/lib1funcs.S:2011
    4fd4:	e0 94       	com	r14
    4fd6:	f0 94       	com	r15
    4fd8:	00 95       	com	r16
    4fda:	10 95       	com	r17
/home/jenkins-mingw32/workspace/avr-gcc-staging/label/Ubuntu14.04x64-mingw32/gcc-build/avr/avr6/libgcc/../../../../gcc/libgcc/config/avr/lib1funcs.S:2012
    4fdc:	b0 94       	com	r11
    4fde:	c0 94       	com	r12
    4fe0:	d0 94       	com	r13
/home/jenkins-mingw32/workspace/avr-gcc-staging/label/Ubuntu14.04x64-mingw32/gcc-build/avr/avr6/libgcc/../../../../gcc/libgcc/config/avr/lib1funcs.S:2013
    4fe2:	a1 94       	neg	r10
/home/jenkins-mingw32/workspace/avr-gcc-staging/label/Ubuntu14.04x64-mingw32/gcc-build/avr/avr6/libgcc/../../../../gcc/libgcc/config/avr/lib1funcs.S:2014
    4fe4:	bf 0a       	sbc	r11, r31
    4fe6:	cf 0a       	sbc	r12, r31
    4fe8:	df 0a       	sbc	r13, r31
/home/jenkins-mingw32/workspace/avr-gcc-staging/label/Ubuntu14.04x64-mingw32/gcc-build/avr/avr6/libgcc/../../../../gcc/libgcc/config/avr/lib1funcs.S:2015
    4fea:	ef 0a       	sbc	r14, r31
    4fec:	ff 0a       	sbc	r15, r31
    4fee:	0f 0b       	sbc	r16, r31
    4ff0:	1f 0b       	sbc	r17, r31
/home/jenkins-mingw32/workspace/avr-gcc-staging/label/Ubuntu14.04x64-mingw32/gcc-build/avr/avr6/libgcc/../../../../gcc/libgcc/config/avr/lib1funcs.S:2018
    4ff2:	0e 94 11 28 	call	0x5022	; 0x5022 <__udivmod64>
/home/jenkins-mingw32/workspace/avr-gcc-staging/label/Ubuntu14.04x64-mingw32/gcc-build/avr/avr6/libgcc/../../../../gcc/libgcc/config/avr/lib1funcs.S:2025
    4ff6:	07 fc       	sbrc	r0, 7
/home/jenkins-mingw32/workspace/avr-gcc-staging/label/Ubuntu14.04x64-mingw32/gcc-build/avr/avr6/libgcc/../../../../gcc/libgcc/config/avr/lib1funcs.S:2027
    4ff8:	0e 94 62 28 	call	0x50c4	; 0x50c4 <__negdi2>
/home/jenkins-mingw32/workspace/avr-gcc-staging/label/Ubuntu14.04x64-mingw32/gcc-build/avr/avr6/libgcc/../../../../gcc/libgcc/config/avr/lib1funcs.S:2030
    4ffc:	cd b7       	in	r28, 0x3d	; 61
    4ffe:	de b7       	in	r29, 0x3e	; 62
    5000:	ec e0       	ldi	r30, 0x0C	; 12
    5002:	0c 94 94 28 	jmp	0x5128	; 0x5128 <__epilogue_restores__+0xc>

00005006 <__umoddi3>:
__umoddi3():
/home/jenkins-mingw32/workspace/avr-gcc-staging/label/Ubuntu14.04x64-mingw32/gcc-build/avr/avr6/libgcc/../../../../gcc/libgcc/config/avr/lib1funcs.S:1806
    5006:	68 94       	set
/home/jenkins-mingw32/workspace/avr-gcc-staging/label/Ubuntu14.04x64-mingw32/gcc-build/avr/avr6/libgcc/../../../../gcc/libgcc/config/avr/lib1funcs.S:1807
    5008:	01 c0       	rjmp	.+2      	; 0x500c <__udivdi3_umoddi3>

0000500a <__udivdi3>:
__udivdi3():
/home/jenkins-mingw32/workspace/avr-gcc-staging/label/Ubuntu14.04x64-mingw32/gcc-build/avr/avr6/libgcc/../../../../gcc/libgcc/config/avr/lib1funcs.S:1814
    500a:	e8 94       	clt

0000500c <__udivdi3_umoddi3>:
__udivdi3_umoddi3():
/home/jenkins-mingw32/workspace/avr-gcc-staging/label/Ubuntu14.04x64-mingw32/gcc-build/avr/avr6/libgcc/../../../../gcc/libgcc/config/avr/lib1funcs.S:1818
    500c:	8f 92       	push	r8
/home/jenkins-mingw32/workspace/avr-gcc-staging/label/Ubuntu14.04x64-mingw32/gcc-build/avr/avr6/libgcc/../../../../gcc/libgcc/config/avr/lib1funcs.S:1819
    500e:	9f 92       	push	r9
/home/jenkins-mingw32/workspace/avr-gcc-staging/label/Ubuntu14.04x64-mingw32/gcc-build/avr/avr6/libgcc/../../../../gcc/libgcc/config/avr/lib1funcs.S:1820
    5010:	cf 93       	push	r28
/home/jenkins-mingw32/workspace/avr-gcc-staging/label/Ubuntu14.04x64-mingw32/gcc-build/avr/avr6/libgcc/../../../../gcc/libgcc/config/avr/lib1funcs.S:1821
    5012:	df 93       	push	r29
/home/jenkins-mingw32/workspace/avr-gcc-staging/label/Ubuntu14.04x64-mingw32/gcc-build/avr/avr6/libgcc/../../../../gcc/libgcc/config/avr/lib1funcs.S:1822
    5014:	0e 94 11 28 	call	0x5022	; 0x5022 <__udivmod64>
/home/jenkins-mingw32/workspace/avr-gcc-staging/label/Ubuntu14.04x64-mingw32/gcc-build/avr/avr6/libgcc/../../../../gcc/libgcc/config/avr/lib1funcs.S:1823
    5018:	df 91       	pop	r29
/home/jenkins-mingw32/workspace/avr-gcc-staging/label/Ubuntu14.04x64-mingw32/gcc-build/avr/avr6/libgcc/../../../../gcc/libgcc/config/avr/lib1funcs.S:1824
    501a:	cf 91       	pop	r28
/home/jenkins-mingw32/workspace/avr-gcc-staging/label/Ubuntu14.04x64-mingw32/gcc-build/avr/avr6/libgcc/../../../../gcc/libgcc/config/avr/lib1funcs.S:1825
    501c:	9f 90       	pop	r9
/home/jenkins-mingw32/workspace/avr-gcc-staging/label/Ubuntu14.04x64-mingw32/gcc-build/avr/avr6/libgcc/../../../../gcc/libgcc/config/avr/lib1funcs.S:1826
    501e:	8f 90       	pop	r8
/home/jenkins-mingw32/workspace/avr-gcc-staging/label/Ubuntu14.04x64-mingw32/gcc-build/avr/avr6/libgcc/../../../../gcc/libgcc/config/avr/lib1funcs.S:1827
    5020:	08 95       	ret

00005022 <__udivmod64>:
__udivmod64():
/home/jenkins-mingw32/workspace/avr-gcc-staging/label/Ubuntu14.04x64-mingw32/gcc-build/avr/avr6/libgcc/../../../../gcc/libgcc/config/avr/lib1funcs.S:1842
    5022:	88 24       	eor	r8, r8
/home/jenkins-mingw32/workspace/avr-gcc-staging/label/Ubuntu14.04x64-mingw32/gcc-build/avr/avr6/libgcc/../../../../gcc/libgcc/config/avr/lib1funcs.S:1843
    5024:	99 24       	eor	r9, r9
/home/jenkins-mingw32/workspace/avr-gcc-staging/label/Ubuntu14.04x64-mingw32/gcc-build/avr/avr6/libgcc/../../../../gcc/libgcc/config/avr/lib1funcs.S:1844
    5026:	f4 01       	movw	r30, r8
/home/jenkins-mingw32/workspace/avr-gcc-staging/label/Ubuntu14.04x64-mingw32/gcc-build/avr/avr6/libgcc/../../../../gcc/libgcc/config/avr/lib1funcs.S:1845
    5028:	e4 01       	movw	r28, r8
/home/jenkins-mingw32/workspace/avr-gcc-staging/label/Ubuntu14.04x64-mingw32/gcc-build/avr/avr6/libgcc/../../../../gcc/libgcc/config/avr/lib1funcs.S:1846
    502a:	b0 e4       	ldi	r27, 0x40	; 64
/home/jenkins-mingw32/workspace/avr-gcc-staging/label/Ubuntu14.04x64-mingw32/gcc-build/avr/avr6/libgcc/../../../../gcc/libgcc/config/avr/lib1funcs.S:1856
    502c:	9f 93       	push	r25
/home/jenkins-mingw32/workspace/avr-gcc-staging/label/Ubuntu14.04x64-mingw32/gcc-build/avr/avr6/libgcc/../../../../gcc/libgcc/config/avr/lib1funcs.S:1857
    502e:	aa 27       	eor	r26, r26
/home/jenkins-mingw32/workspace/avr-gcc-staging/label/Ubuntu14.04x64-mingw32/gcc-build/avr/avr6/libgcc/../../../../gcc/libgcc/config/avr/lib1funcs.S:1861
    5030:	9a 15       	cp	r25, r10
    5032:	8b 04       	cpc	r8, r11
    5034:	9c 04       	cpc	r9, r12
    5036:	ed 05       	cpc	r30, r13
/home/jenkins-mingw32/workspace/avr-gcc-staging/label/Ubuntu14.04x64-mingw32/gcc-build/avr/avr6/libgcc/../../../../gcc/libgcc/config/avr/lib1funcs.S:1862
    5038:	fe 05       	cpc	r31, r14
    503a:	cf 05       	cpc	r28, r15
    503c:	d0 07       	cpc	r29, r16
    503e:	a1 07       	cpc	r26, r17
/home/jenkins-mingw32/workspace/avr-gcc-staging/label/Ubuntu14.04x64-mingw32/gcc-build/avr/avr6/libgcc/../../../../gcc/libgcc/config/avr/lib1funcs.S:1863
    5040:	98 f4       	brcc	.+38     	; 0x5068 <__udivmod64+0x46>
/home/jenkins-mingw32/workspace/avr-gcc-staging/label/Ubuntu14.04x64-mingw32/gcc-build/avr/avr6/libgcc/../../../../gcc/libgcc/config/avr/lib1funcs.S:1866
    5042:	ad 2f       	mov	r26, r29
    5044:	dc 2f       	mov	r29, r28
    5046:	cf 2f       	mov	r28, r31
/home/jenkins-mingw32/workspace/avr-gcc-staging/label/Ubuntu14.04x64-mingw32/gcc-build/avr/avr6/libgcc/../../../../gcc/libgcc/config/avr/lib1funcs.S:1867
    5048:	fe 2f       	mov	r31, r30
    504a:	e9 2d       	mov	r30, r9
    504c:	98 2c       	mov	r9, r8
    504e:	89 2e       	mov	r8, r25
/home/jenkins-mingw32/workspace/avr-gcc-staging/label/Ubuntu14.04x64-mingw32/gcc-build/avr/avr6/libgcc/../../../../gcc/libgcc/config/avr/lib1funcs.S:1868
    5050:	98 2f       	mov	r25, r24
    5052:	87 2f       	mov	r24, r23
    5054:	76 2f       	mov	r23, r22
    5056:	65 2f       	mov	r22, r21
/home/jenkins-mingw32/workspace/avr-gcc-staging/label/Ubuntu14.04x64-mingw32/gcc-build/avr/avr6/libgcc/../../../../gcc/libgcc/config/avr/lib1funcs.S:1869
    5058:	54 2f       	mov	r21, r20
    505a:	43 2f       	mov	r20, r19
    505c:	32 2f       	mov	r19, r18
    505e:	22 27       	eor	r18, r18
/home/jenkins-mingw32/workspace/avr-gcc-staging/label/Ubuntu14.04x64-mingw32/gcc-build/avr/avr6/libgcc/../../../../gcc/libgcc/config/avr/lib1funcs.S:1872
    5060:	b8 50       	subi	r27, 0x08	; 8
/home/jenkins-mingw32/workspace/avr-gcc-staging/label/Ubuntu14.04x64-mingw32/gcc-build/avr/avr6/libgcc/../../../../gcc/libgcc/config/avr/lib1funcs.S:1873
    5062:	31 f7       	brne	.-52     	; 0x5030 <__udivmod64+0xe>
/home/jenkins-mingw32/workspace/avr-gcc-staging/label/Ubuntu14.04x64-mingw32/gcc-build/avr/avr6/libgcc/../../../../gcc/libgcc/config/avr/lib1funcs.S:1876
    5064:	bf 91       	pop	r27
/home/jenkins-mingw32/workspace/avr-gcc-staging/label/Ubuntu14.04x64-mingw32/gcc-build/avr/avr6/libgcc/../../../../gcc/libgcc/config/avr/lib1funcs.S:1881
    5066:	27 c0       	rjmp	.+78     	; 0x50b6 <__udivmod64+0x94>
/home/jenkins-mingw32/workspace/avr-gcc-staging/label/Ubuntu14.04x64-mingw32/gcc-build/avr/avr6/libgcc/../../../../gcc/libgcc/config/avr/lib1funcs.S:1884
    5068:	1b 2e       	mov	r1, r27
/home/jenkins-mingw32/workspace/avr-gcc-staging/label/Ubuntu14.04x64-mingw32/gcc-build/avr/avr6/libgcc/../../../../gcc/libgcc/config/avr/lib1funcs.S:1887
    506a:	bf 91       	pop	r27
/home/jenkins-mingw32/workspace/avr-gcc-staging/label/Ubuntu14.04x64-mingw32/gcc-build/avr/avr6/libgcc/../../../../gcc/libgcc/config/avr/lib1funcs.S:1888
    506c:	bb 27       	eor	r27, r27
/home/jenkins-mingw32/workspace/avr-gcc-staging/label/Ubuntu14.04x64-mingw32/gcc-build/avr/avr6/libgcc/../../../../gcc/libgcc/config/avr/lib1funcs.S:1916
    506e:	22 0f       	add	r18, r18
    5070:	33 1f       	adc	r19, r19
    5072:	44 1f       	adc	r20, r20
    5074:	55 1f       	adc	r21, r21
/home/jenkins-mingw32/workspace/avr-gcc-staging/label/Ubuntu14.04x64-mingw32/gcc-build/avr/avr6/libgcc/../../../../gcc/libgcc/config/avr/lib1funcs.S:1917
    5076:	66 1f       	adc	r22, r22
    5078:	77 1f       	adc	r23, r23
    507a:	88 1f       	adc	r24, r24
    507c:	99 1f       	adc	r25, r25
/home/jenkins-mingw32/workspace/avr-gcc-staging/label/Ubuntu14.04x64-mingw32/gcc-build/avr/avr6/libgcc/../../../../gcc/libgcc/config/avr/lib1funcs.S:1920
    507e:	88 1c       	adc	r8, r8
    5080:	99 1c       	adc	r9, r9
    5082:	ee 1f       	adc	r30, r30
    5084:	ff 1f       	adc	r31, r31
/home/jenkins-mingw32/workspace/avr-gcc-staging/label/Ubuntu14.04x64-mingw32/gcc-build/avr/avr6/libgcc/../../../../gcc/libgcc/config/avr/lib1funcs.S:1921
    5086:	cc 1f       	adc	r28, r28
    5088:	dd 1f       	adc	r29, r29
    508a:	aa 1f       	adc	r26, r26
    508c:	bb 1f       	adc	r27, r27
/home/jenkins-mingw32/workspace/avr-gcc-staging/label/Ubuntu14.04x64-mingw32/gcc-build/avr/avr6/libgcc/../../../../gcc/libgcc/config/avr/lib1funcs.S:1924
    508e:	8a 14       	cp	r8, r10
    5090:	9b 04       	cpc	r9, r11
    5092:	ec 05       	cpc	r30, r12
    5094:	fd 05       	cpc	r31, r13
/home/jenkins-mingw32/workspace/avr-gcc-staging/label/Ubuntu14.04x64-mingw32/gcc-build/avr/avr6/libgcc/../../../../gcc/libgcc/config/avr/lib1funcs.S:1925
    5096:	ce 05       	cpc	r28, r14
    5098:	df 05       	cpc	r29, r15
    509a:	a0 07       	cpc	r26, r16
    509c:	b1 07       	cpc	r27, r17
/home/jenkins-mingw32/workspace/avr-gcc-staging/label/Ubuntu14.04x64-mingw32/gcc-build/avr/avr6/libgcc/../../../../gcc/libgcc/config/avr/lib1funcs.S:1927
    509e:	48 f0       	brcs	.+18     	; 0x50b2 <__udivmod64+0x90>
/home/jenkins-mingw32/workspace/avr-gcc-staging/label/Ubuntu14.04x64-mingw32/gcc-build/avr/avr6/libgcc/../../../../gcc/libgcc/config/avr/lib1funcs.S:1930
    50a0:	8a 18       	sub	r8, r10
    50a2:	9b 08       	sbc	r9, r11
    50a4:	ec 09       	sbc	r30, r12
    50a6:	fd 09       	sbc	r31, r13
/home/jenkins-mingw32/workspace/avr-gcc-staging/label/Ubuntu14.04x64-mingw32/gcc-build/avr/avr6/libgcc/../../../../gcc/libgcc/config/avr/lib1funcs.S:1931
    50a8:	ce 09       	sbc	r28, r14
    50aa:	df 09       	sbc	r29, r15
    50ac:	a0 0b       	sbc	r26, r16
    50ae:	b1 0b       	sbc	r27, r17
/home/jenkins-mingw32/workspace/avr-gcc-staging/label/Ubuntu14.04x64-mingw32/gcc-build/avr/avr6/libgcc/../../../../gcc/libgcc/config/avr/lib1funcs.S:1935
    50b0:	21 60       	ori	r18, 0x01	; 1
/home/jenkins-mingw32/workspace/avr-gcc-staging/label/Ubuntu14.04x64-mingw32/gcc-build/avr/avr6/libgcc/../../../../gcc/libgcc/config/avr/lib1funcs.S:1938
    50b2:	1a 94       	dec	r1
/home/jenkins-mingw32/workspace/avr-gcc-staging/label/Ubuntu14.04x64-mingw32/gcc-build/avr/avr6/libgcc/../../../../gcc/libgcc/config/avr/lib1funcs.S:1939
    50b4:	e1 f6       	brne	.-72     	; 0x506e <__udivmod64+0x4c>
/home/jenkins-mingw32/workspace/avr-gcc-staging/label/Ubuntu14.04x64-mingw32/gcc-build/avr/avr6/libgcc/../../../../gcc/libgcc/config/avr/lib1funcs.S:1944
    50b6:	2e f4       	brtc	.+10     	; 0x50c2 <__udivmod64+0xa0>
/home/jenkins-mingw32/workspace/avr-gcc-staging/label/Ubuntu14.04x64-mingw32/gcc-build/avr/avr6/libgcc/../../../../gcc/libgcc/config/avr/lib1funcs.S:1945
    50b8:	94 01       	movw	r18, r8
/home/jenkins-mingw32/workspace/avr-gcc-staging/label/Ubuntu14.04x64-mingw32/gcc-build/avr/avr6/libgcc/../../../../gcc/libgcc/config/avr/lib1funcs.S:1946
    50ba:	af 01       	movw	r20, r30
/home/jenkins-mingw32/workspace/avr-gcc-staging/label/Ubuntu14.04x64-mingw32/gcc-build/avr/avr6/libgcc/../../../../gcc/libgcc/config/avr/lib1funcs.S:1947
    50bc:	be 01       	movw	r22, r28
/home/jenkins-mingw32/workspace/avr-gcc-staging/label/Ubuntu14.04x64-mingw32/gcc-build/avr/avr6/libgcc/../../../../gcc/libgcc/config/avr/lib1funcs.S:1948
    50be:	cd 01       	movw	r24, r26
/home/jenkins-mingw32/workspace/avr-gcc-staging/label/Ubuntu14.04x64-mingw32/gcc-build/avr/avr6/libgcc/../../../../gcc/libgcc/config/avr/lib1funcs.S:1950
    50c0:	00 0c       	add	r0, r0
/home/jenkins-mingw32/workspace/avr-gcc-staging/label/Ubuntu14.04x64-mingw32/gcc-build/avr/avr6/libgcc/../../../../gcc/libgcc/config/avr/lib1funcs.S:1952
    50c2:	08 95       	ret

000050c4 <__negdi2>:
__negdi2():
/home/jenkins-mingw32/workspace/avr-gcc-staging/label/Ubuntu14.04x64-mingw32/gcc-build/avr/avr6/libgcc/../../../../gcc/libgcc/config/avr/lib1funcs.S:2117
    50c4:	60 95       	com	r22
    50c6:	70 95       	com	r23
    50c8:	80 95       	com	r24
    50ca:	90 95       	com	r25
/home/jenkins-mingw32/workspace/avr-gcc-staging/label/Ubuntu14.04x64-mingw32/gcc-build/avr/avr6/libgcc/../../../../gcc/libgcc/config/avr/lib1funcs.S:2118
    50cc:	30 95       	com	r19
    50ce:	40 95       	com	r20
    50d0:	50 95       	com	r21
/home/jenkins-mingw32/workspace/avr-gcc-staging/label/Ubuntu14.04x64-mingw32/gcc-build/avr/avr6/libgcc/../../../../gcc/libgcc/config/avr/lib1funcs.S:2119
    50d2:	21 95       	neg	r18
/home/jenkins-mingw32/workspace/avr-gcc-staging/label/Ubuntu14.04x64-mingw32/gcc-build/avr/avr6/libgcc/../../../../gcc/libgcc/config/avr/lib1funcs.S:2120
    50d4:	3f 4f       	sbci	r19, 0xFF	; 255
    50d6:	4f 4f       	sbci	r20, 0xFF	; 255
    50d8:	5f 4f       	sbci	r21, 0xFF	; 255
/home/jenkins-mingw32/workspace/avr-gcc-staging/label/Ubuntu14.04x64-mingw32/gcc-build/avr/avr6/libgcc/../../../../gcc/libgcc/config/avr/lib1funcs.S:2121
    50da:	6f 4f       	sbci	r22, 0xFF	; 255
    50dc:	7f 4f       	sbci	r23, 0xFF	; 255
    50de:	8f 4f       	sbci	r24, 0xFF	; 255
    50e0:	9f 4f       	sbci	r25, 0xFF	; 255
/home/jenkins-mingw32/workspace/avr-gcc-staging/label/Ubuntu14.04x64-mingw32/gcc-build/avr/avr6/libgcc/../../../../gcc/libgcc/config/avr/lib1funcs.S:2122
    50e2:	08 95       	ret

000050e4 <__prologue_saves__>:
__prologue_saves__():
/home/jenkins-mingw32/workspace/avr-gcc-staging/label/Ubuntu14.04x64-mingw32/gcc-build/avr/avr6/libgcc/../../../../gcc/libgcc/config/avr/lib1funcs.S:2169
    50e4:	2f 92       	push	r2
/home/jenkins-mingw32/workspace/avr-gcc-staging/label/Ubuntu14.04x64-mingw32/gcc-build/avr/avr6/libgcc/../../../../gcc/libgcc/config/avr/lib1funcs.S:2170
    50e6:	3f 92       	push	r3
/home/jenkins-mingw32/workspace/avr-gcc-staging/label/Ubuntu14.04x64-mingw32/gcc-build/avr/avr6/libgcc/../../../../gcc/libgcc/config/avr/lib1funcs.S:2171
    50e8:	4f 92       	push	r4
/home/jenkins-mingw32/workspace/avr-gcc-staging/label/Ubuntu14.04x64-mingw32/gcc-build/avr/avr6/libgcc/../../../../gcc/libgcc/config/avr/lib1funcs.S:2172
    50ea:	5f 92       	push	r5
/home/jenkins-mingw32/workspace/avr-gcc-staging/label/Ubuntu14.04x64-mingw32/gcc-build/avr/avr6/libgcc/../../../../gcc/libgcc/config/avr/lib1funcs.S:2173
    50ec:	6f 92       	push	r6
/home/jenkins-mingw32/workspace/avr-gcc-staging/label/Ubuntu14.04x64-mingw32/gcc-build/avr/avr6/libgcc/../../../../gcc/libgcc/config/avr/lib1funcs.S:2174
    50ee:	7f 92       	push	r7
/home/jenkins-mingw32/workspace/avr-gcc-staging/label/Ubuntu14.04x64-mingw32/gcc-build/avr/avr6/libgcc/../../../../gcc/libgcc/config/avr/lib1funcs.S:2175
    50f0:	8f 92       	push	r8
/home/jenkins-mingw32/workspace/avr-gcc-staging/label/Ubuntu14.04x64-mingw32/gcc-build/avr/avr6/libgcc/../../../../gcc/libgcc/config/avr/lib1funcs.S:2176
    50f2:	9f 92       	push	r9
/home/jenkins-mingw32/workspace/avr-gcc-staging/label/Ubuntu14.04x64-mingw32/gcc-build/avr/avr6/libgcc/../../../../gcc/libgcc/config/avr/lib1funcs.S:2177
    50f4:	af 92       	push	r10
/home/jenkins-mingw32/workspace/avr-gcc-staging/label/Ubuntu14.04x64-mingw32/gcc-build/avr/avr6/libgcc/../../../../gcc/libgcc/config/avr/lib1funcs.S:2178
    50f6:	bf 92       	push	r11
/home/jenkins-mingw32/workspace/avr-gcc-staging/label/Ubuntu14.04x64-mingw32/gcc-build/avr/avr6/libgcc/../../../../gcc/libgcc/config/avr/lib1funcs.S:2179
    50f8:	cf 92       	push	r12
/home/jenkins-mingw32/workspace/avr-gcc-staging/label/Ubuntu14.04x64-mingw32/gcc-build/avr/avr6/libgcc/../../../../gcc/libgcc/config/avr/lib1funcs.S:2180
    50fa:	df 92       	push	r13
/home/jenkins-mingw32/workspace/avr-gcc-staging/label/Ubuntu14.04x64-mingw32/gcc-build/avr/avr6/libgcc/../../../../gcc/libgcc/config/avr/lib1funcs.S:2181
    50fc:	ef 92       	push	r14
/home/jenkins-mingw32/workspace/avr-gcc-staging/label/Ubuntu14.04x64-mingw32/gcc-build/avr/avr6/libgcc/../../../../gcc/libgcc/config/avr/lib1funcs.S:2182
    50fe:	ff 92       	push	r15
/home/jenkins-mingw32/workspace/avr-gcc-staging/label/Ubuntu14.04x64-mingw32/gcc-build/avr/avr6/libgcc/../../../../gcc/libgcc/config/avr/lib1funcs.S:2183
    5100:	0f 93       	push	r16
/home/jenkins-mingw32/workspace/avr-gcc-staging/label/Ubuntu14.04x64-mingw32/gcc-build/avr/avr6/libgcc/../../../../gcc/libgcc/config/avr/lib1funcs.S:2184
    5102:	1f 93       	push	r17
/home/jenkins-mingw32/workspace/avr-gcc-staging/label/Ubuntu14.04x64-mingw32/gcc-build/avr/avr6/libgcc/../../../../gcc/libgcc/config/avr/lib1funcs.S:2185
    5104:	cf 93       	push	r28
/home/jenkins-mingw32/workspace/avr-gcc-staging/label/Ubuntu14.04x64-mingw32/gcc-build/avr/avr6/libgcc/../../../../gcc/libgcc/config/avr/lib1funcs.S:2186
    5106:	df 93       	push	r29
/home/jenkins-mingw32/workspace/avr-gcc-staging/label/Ubuntu14.04x64-mingw32/gcc-build/avr/avr6/libgcc/../../../../gcc/libgcc/config/avr/lib1funcs.S:2200
    5108:	cd b7       	in	r28, 0x3d	; 61
/home/jenkins-mingw32/workspace/avr-gcc-staging/label/Ubuntu14.04x64-mingw32/gcc-build/avr/avr6/libgcc/../../../../gcc/libgcc/config/avr/lib1funcs.S:2201
    510a:	de b7       	in	r29, 0x3e	; 62
/home/jenkins-mingw32/workspace/avr-gcc-staging/label/Ubuntu14.04x64-mingw32/gcc-build/avr/avr6/libgcc/../../../../gcc/libgcc/config/avr/lib1funcs.S:2202
    510c:	ca 1b       	sub	r28, r26
/home/jenkins-mingw32/workspace/avr-gcc-staging/label/Ubuntu14.04x64-mingw32/gcc-build/avr/avr6/libgcc/../../../../gcc/libgcc/config/avr/lib1funcs.S:2203
    510e:	db 0b       	sbc	r29, r27
/home/jenkins-mingw32/workspace/avr-gcc-staging/label/Ubuntu14.04x64-mingw32/gcc-build/avr/avr6/libgcc/../../../../gcc/libgcc/config/avr/lib1funcs.S:2204
    5110:	0f b6       	in	r0, 0x3f	; 63
/home/jenkins-mingw32/workspace/avr-gcc-staging/label/Ubuntu14.04x64-mingw32/gcc-build/avr/avr6/libgcc/../../../../gcc/libgcc/config/avr/lib1funcs.S:2205
    5112:	f8 94       	cli
/home/jenkins-mingw32/workspace/avr-gcc-staging/label/Ubuntu14.04x64-mingw32/gcc-build/avr/avr6/libgcc/../../../../gcc/libgcc/config/avr/lib1funcs.S:2206
    5114:	de bf       	out	0x3e, r29	; 62
/home/jenkins-mingw32/workspace/avr-gcc-staging/label/Ubuntu14.04x64-mingw32/gcc-build/avr/avr6/libgcc/../../../../gcc/libgcc/config/avr/lib1funcs.S:2207
    5116:	0f be       	out	0x3f, r0	; 63
/home/jenkins-mingw32/workspace/avr-gcc-staging/label/Ubuntu14.04x64-mingw32/gcc-build/avr/avr6/libgcc/../../../../gcc/libgcc/config/avr/lib1funcs.S:2208
    5118:	cd bf       	out	0x3d, r28	; 61
/home/jenkins-mingw32/workspace/avr-gcc-staging/label/Ubuntu14.04x64-mingw32/gcc-build/avr/avr6/libgcc/../../../../gcc/libgcc/config/avr/lib1funcs.S:2211
    511a:	19 94       	eijmp

0000511c <__epilogue_restores__>:
__epilogue_restores__():
/home/jenkins-mingw32/workspace/avr-gcc-staging/label/Ubuntu14.04x64-mingw32/gcc-build/avr/avr6/libgcc/../../../../gcc/libgcc/config/avr/lib1funcs.S:2222
    511c:	2a 88       	ldd	r2, Y+18	; 0x12
/home/jenkins-mingw32/workspace/avr-gcc-staging/label/Ubuntu14.04x64-mingw32/gcc-build/avr/avr6/libgcc/../../../../gcc/libgcc/config/avr/lib1funcs.S:2223
    511e:	39 88       	ldd	r3, Y+17	; 0x11
/home/jenkins-mingw32/workspace/avr-gcc-staging/label/Ubuntu14.04x64-mingw32/gcc-build/avr/avr6/libgcc/../../../../gcc/libgcc/config/avr/lib1funcs.S:2224
    5120:	48 88       	ldd	r4, Y+16	; 0x10
/home/jenkins-mingw32/workspace/avr-gcc-staging/label/Ubuntu14.04x64-mingw32/gcc-build/avr/avr6/libgcc/../../../../gcc/libgcc/config/avr/lib1funcs.S:2225
    5122:	5f 84       	ldd	r5, Y+15	; 0x0f
/home/jenkins-mingw32/workspace/avr-gcc-staging/label/Ubuntu14.04x64-mingw32/gcc-build/avr/avr6/libgcc/../../../../gcc/libgcc/config/avr/lib1funcs.S:2226
    5124:	6e 84       	ldd	r6, Y+14	; 0x0e
/home/jenkins-mingw32/workspace/avr-gcc-staging/label/Ubuntu14.04x64-mingw32/gcc-build/avr/avr6/libgcc/../../../../gcc/libgcc/config/avr/lib1funcs.S:2227
    5126:	7d 84       	ldd	r7, Y+13	; 0x0d
/home/jenkins-mingw32/workspace/avr-gcc-staging/label/Ubuntu14.04x64-mingw32/gcc-build/avr/avr6/libgcc/../../../../gcc/libgcc/config/avr/lib1funcs.S:2228
    5128:	8c 84       	ldd	r8, Y+12	; 0x0c
/home/jenkins-mingw32/workspace/avr-gcc-staging/label/Ubuntu14.04x64-mingw32/gcc-build/avr/avr6/libgcc/../../../../gcc/libgcc/config/avr/lib1funcs.S:2229
    512a:	9b 84       	ldd	r9, Y+11	; 0x0b
/home/jenkins-mingw32/workspace/avr-gcc-staging/label/Ubuntu14.04x64-mingw32/gcc-build/avr/avr6/libgcc/../../../../gcc/libgcc/config/avr/lib1funcs.S:2230
    512c:	aa 84       	ldd	r10, Y+10	; 0x0a
/home/jenkins-mingw32/workspace/avr-gcc-staging/label/Ubuntu14.04x64-mingw32/gcc-build/avr/avr6/libgcc/../../../../gcc/libgcc/config/avr/lib1funcs.S:2231
    512e:	b9 84       	ldd	r11, Y+9	; 0x09
/home/jenkins-mingw32/workspace/avr-gcc-staging/label/Ubuntu14.04x64-mingw32/gcc-build/avr/avr6/libgcc/../../../../gcc/libgcc/config/avr/lib1funcs.S:2232
    5130:	c8 84       	ldd	r12, Y+8	; 0x08
/home/jenkins-mingw32/workspace/avr-gcc-staging/label/Ubuntu14.04x64-mingw32/gcc-build/avr/avr6/libgcc/../../../../gcc/libgcc/config/avr/lib1funcs.S:2233
    5132:	df 80       	ldd	r13, Y+7	; 0x07
/home/jenkins-mingw32/workspace/avr-gcc-staging/label/Ubuntu14.04x64-mingw32/gcc-build/avr/avr6/libgcc/../../../../gcc/libgcc/config/avr/lib1funcs.S:2234
    5134:	ee 80       	ldd	r14, Y+6	; 0x06
/home/jenkins-mingw32/workspace/avr-gcc-staging/label/Ubuntu14.04x64-mingw32/gcc-build/avr/avr6/libgcc/../../../../gcc/libgcc/config/avr/lib1funcs.S:2235
    5136:	fd 80       	ldd	r15, Y+5	; 0x05
/home/jenkins-mingw32/workspace/avr-gcc-staging/label/Ubuntu14.04x64-mingw32/gcc-build/avr/avr6/libgcc/../../../../gcc/libgcc/config/avr/lib1funcs.S:2236
    5138:	0c 81       	ldd	r16, Y+4	; 0x04
/home/jenkins-mingw32/workspace/avr-gcc-staging/label/Ubuntu14.04x64-mingw32/gcc-build/avr/avr6/libgcc/../../../../gcc/libgcc/config/avr/lib1funcs.S:2237
    513a:	1b 81       	ldd	r17, Y+3	; 0x03
/home/jenkins-mingw32/workspace/avr-gcc-staging/label/Ubuntu14.04x64-mingw32/gcc-build/avr/avr6/libgcc/../../../../gcc/libgcc/config/avr/lib1funcs.S:2238
    513c:	aa 81       	ldd	r26, Y+2	; 0x02
/home/jenkins-mingw32/workspace/avr-gcc-staging/label/Ubuntu14.04x64-mingw32/gcc-build/avr/avr6/libgcc/../../../../gcc/libgcc/config/avr/lib1funcs.S:2252
    513e:	b9 81       	ldd	r27, Y+1	; 0x01
/home/jenkins-mingw32/workspace/avr-gcc-staging/label/Ubuntu14.04x64-mingw32/gcc-build/avr/avr6/libgcc/../../../../gcc/libgcc/config/avr/lib1funcs.S:2253
    5140:	ce 0f       	add	r28, r30
/home/jenkins-mingw32/workspace/avr-gcc-staging/label/Ubuntu14.04x64-mingw32/gcc-build/avr/avr6/libgcc/../../../../gcc/libgcc/config/avr/lib1funcs.S:2254
    5142:	d1 1d       	adc	r29, r1
/home/jenkins-mingw32/workspace/avr-gcc-staging/label/Ubuntu14.04x64-mingw32/gcc-build/avr/avr6/libgcc/../../../../gcc/libgcc/config/avr/lib1funcs.S:2255
    5144:	0f b6       	in	r0, 0x3f	; 63
/home/jenkins-mingw32/workspace/avr-gcc-staging/label/Ubuntu14.04x64-mingw32/gcc-build/avr/avr6/libgcc/../../../../gcc/libgcc/config/avr/lib1funcs.S:2256
    5146:	f8 94       	cli
/home/jenkins-mingw32/workspace/avr-gcc-staging/label/Ubuntu14.04x64-mingw32/gcc-build/avr/avr6/libgcc/../../../../gcc/libgcc/config/avr/lib1funcs.S:2257
    5148:	de bf       	out	0x3e, r29	; 62
/home/jenkins-mingw32/workspace/avr-gcc-staging/label/Ubuntu14.04x64-mingw32/gcc-build/avr/avr6/libgcc/../../../../gcc/libgcc/config/avr/lib1funcs.S:2258
    514a:	0f be       	out	0x3f, r0	; 63
/home/jenkins-mingw32/workspace/avr-gcc-staging/label/Ubuntu14.04x64-mingw32/gcc-build/avr/avr6/libgcc/../../../../gcc/libgcc/config/avr/lib1funcs.S:2259
    514c:	cd bf       	out	0x3d, r28	; 61
/home/jenkins-mingw32/workspace/avr-gcc-staging/label/Ubuntu14.04x64-mingw32/gcc-build/avr/avr6/libgcc/../../../../gcc/libgcc/config/avr/lib1funcs.S:2260
    514e:	ed 01       	movw	r28, r26
/home/jenkins-mingw32/workspace/avr-gcc-staging/label/Ubuntu14.04x64-mingw32/gcc-build/avr/avr6/libgcc/../../../../gcc/libgcc/config/avr/lib1funcs.S:2263
    5150:	08 95       	ret

00005152 <__ashrdi3>:
__ashrdi3():
/home/jenkins-mingw32/workspace/avr-gcc-staging/label/Ubuntu14.04x64-mingw32/gcc-build/avr/avr6/libgcc/../../../../gcc/libgcc/config/avr/lib1funcs.S:3122
    5152:	97 fd       	sbrc	r25, 7
/home/jenkins-mingw32/workspace/avr-gcc-staging/label/Ubuntu14.04x64-mingw32/gcc-build/avr/avr6/libgcc/../../../../gcc/libgcc/config/avr/lib1funcs.S:3123
    5154:	10 94       	com	r1

00005156 <__lshrdi3>:
__lshrdi3():
/home/jenkins-mingw32/workspace/avr-gcc-staging/label/Ubuntu14.04x64-mingw32/gcc-build/avr/avr6/libgcc/../../../../gcc/libgcc/config/avr/lib1funcs.S:3131
    5156:	00 2e       	mov	r0, r16
/home/jenkins-mingw32/workspace/avr-gcc-staging/label/Ubuntu14.04x64-mingw32/gcc-build/avr/avr6/libgcc/../../../../gcc/libgcc/config/avr/lib1funcs.S:3132
    5158:	08 30       	cpi	r16, 0x08	; 8
/home/jenkins-mingw32/workspace/avr-gcc-staging/label/Ubuntu14.04x64-mingw32/gcc-build/avr/avr6/libgcc/../../../../gcc/libgcc/config/avr/lib1funcs.S:3133
    515a:	98 f0       	brcs	.+38     	; 0x5182 <__lshrdi3+0x2c>
/home/jenkins-mingw32/workspace/avr-gcc-staging/label/Ubuntu14.04x64-mingw32/gcc-build/avr/avr6/libgcc/../../../../gcc/libgcc/config/avr/lib1funcs.S:3134
    515c:	08 50       	subi	r16, 0x08	; 8
/home/jenkins-mingw32/workspace/avr-gcc-staging/label/Ubuntu14.04x64-mingw32/gcc-build/avr/avr6/libgcc/../../../../gcc/libgcc/config/avr/lib1funcs.S:3135
    515e:	23 2f       	mov	r18, r19
/home/jenkins-mingw32/workspace/avr-gcc-staging/label/Ubuntu14.04x64-mingw32/gcc-build/avr/avr6/libgcc/../../../../gcc/libgcc/config/avr/lib1funcs.S:3136
    5160:	34 2f       	mov	r19, r20
/home/jenkins-mingw32/workspace/avr-gcc-staging/label/Ubuntu14.04x64-mingw32/gcc-build/avr/avr6/libgcc/../../../../gcc/libgcc/config/avr/lib1funcs.S:3137
    5162:	45 2f       	mov	r20, r21
/home/jenkins-mingw32/workspace/avr-gcc-staging/label/Ubuntu14.04x64-mingw32/gcc-build/avr/avr6/libgcc/../../../../gcc/libgcc/config/avr/lib1funcs.S:3138
    5164:	56 2f       	mov	r21, r22
/home/jenkins-mingw32/workspace/avr-gcc-staging/label/Ubuntu14.04x64-mingw32/gcc-build/avr/avr6/libgcc/../../../../gcc/libgcc/config/avr/lib1funcs.S:3139
    5166:	67 2f       	mov	r22, r23
/home/jenkins-mingw32/workspace/avr-gcc-staging/label/Ubuntu14.04x64-mingw32/gcc-build/avr/avr6/libgcc/../../../../gcc/libgcc/config/avr/lib1funcs.S:3140
    5168:	78 2f       	mov	r23, r24
/home/jenkins-mingw32/workspace/avr-gcc-staging/label/Ubuntu14.04x64-mingw32/gcc-build/avr/avr6/libgcc/../../../../gcc/libgcc/config/avr/lib1funcs.S:3141
    516a:	89 2f       	mov	r24, r25
/home/jenkins-mingw32/workspace/avr-gcc-staging/label/Ubuntu14.04x64-mingw32/gcc-build/avr/avr6/libgcc/../../../../gcc/libgcc/config/avr/lib1funcs.S:3142
    516c:	91 2d       	mov	r25, r1
/home/jenkins-mingw32/workspace/avr-gcc-staging/label/Ubuntu14.04x64-mingw32/gcc-build/avr/avr6/libgcc/../../../../gcc/libgcc/config/avr/lib1funcs.S:3143
    516e:	f4 cf       	rjmp	.-24     	; 0x5158 <__lshrdi3+0x2>
/home/jenkins-mingw32/workspace/avr-gcc-staging/label/Ubuntu14.04x64-mingw32/gcc-build/avr/avr6/libgcc/../../../../gcc/libgcc/config/avr/lib1funcs.S:3144
    5170:	15 94       	asr	r1
/home/jenkins-mingw32/workspace/avr-gcc-staging/label/Ubuntu14.04x64-mingw32/gcc-build/avr/avr6/libgcc/../../../../gcc/libgcc/config/avr/lib1funcs.S:3145
    5172:	97 95       	ror	r25
/home/jenkins-mingw32/workspace/avr-gcc-staging/label/Ubuntu14.04x64-mingw32/gcc-build/avr/avr6/libgcc/../../../../gcc/libgcc/config/avr/lib1funcs.S:3146
    5174:	87 95       	ror	r24
/home/jenkins-mingw32/workspace/avr-gcc-staging/label/Ubuntu14.04x64-mingw32/gcc-build/avr/avr6/libgcc/../../../../gcc/libgcc/config/avr/lib1funcs.S:3147
    5176:	77 95       	ror	r23
/home/jenkins-mingw32/workspace/avr-gcc-staging/label/Ubuntu14.04x64-mingw32/gcc-build/avr/avr6/libgcc/../../../../gcc/libgcc/config/avr/lib1funcs.S:3148
    5178:	67 95       	ror	r22
/home/jenkins-mingw32/workspace/avr-gcc-staging/label/Ubuntu14.04x64-mingw32/gcc-build/avr/avr6/libgcc/../../../../gcc/libgcc/config/avr/lib1funcs.S:3149
    517a:	57 95       	ror	r21
/home/jenkins-mingw32/workspace/avr-gcc-staging/label/Ubuntu14.04x64-mingw32/gcc-build/avr/avr6/libgcc/../../../../gcc/libgcc/config/avr/lib1funcs.S:3150
    517c:	47 95       	ror	r20
/home/jenkins-mingw32/workspace/avr-gcc-staging/label/Ubuntu14.04x64-mingw32/gcc-build/avr/avr6/libgcc/../../../../gcc/libgcc/config/avr/lib1funcs.S:3151
    517e:	37 95       	ror	r19
/home/jenkins-mingw32/workspace/avr-gcc-staging/label/Ubuntu14.04x64-mingw32/gcc-build/avr/avr6/libgcc/../../../../gcc/libgcc/config/avr/lib1funcs.S:3152
    5180:	27 95       	ror	r18
/home/jenkins-mingw32/workspace/avr-gcc-staging/label/Ubuntu14.04x64-mingw32/gcc-build/avr/avr6/libgcc/../../../../gcc/libgcc/config/avr/lib1funcs.S:3153
    5182:	0a 95       	dec	r16
/home/jenkins-mingw32/workspace/avr-gcc-staging/label/Ubuntu14.04x64-mingw32/gcc-build/avr/avr6/libgcc/../../../../gcc/libgcc/config/avr/lib1funcs.S:3154
    5184:	aa f7       	brpl	.-22     	; 0x5170 <__lshrdi3+0x1a>
/home/jenkins-mingw32/workspace/avr-gcc-staging/label/Ubuntu14.04x64-mingw32/gcc-build/avr/avr6/libgcc/../../../../gcc/libgcc/config/avr/lib1funcs.S:3155
    5186:	11 24       	eor	r1, r1
/home/jenkins-mingw32/workspace/avr-gcc-staging/label/Ubuntu14.04x64-mingw32/gcc-build/avr/avr6/libgcc/../../../../gcc/libgcc/config/avr/lib1funcs.S:3156
    5188:	00 2d       	mov	r16, r0
/home/jenkins-mingw32/workspace/avr-gcc-staging/label/Ubuntu14.04x64-mingw32/gcc-build/avr/avr6/libgcc/../../../../gcc/libgcc/config/avr/lib1funcs.S:3157
    518a:	08 95       	ret

0000518c <__adddi3>:
__adddi3():
/home/jenkins-mingw32/workspace/avr-gcc-staging/label/Ubuntu14.04x64-mingw32/gcc-build/avr/avr6/libgcc/../../../../gcc/libgcc/config/avr/lib1funcs.S:2051
    518c:	2a 0d       	add	r18, r10
    518e:	3b 1d       	adc	r19, r11
    5190:	4c 1d       	adc	r20, r12
    5192:	5d 1d       	adc	r21, r13
/home/jenkins-mingw32/workspace/avr-gcc-staging/label/Ubuntu14.04x64-mingw32/gcc-build/avr/avr6/libgcc/../../../../gcc/libgcc/config/avr/lib1funcs.S:2052
    5194:	6e 1d       	adc	r22, r14
    5196:	7f 1d       	adc	r23, r15
    5198:	80 1f       	adc	r24, r16
    519a:	91 1f       	adc	r25, r17
/home/jenkins-mingw32/workspace/avr-gcc-staging/label/Ubuntu14.04x64-mingw32/gcc-build/avr/avr6/libgcc/../../../../gcc/libgcc/config/avr/lib1funcs.S:2053
    519c:	08 95       	ret

0000519e <__adddi3_s8>:
__adddi3_s8():
/home/jenkins-mingw32/workspace/avr-gcc-staging/label/Ubuntu14.04x64-mingw32/gcc-build/avr/avr6/libgcc/../../../../gcc/libgcc/config/avr/lib1funcs.S:2064
    519e:	00 24       	eor	r0, r0
/home/jenkins-mingw32/workspace/avr-gcc-staging/label/Ubuntu14.04x64-mingw32/gcc-build/avr/avr6/libgcc/../../../../gcc/libgcc/config/avr/lib1funcs.S:2065
    51a0:	a7 fd       	sbrc	r26, 7
/home/jenkins-mingw32/workspace/avr-gcc-staging/label/Ubuntu14.04x64-mingw32/gcc-build/avr/avr6/libgcc/../../../../gcc/libgcc/config/avr/lib1funcs.S:2066
    51a2:	00 94       	com	r0
/home/jenkins-mingw32/workspace/avr-gcc-staging/label/Ubuntu14.04x64-mingw32/gcc-build/avr/avr6/libgcc/../../../../gcc/libgcc/config/avr/lib1funcs.S:2067
    51a4:	2a 0f       	add	r18, r26
    51a6:	30 1d       	adc	r19, r0
    51a8:	40 1d       	adc	r20, r0
    51aa:	50 1d       	adc	r21, r0
/home/jenkins-mingw32/workspace/avr-gcc-staging/label/Ubuntu14.04x64-mingw32/gcc-build/avr/avr6/libgcc/../../../../gcc/libgcc/config/avr/lib1funcs.S:2068
    51ac:	60 1d       	adc	r22, r0
    51ae:	70 1d       	adc	r23, r0
    51b0:	80 1d       	adc	r24, r0
    51b2:	90 1d       	adc	r25, r0
/home/jenkins-mingw32/workspace/avr-gcc-staging/label/Ubuntu14.04x64-mingw32/gcc-build/avr/avr6/libgcc/../../../../gcc/libgcc/config/avr/lib1funcs.S:2069
    51b4:	08 95       	ret

000051b6 <__cmpdi2_s8>:
__cmpdi2_s8():
/home/jenkins-mingw32/workspace/avr-gcc-staging/label/Ubuntu14.04x64-mingw32/gcc-build/avr/avr6/libgcc/../../../../gcc/libgcc/config/avr/lib1funcs.S:2102
    51b6:	00 24       	eor	r0, r0
/home/jenkins-mingw32/workspace/avr-gcc-staging/label/Ubuntu14.04x64-mingw32/gcc-build/avr/avr6/libgcc/../../../../gcc/libgcc/config/avr/lib1funcs.S:2103
    51b8:	a7 fd       	sbrc	r26, 7
/home/jenkins-mingw32/workspace/avr-gcc-staging/label/Ubuntu14.04x64-mingw32/gcc-build/avr/avr6/libgcc/../../../../gcc/libgcc/config/avr/lib1funcs.S:2104
    51ba:	00 94       	com	r0
/home/jenkins-mingw32/workspace/avr-gcc-staging/label/Ubuntu14.04x64-mingw32/gcc-build/avr/avr6/libgcc/../../../../gcc/libgcc/config/avr/lib1funcs.S:2105
    51bc:	2a 17       	cp	r18, r26
    51be:	30 05       	cpc	r19, r0
    51c0:	40 05       	cpc	r20, r0
    51c2:	50 05       	cpc	r21, r0
/home/jenkins-mingw32/workspace/avr-gcc-staging/label/Ubuntu14.04x64-mingw32/gcc-build/avr/avr6/libgcc/../../../../gcc/libgcc/config/avr/lib1funcs.S:2106
    51c4:	60 05       	cpc	r22, r0
    51c6:	70 05       	cpc	r23, r0
    51c8:	80 05       	cpc	r24, r0
    51ca:	90 05       	cpc	r25, r0
/home/jenkins-mingw32/workspace/avr-gcc-staging/label/Ubuntu14.04x64-mingw32/gcc-build/avr/avr6/libgcc/../../../../gcc/libgcc/config/avr/lib1funcs.S:2107
    51cc:	08 95       	ret

000051ce <malloc>:
malloc():
    51ce:	0f 93       	push	r16
    51d0:	1f 93       	push	r17
    51d2:	cf 93       	push	r28
    51d4:	df 93       	push	r29
    51d6:	82 30       	cpi	r24, 0x02	; 2
    51d8:	91 05       	cpc	r25, r1
    51da:	10 f4       	brcc	.+4      	; 0x51e0 <malloc+0x12>
    51dc:	82 e0       	ldi	r24, 0x02	; 2
    51de:	90 e0       	ldi	r25, 0x00	; 0
    51e0:	e0 91 9e 05 	lds	r30, 0x059E	; 0x80059e <__flp>
    51e4:	f0 91 9f 05 	lds	r31, 0x059F	; 0x80059f <__flp+0x1>
    51e8:	30 e0       	ldi	r19, 0x00	; 0
    51ea:	20 e0       	ldi	r18, 0x00	; 0
    51ec:	b0 e0       	ldi	r27, 0x00	; 0
    51ee:	a0 e0       	ldi	r26, 0x00	; 0
    51f0:	30 97       	sbiw	r30, 0x00	; 0
    51f2:	99 f4       	brne	.+38     	; 0x521a <malloc+0x4c>
    51f4:	21 15       	cp	r18, r1
    51f6:	31 05       	cpc	r19, r1
    51f8:	09 f4       	brne	.+2      	; 0x51fc <malloc+0x2e>
    51fa:	4a c0       	rjmp	.+148    	; 0x5290 <malloc+0xc2>
    51fc:	28 1b       	sub	r18, r24
    51fe:	39 0b       	sbc	r19, r25
    5200:	24 30       	cpi	r18, 0x04	; 4
    5202:	31 05       	cpc	r19, r1
    5204:	d8 f5       	brcc	.+118    	; 0x527c <malloc+0xae>
    5206:	8a 81       	ldd	r24, Y+2	; 0x02
    5208:	9b 81       	ldd	r25, Y+3	; 0x03
    520a:	61 15       	cp	r22, r1
    520c:	71 05       	cpc	r23, r1
    520e:	89 f1       	breq	.+98     	; 0x5272 <malloc+0xa4>
    5210:	fb 01       	movw	r30, r22
    5212:	93 83       	std	Z+3, r25	; 0x03
    5214:	82 83       	std	Z+2, r24	; 0x02
    5216:	fe 01       	movw	r30, r28
    5218:	11 c0       	rjmp	.+34     	; 0x523c <malloc+0x6e>
    521a:	40 81       	ld	r20, Z
    521c:	51 81       	ldd	r21, Z+1	; 0x01
    521e:	02 81       	ldd	r16, Z+2	; 0x02
    5220:	13 81       	ldd	r17, Z+3	; 0x03
    5222:	48 17       	cp	r20, r24
    5224:	59 07       	cpc	r21, r25
    5226:	e0 f0       	brcs	.+56     	; 0x5260 <malloc+0x92>
    5228:	48 17       	cp	r20, r24
    522a:	59 07       	cpc	r21, r25
    522c:	99 f4       	brne	.+38     	; 0x5254 <malloc+0x86>
    522e:	10 97       	sbiw	r26, 0x00	; 0
    5230:	61 f0       	breq	.+24     	; 0x524a <malloc+0x7c>
    5232:	12 96       	adiw	r26, 0x02	; 2
    5234:	0c 93       	st	X, r16
    5236:	12 97       	sbiw	r26, 0x02	; 2
    5238:	13 96       	adiw	r26, 0x03	; 3
    523a:	1c 93       	st	X, r17
    523c:	32 96       	adiw	r30, 0x02	; 2
    523e:	cf 01       	movw	r24, r30
    5240:	df 91       	pop	r29
    5242:	cf 91       	pop	r28
    5244:	1f 91       	pop	r17
    5246:	0f 91       	pop	r16
    5248:	08 95       	ret
    524a:	00 93 9e 05 	sts	0x059E, r16	; 0x80059e <__flp>
    524e:	10 93 9f 05 	sts	0x059F, r17	; 0x80059f <__flp+0x1>
    5252:	f4 cf       	rjmp	.-24     	; 0x523c <malloc+0x6e>
    5254:	21 15       	cp	r18, r1
    5256:	31 05       	cpc	r19, r1
    5258:	51 f0       	breq	.+20     	; 0x526e <malloc+0xa0>
    525a:	42 17       	cp	r20, r18
    525c:	53 07       	cpc	r21, r19
    525e:	38 f0       	brcs	.+14     	; 0x526e <malloc+0xa0>
    5260:	a9 01       	movw	r20, r18
    5262:	db 01       	movw	r26, r22
    5264:	9a 01       	movw	r18, r20
    5266:	bd 01       	movw	r22, r26
    5268:	df 01       	movw	r26, r30
    526a:	f8 01       	movw	r30, r16
    526c:	c1 cf       	rjmp	.-126    	; 0x51f0 <malloc+0x22>
    526e:	ef 01       	movw	r28, r30
    5270:	f9 cf       	rjmp	.-14     	; 0x5264 <malloc+0x96>
    5272:	90 93 9f 05 	sts	0x059F, r25	; 0x80059f <__flp+0x1>
    5276:	80 93 9e 05 	sts	0x059E, r24	; 0x80059e <__flp>
    527a:	cd cf       	rjmp	.-102    	; 0x5216 <malloc+0x48>
    527c:	fe 01       	movw	r30, r28
    527e:	e2 0f       	add	r30, r18
    5280:	f3 1f       	adc	r31, r19
    5282:	81 93       	st	Z+, r24
    5284:	91 93       	st	Z+, r25
    5286:	22 50       	subi	r18, 0x02	; 2
    5288:	31 09       	sbc	r19, r1
    528a:	39 83       	std	Y+1, r19	; 0x01
    528c:	28 83       	st	Y, r18
    528e:	d7 cf       	rjmp	.-82     	; 0x523e <malloc+0x70>
    5290:	20 91 9c 05 	lds	r18, 0x059C	; 0x80059c <__brkval>
    5294:	30 91 9d 05 	lds	r19, 0x059D	; 0x80059d <__brkval+0x1>
    5298:	23 2b       	or	r18, r19
    529a:	41 f4       	brne	.+16     	; 0x52ac <malloc+0xde>
    529c:	20 91 02 02 	lds	r18, 0x0202	; 0x800202 <__malloc_heap_start>
    52a0:	30 91 03 02 	lds	r19, 0x0203	; 0x800203 <__malloc_heap_start+0x1>
    52a4:	30 93 9d 05 	sts	0x059D, r19	; 0x80059d <__brkval+0x1>
    52a8:	20 93 9c 05 	sts	0x059C, r18	; 0x80059c <__brkval>
    52ac:	20 91 00 02 	lds	r18, 0x0200	; 0x800200 <__DATA_REGION_ORIGIN__>
    52b0:	30 91 01 02 	lds	r19, 0x0201	; 0x800201 <__DATA_REGION_ORIGIN__+0x1>
    52b4:	21 15       	cp	r18, r1
    52b6:	31 05       	cpc	r19, r1
    52b8:	41 f4       	brne	.+16     	; 0x52ca <malloc+0xfc>
    52ba:	2d b7       	in	r18, 0x3d	; 61
    52bc:	3e b7       	in	r19, 0x3e	; 62
    52be:	40 91 04 02 	lds	r20, 0x0204	; 0x800204 <__malloc_margin>
    52c2:	50 91 05 02 	lds	r21, 0x0205	; 0x800205 <__malloc_margin+0x1>
    52c6:	24 1b       	sub	r18, r20
    52c8:	35 0b       	sbc	r19, r21
    52ca:	e0 91 9c 05 	lds	r30, 0x059C	; 0x80059c <__brkval>
    52ce:	f0 91 9d 05 	lds	r31, 0x059D	; 0x80059d <__brkval+0x1>
    52d2:	e2 17       	cp	r30, r18
    52d4:	f3 07       	cpc	r31, r19
    52d6:	a0 f4       	brcc	.+40     	; 0x5300 <malloc+0x132>
    52d8:	2e 1b       	sub	r18, r30
    52da:	3f 0b       	sbc	r19, r31
    52dc:	28 17       	cp	r18, r24
    52de:	39 07       	cpc	r19, r25
    52e0:	78 f0       	brcs	.+30     	; 0x5300 <malloc+0x132>
    52e2:	ac 01       	movw	r20, r24
    52e4:	4e 5f       	subi	r20, 0xFE	; 254
    52e6:	5f 4f       	sbci	r21, 0xFF	; 255
    52e8:	24 17       	cp	r18, r20
    52ea:	35 07       	cpc	r19, r21
    52ec:	48 f0       	brcs	.+18     	; 0x5300 <malloc+0x132>
    52ee:	4e 0f       	add	r20, r30
    52f0:	5f 1f       	adc	r21, r31
    52f2:	50 93 9d 05 	sts	0x059D, r21	; 0x80059d <__brkval+0x1>
    52f6:	40 93 9c 05 	sts	0x059C, r20	; 0x80059c <__brkval>
    52fa:	81 93       	st	Z+, r24
    52fc:	91 93       	st	Z+, r25
    52fe:	9f cf       	rjmp	.-194    	; 0x523e <malloc+0x70>
    5300:	f0 e0       	ldi	r31, 0x00	; 0
    5302:	e0 e0       	ldi	r30, 0x00	; 0
    5304:	9c cf       	rjmp	.-200    	; 0x523e <malloc+0x70>

00005306 <free>:
free():
    5306:	cf 93       	push	r28
    5308:	df 93       	push	r29
    530a:	00 97       	sbiw	r24, 0x00	; 0
    530c:	e9 f0       	breq	.+58     	; 0x5348 <free+0x42>
    530e:	fc 01       	movw	r30, r24
    5310:	32 97       	sbiw	r30, 0x02	; 2
    5312:	13 82       	std	Z+3, r1	; 0x03
    5314:	12 82       	std	Z+2, r1	; 0x02
    5316:	a0 91 9e 05 	lds	r26, 0x059E	; 0x80059e <__flp>
    531a:	b0 91 9f 05 	lds	r27, 0x059F	; 0x80059f <__flp+0x1>
    531e:	ed 01       	movw	r28, r26
    5320:	30 e0       	ldi	r19, 0x00	; 0
    5322:	20 e0       	ldi	r18, 0x00	; 0
    5324:	10 97       	sbiw	r26, 0x00	; 0
    5326:	a1 f4       	brne	.+40     	; 0x5350 <free+0x4a>
    5328:	20 81       	ld	r18, Z
    532a:	31 81       	ldd	r19, Z+1	; 0x01
    532c:	82 0f       	add	r24, r18
    532e:	93 1f       	adc	r25, r19
    5330:	20 91 9c 05 	lds	r18, 0x059C	; 0x80059c <__brkval>
    5334:	30 91 9d 05 	lds	r19, 0x059D	; 0x80059d <__brkval+0x1>
    5338:	28 17       	cp	r18, r24
    533a:	39 07       	cpc	r19, r25
    533c:	09 f0       	breq	.+2      	; 0x5340 <free+0x3a>
    533e:	61 c0       	rjmp	.+194    	; 0x5402 <free+0xfc>
    5340:	f0 93 9d 05 	sts	0x059D, r31	; 0x80059d <__brkval+0x1>
    5344:	e0 93 9c 05 	sts	0x059C, r30	; 0x80059c <__brkval>
    5348:	df 91       	pop	r29
    534a:	cf 91       	pop	r28
    534c:	08 95       	ret
    534e:	ea 01       	movw	r28, r20
    5350:	ce 17       	cp	r28, r30
    5352:	df 07       	cpc	r29, r31
    5354:	e8 f5       	brcc	.+122    	; 0x53d0 <free+0xca>
    5356:	4a 81       	ldd	r20, Y+2	; 0x02
    5358:	5b 81       	ldd	r21, Y+3	; 0x03
    535a:	9e 01       	movw	r18, r28
    535c:	41 15       	cp	r20, r1
    535e:	51 05       	cpc	r21, r1
    5360:	b1 f7       	brne	.-20     	; 0x534e <free+0x48>
    5362:	e9 01       	movw	r28, r18
    5364:	fb 83       	std	Y+3, r31	; 0x03
    5366:	ea 83       	std	Y+2, r30	; 0x02
    5368:	49 91       	ld	r20, Y+
    536a:	59 91       	ld	r21, Y+
    536c:	c4 0f       	add	r28, r20
    536e:	d5 1f       	adc	r29, r21
    5370:	ec 17       	cp	r30, r28
    5372:	fd 07       	cpc	r31, r29
    5374:	61 f4       	brne	.+24     	; 0x538e <free+0x88>
    5376:	80 81       	ld	r24, Z
    5378:	91 81       	ldd	r25, Z+1	; 0x01
    537a:	02 96       	adiw	r24, 0x02	; 2
    537c:	84 0f       	add	r24, r20
    537e:	95 1f       	adc	r25, r21
    5380:	e9 01       	movw	r28, r18
    5382:	99 83       	std	Y+1, r25	; 0x01
    5384:	88 83       	st	Y, r24
    5386:	82 81       	ldd	r24, Z+2	; 0x02
    5388:	93 81       	ldd	r25, Z+3	; 0x03
    538a:	9b 83       	std	Y+3, r25	; 0x03
    538c:	8a 83       	std	Y+2, r24	; 0x02
    538e:	f0 e0       	ldi	r31, 0x00	; 0
    5390:	e0 e0       	ldi	r30, 0x00	; 0
    5392:	12 96       	adiw	r26, 0x02	; 2
    5394:	8d 91       	ld	r24, X+
    5396:	9c 91       	ld	r25, X
    5398:	13 97       	sbiw	r26, 0x03	; 3
    539a:	00 97       	sbiw	r24, 0x00	; 0
    539c:	b9 f5       	brne	.+110    	; 0x540c <free+0x106>
    539e:	2d 91       	ld	r18, X+
    53a0:	3c 91       	ld	r19, X
    53a2:	11 97       	sbiw	r26, 0x01	; 1
    53a4:	cd 01       	movw	r24, r26
    53a6:	02 96       	adiw	r24, 0x02	; 2
    53a8:	82 0f       	add	r24, r18
    53aa:	93 1f       	adc	r25, r19
    53ac:	20 91 9c 05 	lds	r18, 0x059C	; 0x80059c <__brkval>
    53b0:	30 91 9d 05 	lds	r19, 0x059D	; 0x80059d <__brkval+0x1>
    53b4:	28 17       	cp	r18, r24
    53b6:	39 07       	cpc	r19, r25
    53b8:	39 f6       	brne	.-114    	; 0x5348 <free+0x42>
    53ba:	30 97       	sbiw	r30, 0x00	; 0
    53bc:	51 f5       	brne	.+84     	; 0x5412 <free+0x10c>
    53be:	10 92 9f 05 	sts	0x059F, r1	; 0x80059f <__flp+0x1>
    53c2:	10 92 9e 05 	sts	0x059E, r1	; 0x80059e <__flp>
    53c6:	b0 93 9d 05 	sts	0x059D, r27	; 0x80059d <__brkval+0x1>
    53ca:	a0 93 9c 05 	sts	0x059C, r26	; 0x80059c <__brkval>
    53ce:	bc cf       	rjmp	.-136    	; 0x5348 <free+0x42>
    53d0:	d3 83       	std	Z+3, r29	; 0x03
    53d2:	c2 83       	std	Z+2, r28	; 0x02
    53d4:	40 81       	ld	r20, Z
    53d6:	51 81       	ldd	r21, Z+1	; 0x01
    53d8:	84 0f       	add	r24, r20
    53da:	95 1f       	adc	r25, r21
    53dc:	c8 17       	cp	r28, r24
    53de:	d9 07       	cpc	r29, r25
    53e0:	61 f4       	brne	.+24     	; 0x53fa <free+0xf4>
    53e2:	4e 5f       	subi	r20, 0xFE	; 254
    53e4:	5f 4f       	sbci	r21, 0xFF	; 255
    53e6:	88 81       	ld	r24, Y
    53e8:	99 81       	ldd	r25, Y+1	; 0x01
    53ea:	48 0f       	add	r20, r24
    53ec:	59 1f       	adc	r21, r25
    53ee:	51 83       	std	Z+1, r21	; 0x01
    53f0:	40 83       	st	Z, r20
    53f2:	8a 81       	ldd	r24, Y+2	; 0x02
    53f4:	9b 81       	ldd	r25, Y+3	; 0x03
    53f6:	93 83       	std	Z+3, r25	; 0x03
    53f8:	82 83       	std	Z+2, r24	; 0x02
    53fa:	21 15       	cp	r18, r1
    53fc:	31 05       	cpc	r19, r1
    53fe:	09 f0       	breq	.+2      	; 0x5402 <free+0xfc>
    5400:	b0 cf       	rjmp	.-160    	; 0x5362 <free+0x5c>
    5402:	f0 93 9f 05 	sts	0x059F, r31	; 0x80059f <__flp+0x1>
    5406:	e0 93 9e 05 	sts	0x059E, r30	; 0x80059e <__flp>
    540a:	9e cf       	rjmp	.-196    	; 0x5348 <free+0x42>
    540c:	fd 01       	movw	r30, r26
    540e:	dc 01       	movw	r26, r24
    5410:	c0 cf       	rjmp	.-128    	; 0x5392 <free+0x8c>
    5412:	13 82       	std	Z+3, r1	; 0x03
    5414:	12 82       	std	Z+2, r1	; 0x02
    5416:	d7 cf       	rjmp	.-82     	; 0x53c6 <free+0xc0>

00005418 <__do_global_dtors>:
__do_global_dtors():
/home/jenkins-mingw32/workspace/avr-gcc-staging/label/Ubuntu14.04x64-mingw32/gcc-build/avr/avr6/libgcc/../../../../gcc/libgcc/config/avr/lib1funcs.S:2496
    5418:	11 e0       	ldi	r17, 0x01	; 1
/home/jenkins-mingw32/workspace/avr-gcc-staging/label/Ubuntu14.04x64-mingw32/gcc-build/avr/avr6/libgcc/../../../../gcc/libgcc/config/avr/lib1funcs.S:2497
    541a:	c7 e5       	ldi	r28, 0x57	; 87
/home/jenkins-mingw32/workspace/avr-gcc-staging/label/Ubuntu14.04x64-mingw32/gcc-build/avr/avr6/libgcc/../../../../gcc/libgcc/config/avr/lib1funcs.S:2498
    541c:	d1 e0       	ldi	r29, 0x01	; 1
/home/jenkins-mingw32/workspace/avr-gcc-staging/label/Ubuntu14.04x64-mingw32/gcc-build/avr/avr6/libgcc/../../../../gcc/libgcc/config/avr/lib1funcs.S:2500
    541e:	00 e0       	ldi	r16, 0x00	; 0
/home/jenkins-mingw32/workspace/avr-gcc-staging/label/Ubuntu14.04x64-mingw32/gcc-build/avr/avr6/libgcc/../../../../gcc/libgcc/config/avr/lib1funcs.S:2502
    5420:	06 c0       	rjmp	.+12     	; 0x542e <__do_global_dtors+0x16>
/home/jenkins-mingw32/workspace/avr-gcc-staging/label/Ubuntu14.04x64-mingw32/gcc-build/avr/avr6/libgcc/../../../../gcc/libgcc/config/avr/lib1funcs.S:2505
    5422:	80 2f       	mov	r24, r16
/home/jenkins-mingw32/workspace/avr-gcc-staging/label/Ubuntu14.04x64-mingw32/gcc-build/avr/avr6/libgcc/../../../../gcc/libgcc/config/avr/lib1funcs.S:2508
    5424:	fe 01       	movw	r30, r28
/home/jenkins-mingw32/workspace/avr-gcc-staging/label/Ubuntu14.04x64-mingw32/gcc-build/avr/avr6/libgcc/../../../../gcc/libgcc/config/avr/lib1funcs.S:2509
    5426:	0e 94 ca 27 	call	0x4f94	; 0x4f94 <__tablejump2__>
/home/jenkins-mingw32/workspace/avr-gcc-staging/label/Ubuntu14.04x64-mingw32/gcc-build/avr/avr6/libgcc/../../../../gcc/libgcc/config/avr/lib1funcs.S:2510
    542a:	21 96       	adiw	r28, 0x01	; 1
/home/jenkins-mingw32/workspace/avr-gcc-staging/label/Ubuntu14.04x64-mingw32/gcc-build/avr/avr6/libgcc/../../../../gcc/libgcc/config/avr/lib1funcs.S:2512
    542c:	01 1d       	adc	r16, r1
/home/jenkins-mingw32/workspace/avr-gcc-staging/label/Ubuntu14.04x64-mingw32/gcc-build/avr/avr6/libgcc/../../../../gcc/libgcc/config/avr/lib1funcs.S:2515
    542e:	c8 35       	cpi	r28, 0x58	; 88
/home/jenkins-mingw32/workspace/avr-gcc-staging/label/Ubuntu14.04x64-mingw32/gcc-build/avr/avr6/libgcc/../../../../gcc/libgcc/config/avr/lib1funcs.S:2516
    5430:	d1 07       	cpc	r29, r17
/home/jenkins-mingw32/workspace/avr-gcc-staging/label/Ubuntu14.04x64-mingw32/gcc-build/avr/avr6/libgcc/../../../../gcc/libgcc/config/avr/lib1funcs.S:2518
    5432:	80 e0       	ldi	r24, 0x00	; 0
/home/jenkins-mingw32/workspace/avr-gcc-staging/label/Ubuntu14.04x64-mingw32/gcc-build/avr/avr6/libgcc/../../../../gcc/libgcc/config/avr/lib1funcs.S:2519
    5434:	08 07       	cpc	r16, r24
/home/jenkins-mingw32/workspace/avr-gcc-staging/label/Ubuntu14.04x64-mingw32/gcc-build/avr/avr6/libgcc/../../../../gcc/libgcc/config/avr/lib1funcs.S:2521
    5436:	a9 f7       	brne	.-22     	; 0x5422 <__do_global_dtors+0xa>
/home/jenkins-mingw32/workspace/avr-gcc-staging/label/Ubuntu14.04x64-mingw32/gcc-build/avr/avr6/libgcc/../../../../gcc/libgcc/config/avr/lib1funcs.S:2278
    5438:	f8 94       	cli

0000543a <__stop_program>:
__stop_program():
/home/jenkins-mingw32/workspace/avr-gcc-staging/label/Ubuntu14.04x64-mingw32/gcc-build/avr/avr6/libgcc/../../../../gcc/libgcc/config/avr/lib1funcs.S:2280
    543a:	ff cf       	rjmp	.-2      	; 0x543a <__stop_program>
